
TransistorTester.elf:     file format elf32-avr

Sections:
Idx Name          Size      VMA       LMA       File off  Algn
  0 .data         00000000  00800100  00006916  000069ca  2**0
                  CONTENTS, ALLOC, LOAD, DATA
  1 .text         00006916  00000000  00000000  000000b4  2**1
                  CONTENTS, ALLOC, LOAD, READONLY, CODE
  2 .bss          000000ba  00800100  00800100  000069ca  2**0
                  ALLOC
  3 .eeprom       0000033b  00810000  00810000  000069ca  2**0
                  CONTENTS, ALLOC, LOAD, READONLY, DATA
  4 .comment      00000030  00000000  00000000  00006d05  2**0
                  CONTENTS, READONLY
  5 .note.gnu.avr.deviceinfo 00000040  00000000  00000000  00006d38  2**2
                  CONTENTS, READONLY
  6 .debug_aranges 000004d0  00000000  00000000  00006d78  2**3
                  CONTENTS, READONLY, DEBUGGING
  7 .debug_info   0000b837  00000000  00000000  00007248  2**0
                  CONTENTS, READONLY, DEBUGGING
  8 .debug_abbrev 000027d4  00000000  00000000  00012a7f  2**0
                  CONTENTS, READONLY, DEBUGGING
  9 .debug_line   00007e10  00000000  00000000  00015253  2**0
                  CONTENTS, READONLY, DEBUGGING
 10 .debug_frame  00000c4c  00000000  00000000  0001d064  2**2
                  CONTENTS, READONLY, DEBUGGING
 11 .debug_str    00001912  00000000  00000000  0001dcb0  2**0
                  CONTENTS, READONLY, DEBUGGING
 12 .debug_loc    00006746  00000000  00000000  0001f5c2  2**0
                  CONTENTS, READONLY, DEBUGGING
 13 .debug_ranges 00000098  00000000  00000000  00025d08  2**0
                  CONTENTS, READONLY, DEBUGGING

Disassembly of section .text:

00000000 <__vectors>:
       0:	8d c1       	rjmp	.+794    	; 0x31c <__ctors_end>
       2:	00 00       	nop
       4:	9d c1       	rjmp	.+826    	; 0x340 <__bad_interrupt>
       6:	00 00       	nop
       8:	9b c1       	rjmp	.+822    	; 0x340 <__bad_interrupt>
       a:	00 00       	nop
       c:	99 c1       	rjmp	.+818    	; 0x340 <__bad_interrupt>
       e:	00 00       	nop
      10:	97 c1       	rjmp	.+814    	; 0x340 <__bad_interrupt>
      12:	00 00       	nop
      14:	0c 94 8d 22 	jmp	0x451a	; 0x451a <__vector_5>
      18:	93 c1       	rjmp	.+806    	; 0x340 <__bad_interrupt>
      1a:	00 00       	nop
      1c:	bb c6       	rjmp	.+3446   	; 0xd94 <__vector_7>
      1e:	00 00       	nop
      20:	8f c1       	rjmp	.+798    	; 0x340 <__bad_interrupt>
      22:	00 00       	nop
      24:	8d c1       	rjmp	.+794    	; 0x340 <__bad_interrupt>
      26:	00 00       	nop
      28:	0c 94 c2 18 	jmp	0x3184	; 0x3184 <__vector_10>
      2c:	0c 94 71 22 	jmp	0x44e2	; 0x44e2 <__vector_11>
      30:	0c 94 7f 22 	jmp	0x44fe	; 0x44fe <__vector_12>
      34:	0c 94 9c 18 	jmp	0x3138	; 0x3138 <__vector_13>
      38:	83 c1       	rjmp	.+774    	; 0x340 <__bad_interrupt>
      3a:	00 00       	nop
      3c:	81 c1       	rjmp	.+770    	; 0x340 <__bad_interrupt>
      3e:	00 00       	nop
      40:	0c 94 4b 22 	jmp	0x4496	; 0x4496 <__vector_16>
      44:	7d c1       	rjmp	.+762    	; 0x340 <__bad_interrupt>
      46:	00 00       	nop
      48:	7b c1       	rjmp	.+758    	; 0x340 <__bad_interrupt>
      4a:	00 00       	nop
      4c:	79 c1       	rjmp	.+754    	; 0x340 <__bad_interrupt>
      4e:	00 00       	nop
      50:	77 c1       	rjmp	.+750    	; 0x340 <__bad_interrupt>
      52:	00 00       	nop
      54:	a0 c6       	rjmp	.+3392   	; 0xd96 <__vector_21>
      56:	00 00       	nop
      58:	73 c1       	rjmp	.+742    	; 0x340 <__bad_interrupt>
      5a:	00 00       	nop
      5c:	71 c1       	rjmp	.+738    	; 0x340 <__bad_interrupt>
      5e:	00 00       	nop
      60:	6f c1       	rjmp	.+734    	; 0x340 <__bad_interrupt>
      62:	00 00       	nop
      64:	6d c1       	rjmp	.+730    	; 0x340 <__bad_interrupt>
	...

00000068 <samplingADC>:
	lds r7,ADMUX
#endif

; r25 is span

	mov	r30,r22			; r31:r30 := ptr
      68:	e6 2f       	mov	r30, r22
	mov	r31,r23
      6a:	f7 2f       	mov	r31, r23

	cpi	r25,0		; set nonsensical span of 0 to 1
      6c:	90 30       	cpi	r25, 0x00	; 0
	brne L16
      6e:	09 f4       	brne	.+2      	; 0x72 <L16>
	inc r25
      70:	93 95       	inc	r25

00000072 <L16>:
L16:

 	AOUT	R_PORT, R14	;   Rport_0
      72:	e5 b8       	out	0x05, r14	; 5
 	AOUT	R_DDR, R12	;   Rddr_0
      74:	c4 b8       	out	0x04, r12	; 4

 	ldi	r27, (1<<ADEN) | (1<<ADSC) | (1<<ADATE) | (1<<ADIF) | (0<<ADIE) | AUTO_CLOCK_DIV;
      76:	b7 ef       	ldi	r27, 0xF7	; 247
 	sts	ADCSRA, r27		; start first ADC with ext trigger, but start immediately also, to get done that first conversion which takes extra long
      78:	b0 93 7a 00 	sts	0x007A, r27	; 0x80007a <__TEXT_REGION_LENGTH__+0x7e007a>
 	ldi	r26, (1<<ADTS2) | (0<<ADTS1) | (1<<ADTS0); 
      7c:	a5 e0       	ldi	r26, 0x05	; 5
 	sts	ADCSRB, r26		; trigger source is COUNTER1 compare match B
      7e:	a0 93 7b 00 	sts	0x007B, r26	; 0x80007b <__TEXT_REGION_LENGTH__+0x7e007b>

        ldi	r26,(1<<WGM12)
      82:	a8 e0       	ldi	r26, 0x08	; 8
 	sts	TCCR1B, r26		; TCCR1B = 0;  stop counter1
      84:	a0 93 81 00 	sts	0x0081, r26	; 0x800081 <__TEXT_REGION_LENGTH__+0x7e0081>
 	sts	TCCR1A, r1  		; TCCR1A = 0;  set counter1 to Clear Timer on Compare Match mode
      88:	10 92 80 00 	sts	0x0080, r1	; 0x800080 <__TEXT_REGION_LENGTH__+0x7e0080>
	ldi	r26,0xff
      8c:	af ef       	ldi	r26, 0xFF	; 255
 	sts	TCNT1H, r26		; set initial counter to -1
      8e:	a0 93 85 00 	sts	0x0085, r26	; 0x800085 <__TEXT_REGION_LENGTH__+0x7e0085>
 	sts	TCNT1L, r26
      92:	a0 93 84 00 	sts	0x0084, r26	; 0x800084 <__TEXT_REGION_LENGTH__+0x7e0084>
 	ldi r26,(1<<OCF1B)|(1<<OCF1A)
      96:	a6 e0       	ldi	r26, 0x06	; 6
 	sts	TIFR1, r26		; reset both counter compare interrupts, otherwise ADC might be started prematurely
      98:	a0 93 36 00 	sts	0x0036, r26	; 0x800036 <__TEXT_REGION_LENGTH__+0x7e0036>
 	sts	OCR1BH, r1		; schedule start of ADC cycle at counter=0, i.e., essentially immediately
      9c:	10 92 8b 00 	sts	0x008B, r1	; 0x80008b <__TEXT_REGION_LENGTH__+0x7e008b>
 	sts	OCR1BL, r1		; 
      a0:	10 92 8a 00 	sts	0x008A, r1	; 0x80008a <__TEXT_REGION_LENGTH__+0x7e008a>
	pop r24
#endif

				; prepare timing and registers for main loop
					; r27:26 will contain the TOP value for the counter, i.e., 1 less than the pulse-generation period
	ldi 	r27,hi8(TICS_PER_ADC_CYCLE-1)
      a4:	b6 e0       	ldi	r27, 0x06	; 6
	ldi 	r26,lo8(TICS_PER_ADC_CYCLE-1)
      a6:	af e7       	ldi	r26, 0x7F	; 127
	sub 	r26,r25			; this defaults to 1663-span, but may need to be incremented if measurement will take longer due to large span
      a8:	a9 1b       	sub	r26, r25
	ldi	r21,1			; r21 will contain number of ADC readings per pulse
      aa:	51 e0       	ldi	r21, 0x01	; 1
 	mov	r19,r25			; load span into r19; total measurement will cover r19*nn tics, which is upperbounded by 256*r19
      ac:	39 2f       	mov	r19, r25

000000ae <L14>:
 					; one ADC cycle is 13*128 (or 13*64) tics, but we need some time for generating the pulse, so can fit say at most 10*128 = 5*256 tics (or 8*64 = 2*256; 10*64 isn't a multiple of 256, so would require more code)
 					; NEW: leave a bit more space so we can also do the long train of pulses for crystals
L14:
 	cpi	r19,(1+10*TICS_PER_ADC_CLOCK/256)	; if "remaining" span <=5 (or <=2), we're fine, don't need to increase pulse generation period
      ae:	36 30       	cpi	r19, 0x06	; 6
#ifdef WITH_XTAL
	sbrc r24,smplADC_many
 	cpi	r19,(2+2*TICS_PER_ADC_CLOCK/256)	; in case of long pulse train: if "remaining" span <=3 (or <=2), we're fine, don't need to increase pulse generation period
#endif
 	brmi L13
      b0:	2a f0       	brmi	.+10     	; 0xbc <L13>
 	subi	r26,lo8(-TICS_PER_ADC_CYCLE)	; otherwise, extend pulse generation period by 1664
      b2:	a0 58       	subi	r26, 0x80	; 128
 	sbci	r27,hi8(-TICS_PER_ADC_CYCLE)		
      b4:	b9 4f       	sbci	r27, 0xF9	; 249
 	inc	r21			; increment number of ADC readings per pulse
      b6:	53 95       	inc	r21
 	subi	r19,3*(TICS_PER_ADC_CLOCK/64)		; each extra ADC cycle included in pulse generation period makes space for 13*128 (or 13*64) tics; for simplicity we (safely) calculate as if it were 12*128 = 6*256 (or 12*64 = 3*256)
      b8:	36 50       	subi	r19, 0x06	; 6
 	rjmp L14			; check whether this was enough
      ba:	f9 cf       	rjmp	.-14     	; 0xae <L14>

000000bc <L13>:
L13:
 	sts	OCR1AH, r27		; store calculated TOP value for counter 1
      bc:	b0 93 89 00 	sts	0x0089, r27	; 0x800089 <__TEXT_REGION_LENGTH__+0x7e0089>
 	sts	OCR1AL, r26		; 
      c0:	a0 93 88 00 	sts	0x0088, r26	; 0x800088 <__TEXT_REGION_LENGTH__+0x7e0088>

000000c4 <wait_adc>:



wait_adc:
 	lds	r26, ADCSRA		
      c4:	a0 91 7a 00 	lds	r26, 0x007A	; 0x80007a <__TEXT_REGION_LENGTH__+0x7e007a>
 	sbrs	r26, ADIF
      c8:	a4 ff       	sbrs	r26, 4
 	rjmp	wait_adc 		; wait until the initial conversion finishes
      ca:	fc cf       	rjmp	.-8      	; 0xc4 <wait_adc>
 	ldi	r27, (1<<ADEN) | (1<<ADATE) | (1<<ADIF) | (0<<ADIE) | AUTO_CLOCK_DIV;
      cc:	b7 eb       	ldi	r27, 0xB7	; 183
 	sts	ADCSRA, r27		; reset ADC interrupt flag
      ce:	b0 93 7a 00 	sts	0x007A, r27	; 0x80007a <__TEXT_REGION_LENGTH__+0x7e007a>

 	ldi r26,(1<<OCIE1A)
      d2:	a2 e0       	ldi	r26, 0x02	; 2
 	sts	TIMSK1, r26		; disable counter1 compare B Interrupt (used to trigger ADC), enable counter1 compare A Interrupt (used to exit sleep to generate next pulse)
      d4:	a0 93 6f 00 	sts	0x006F, r26	; 0x80006f <__TEXT_REGION_LENGTH__+0x7e006f>

 	ldi	r26, (1<<CS10)|(1<<WGM12)
      d8:	a9 e0       	ldi	r26, 0x09	; 9
 	sts	TCCR1B, r26		; start counter1 at full speed
      da:	a0 93 81 00 	sts	0x0081, r26	; 0x800081 <__TEXT_REGION_LENGTH__+0x7e0081>

	ldi	r22,2			; skip first ADC result since it is nonsense (it predates the start of the pulse or step)
      de:	62 e0       	ldi	r22, 0x02	; 2

	ldi	r26, 0			; switch ADC to free-running mode (we can do that here because can be sure that by now it has been triggered)
      e0:	a0 e0       	ldi	r26, 0x00	; 0
	sts	ADCSRB, r26		; 
      e2:	a0 93 7b 00 	sts	0x007B, r26	; 0x80007b <__TEXT_REGION_LENGTH__+0x7e007b>

000000e6 <backtosleep>:
; - ... |smplADC_many:        4 times longer bunch of pulses via Rport_1
; - ... |smplADC_sck:         short-circuit the DUT for a while after applying pulses
; - smplADC_direct:           single pulse via the ADC pins, i.e. with no series resistance ("direct" pulse)

backtosleep:
	ldi r26,(1<<SE)
      e6:	a1 e0       	ldi	r26, 0x01	; 1
	sts SMCR,r26
      e8:	a0 93 53 00 	sts	0x0053, r26	; 0x800053 <__TEXT_REGION_LENGTH__+0x7e0053>
	sleep
      ec:	88 95       	sleep

	; toggle output (back) to the idle state 
 	AOUT	R_PORT, R14	;   Rport_0
      ee:	e5 b8       	out	0x05, r14	; 5
 	AOUT	R_DDR, R12	;   Rddr_0
      f0:	c4 b8       	out	0x04, r12	; 4

	sbrs 	r24,smplADC_direct
      f2:	84 ff       	sbrs	r24, 4
	rjmp stepresponse
      f4:	19 c0       	rjmp	.+50     	; 0x128 <stepresponse>

 	; wait a bit less than 256 ticks; precise value determined experimentally, by looking at the sampled data and aligning start of response with first sample
#define Delay_pulse (201-Lessdelay)

 	ldi	r26,(Delay_pulse/3)
      f6:	a3 e4       	ldi	r26, 0x43	; 67

000000f8 <L11>:
	nop
#endif
#if Delay_pulse%3>1
	nop
#endif
L11:	dec r26
      f8:	aa 95       	dec	r26
	brne L11
      fa:	f1 f7       	brne	.-4      	; 0xf8 <L11>
	; do the "direct" pulse, i.e., apply the pulse via de ADC pins, with no series resistance
	push 	r30
      fc:	ef 93       	push	r30
	push	r31
      fe:	ff 93       	push	r31
	in	r30, _SFR_IO_ADDR(ADC_DDR)	;
     100:	e7 b1       	in	r30, 0x07	; 7
	in	r31, _SFR_IO_ADDR(ADC_PORT)	;
     102:	f8 b1       	in	r31, 0x08	; 8
	ldi	r26, (1<<TP3)	;
     104:	a4 e0       	ldi	r26, 0x04	; 4
	sbrc	R12, PIN_RL2	; is the bit for TP2 resistor set?
     106:	c2 fc       	sbrc	r12, 2
	ldi	r26, (1<<TP2)	;
     108:	a2 e0       	ldi	r26, 0x02	; 2
	sbrc	R12, PIN_RL1	; ist the bit for TP3 resistor set?
     10a:	c0 fc       	sbrc	r12, 0
	ldi	r26, (1<<TP1)	;
     10c:	a1 e0       	ldi	r26, 0x01	; 1
	; r26 now hold the bit for the direct ADC port
	mov	r27, r31	; ADC_PORT state
     10e:	bf 2f       	mov	r27, r31
	or	r27, r26	; r27 is the for ADC port with HiPin set to 1
     110:	ba 2b       	or	r27, r26
	or	r26, r30	; r26 enables the HiPin and LoPin output,  ADC_DDR
     112:	ae 2b       	or	r26, r30
	AOUT	ADC_PORT, r27	; set Hipin to high
     114:	b8 b9       	out	0x08, r27	; 8
	AOUT	R_DDR, R16	; R_DDR = Rddr1 open all resistor ports
     116:	04 b9       	out	0x04, r16	; 4
	AOUT	ADC_DDR, r26	; one clock tic high without resistor at HiPin, current about 5V/(42 Ohm)=119mA !!!
     118:	a7 b9       	out	0x07, r26	; 7
	AOUT	ADC_DDR, r30	; disable the HiPin output
     11a:	e7 b9       	out	0x07, r30	; 7
	AOUT	ADC_PORT, r31	; reset Hipin to low
     11c:	f8 b9       	out	0x08, r31	; 8
	pop	r31
     11e:	ff 91       	pop	r31
	pop	r30
     120:	ef 91       	pop	r30
	rjmp	waitevent
     122:	0a c0       	rjmp	.+20     	; 0x138 <genfreq_end>

00000124 <backtosleep2>:


backtosleep2:
	jmp backtosleep
     124:	0c 94 73 00 	jmp	0xe6	; 0xe6 <backtosleep>

00000128 <stepresponse>:
#ifdef WITH_XTAL
 #define Delay_step (211-Lessdelay)
#else
 #define Delay_step (214-Lessdelay)
#endif
 	ldi	r26,(Delay_step/3)
     128:	a7 e4       	ldi	r26, 0x47	; 71
	...

0000012c <L10>:
	nop
#endif
#if Delay_step%3>1
	nop
#endif
L10:	dec r26
     12c:	aa 95       	dec	r26
	brne L10
     12e:	f1 f7       	brne	.-4      	; 0x12c <L10>

	AOUT	R_PORT, R18	;  = Rport_1
     130:	25 b9       	out	0x05, r18	; 5
	AOUT	R_PORT, R14	;  = Rport_0
     132:	e5 b8       	out	0x05, r14	; 5
	nop
     134:	00 00       	nop
				; generate start of step signal
				; this is (should be) aligned with the first sample
 	AOUT	R_DDR, R16	;  R_DDR = Rddr_1
     136:	04 b9       	out	0x04, r16	; 4

00000138 <genfreq_end>:
genfreq_end:



waitevent:			; waiting loop: we wait until either counter1 is almost going to be reset, or the AD converter has a result
	lds	r26, TCNT1L	; need to read TCNT1L to latch TCNT1H
     138:	a0 91 84 00 	lds	r26, 0x0084	; 0x800084 <__TEXT_REGION_LENGTH__+0x7e0084>
	lds	r26, TCNT1H
     13c:	a0 91 85 00 	lds	r26, 0x0085	; 0x800085 <__TEXT_REGION_LENGTH__+0x7e0085>
	lds	r27, OCR1AH
     140:	b0 91 89 00 	lds	r27, 0x0089	; 0x800089 <__TEXT_REGION_LENGTH__+0x7e0089>
	inc	r26
     144:	a3 95       	inc	r26
	cp	r26,r27		; check if TCNT1H is getting near OCR1AH; if so, go to sleep to be sure not to miss the interrupt
     146:	ab 17       	cp	r26, r27
	brcc backtosleep2
     148:	68 f7       	brcc	.-38     	; 0x124 <backtosleep2>
	breq L27
	AOUT 	ADC_DDR,r9	; set ADC_DDR back to its original non-shortcircuiting value
L26:
#endif

 	lds	r26, ADCSRA	; otherwise:
     14a:	a0 91 7a 00 	lds	r26, 0x007A	; 0x80007a <__TEXT_REGION_LENGTH__+0x7e007a>
 	sbrs	r26, ADIF	; check if conversion done (interrupt flag is raised)
     14e:	a4 ff       	sbrs	r26, 4
 	rjmp	waitevent	; if not, go back to checking counter
     150:	f3 cf       	rjmp	.-26     	; 0x138 <genfreq_end>

 				; the ADC gives a result
 	ldi	r27, (1<<ADEN) | (1<<ADATE) | (1<<ADIF) | (0<<ADIE) | AUTO_CLOCK_DIV;
     152:	b7 eb       	ldi	r27, 0xB7	; 183
 	sts	ADCSRA, r27	; reset ADC interrupt flag
     154:	b0 93 7a 00 	sts	0x007A, r27	; 0x80007a <__TEXT_REGION_LENGTH__+0x7e007a>
L22:
	sts ADMUX,r19
L23:
#endif
 				; now need to check whether we should read or discard it
	dec	r22		; r22 counts AD conversions within one pulse cycle
     158:	6a 95       	dec	r22

0000015a <brnewaitevent>:
brnewaitevent:
	brne	waitevent	; if r22 not yet zero, it's not yet our turn
     15a:	71 f7       	brne	.-36     	; 0x138 <genfreq_end>


	lds	r22, ADCL	; read ADC
     15c:	60 91 78 00 	lds	r22, 0x0078	; 0x800078 <__TEXT_REGION_LENGTH__+0x7e0078>
	lds	r23, ADCH
     160:	70 91 79 00 	lds	r23, 0x0079	; 0x800079 <__TEXT_REGION_LENGTH__+0x7e0079>
	sbc 	r23,r19
	add	r4,r22		; update DC<<2, namely  dc := (sample-dc)/8 ;
	adc	r5,r23
#endif

	ld	r19,z		; and store, accumulating if that bit in r24 is set
     164:	30 81       	ld	r19, Z
	sbrc 	r24,smplADC_cumul
     166:	86 fd       	sbrc	r24, 6
	add	r22,r19
     168:	63 0f       	add	r22, r19
	st	z+,r22
     16a:	61 93       	st	Z+, r22
	ld	r19,z
     16c:	30 81       	ld	r19, Z
	sbrc 	r24,smplADC_cumul
     16e:	86 fd       	sbrc	r24, 6
	adc	r23,r19
     170:	73 1f       	adc	r23, r19
	sbrs    r24,smplADC_8bit
     172:	80 ff       	sbrs	r24, 0
	st	z+,r23
     174:	71 93       	st	Z+, r23

	mov	r22,r21		; reinitialize r22
     176:	65 2f       	mov	r22, r21

	dec r20			; decrement counter of remaining samples
     178:	4a 95       	dec	r20
;	brne waitevent
	brne brnewaitevent
     17a:	79 f7       	brne	.-34     	; 0x15a <brnewaitevent>

0000017c <end>:

end:
 	sts	TIMSK1, r1	; disable counter1 interrupts
     17c:	10 92 6f 00 	sts	0x006F, r1	; 0x80006f <__TEXT_REGION_LENGTH__+0x7e006f>
 	sts	TCCR1B, r1	; stop counter1
     180:	10 92 81 00 	sts	0x0081, r1	; 0x800081 <__TEXT_REGION_LENGTH__+0x7e0081>
 	ldi	r27, AUTO_CLOCK_DIV;
     184:	b7 e0       	ldi	r27, 0x07	; 7
 	sts	ADCSRA, r27	; disable ADC
     186:	b0 93 7a 00 	sts	0x007A, r27	; 0x80007a <__TEXT_REGION_LENGTH__+0x7e007a>
L30c:
	pop r17
	pop r5
	pop r4
#endif
	ret
     18a:	08 95       	ret

0000018c <PinRLRHADCtab>:
     18c:	01 04 10 09 0a 0c                                   ......

00000192 <HelpCalibration_str>:
     192:	4e 6f 74 20 63 61 6c 69 62 72 61 74 65 64 21 20     Not calibrated! 
     1a2:	46 6f 72 ff 63 61 6c 69 62 72 61 74 69 6f 6e 20     For.calibration 
     1b2:	63 6c 61 6d 70 20 74 68 65 20 33 ff 70 69 6e 73     clamp the 3.pins
     1c2:	20 74 6f 67 65 74 68 65 72 20 61 6e 64 20 73 74      together and st
     1d2:	61 72 74 20 77 69 74 68 20 74 68 65 ff 6b 65 79     art with the.key
     1e2:	2e 20 41 63 6b 6e 6f 77 6c 65 64 67 65 20 74 68     . Acknowledge th
     1f2:	65 20 73 65 6c 66 2d 74 65 73 74 20 77 69 74 68     e self-test with
     202:	20 74 68 65 20 6b 65 79 20 77 69 74 68 69 6e ff      the key within.
     212:	32 73 2e 20 44 69 73 63 6f 6e 6e 65 63 74 20 70     2s. Disconnect p
     222:	69 6e 73 20 61 66 74 65 72 20 74 68 65 ff 6d 65     ins after the.me
     232:	73 73 61 67 65 20 22 69 73 6f 6c 61 74 65 ff 50     ssage "isolate.P
     242:	72 6f 62 65 21 22 20 69 73 20 73 68 6f 77 6e 2e     robe!" is shown.
     252:	20 53 6f 66 74 77 61 72 65 20 61 6e 64 20 64 6f      Software and do
     262:	63 75 6d 65 6e 74 61 74 69 6f 6e 20 69 73 20 61     cumentation is a
     272:	74 20 73 76 6e 3a 2f 2f 20 6d 69 6b 72 6f 63 6f     t svn:// mikroco
     282:	6e 74 72 6f 6c 6c 65 72 2e 20 6e 65 74 2f 74 72     ntroller. net/tr
     292:	61 6e 73 69 73 74 6f 72 20 74 65 73 74 65 72 20     ansistor tester 
	...

000002a3 <RHtab>:
     2a3:	b9 03 87 03 58 03 2e 03 07 03 e4 02 c3 02 a4 02     ....X...........
     2b3:	88 02                                               ..

000002b5 <LogTab>:
     2b5:	00 00 14 00 29 00 3e 00 53 00 69 00 80 00 97 00     ....).>.S.i.....
     2c5:	ae 00 c6 00 df 00 f8 00 12 01 2d 01 49 01 65 01     ..........-.I.e.
     2d5:	82 01 a0 01 be 01 de 01 ff 01 21 02 44 02 68 02     ..........!.D.h.
     2e5:	8e 02 b5 02 de 02 09 03 35 03 64 03 94 03 c8 03     ........5.d.....
     2f5:	fe 03 37 04 73 04 b4 04 f9 04 43 05 93 05 ea 05     ..7.s.....C.....
     305:	49 06 b3 06 29 07 ae 07 48 08 ff 08 de 09 fd 0a     I...)...H.......
     315:	93 0c 48 0f 99 1b 00                                ..H....

0000031c <__ctors_end>:
     31c:	11 24       	eor	r1, r1
     31e:	1f be       	out	0x3f, r1	; 63
     320:	cf ef       	ldi	r28, 0xFF	; 255
     322:	d8 e0       	ldi	r29, 0x08	; 8
     324:	de bf       	out	0x3e, r29	; 62
     326:	cd bf       	out	0x3d, r28	; 61

00000328 <__do_clear_bss>:
     328:	21 e0       	ldi	r18, 0x01	; 1
     32a:	a0 e0       	ldi	r26, 0x00	; 0
     32c:	b1 e0       	ldi	r27, 0x01	; 1
     32e:	01 c0       	rjmp	.+2      	; 0x332 <.do_clear_bss_start>

00000330 <.do_clear_bss_loop>:
     330:	1d 92       	st	X+, r1

00000332 <.do_clear_bss_start>:
     332:	aa 3b       	cpi	r26, 0xBA	; 186
     334:	b2 07       	cpc	r27, r18
     336:	e1 f7       	brne	.-8      	; 0x330 <.do_clear_bss_loop>
     338:	0e 94 0f 2d 	call	0x5a1e	; 0x5a1e <main>
     33c:	0c 94 89 34 	jmp	0x6912	; 0x6912 <_exit>

00000340 <__bad_interrupt>:
     340:	5f ce       	rjmp	.-834    	; 0x0 <__vectors>

00000342 <_lcd_hw_write>:
#else	/* !(LCD_INTERFACE_MODE == (MODE_SPI | MODE_7920_SERIAL | MODE_I2C | MODE_7108_SERIAL)) */
;---------------------------------------------------------------------------------
_lcd_hw_write:
; must be a 4-bit parallel interface for HD44780 compatible controller or simular
               ; Set RS (0=Cmd, 1=Char)
               sbrc    preg_1, 0
     342:	80 fd       	sbrc	r24, 0
                       set_rs_high
     344:	5c 9a       	sbi	0x0b, 4	; 11
               sbrs    preg_1, 0
     346:	80 ff       	sbrs	r24, 0
                       set_rs_low
     348:	5c 98       	cbi	0x0b, 4	; 11
               set_rs_output;		//init hardware
     34a:	54 9a       	sbi	0x0a, 4	; 10
               nop	;		//wait for address setup
     34c:	00 00       	nop
               set_en_high
     34e:	5d 9a       	sbi	0x0b, 5	; 11
               set_en_output;		//init hardware
     350:	55 9a       	sbi	0x0a, 5	; 10

               ; Send high nibble
               set_b4_low
     352:	58 98       	cbi	0x0b, 0	; 11
               set_b5_low
     354:	59 98       	cbi	0x0b, 1	; 11
               set_b6_low
     356:	5a 98       	cbi	0x0b, 2	; 11
               set_b7_low
     358:	5b 98       	cbi	0x0b, 3	; 11

               sbrc    preg_2, 4
     35a:	64 fd       	sbrc	r22, 4
                       set_b4_high
     35c:	58 9a       	sbi	0x0b, 0	; 11
               set_b4_output;		//init hardware
     35e:	50 9a       	sbi	0x0a, 0	; 10
               sbrc    preg_2, 5
     360:	65 fd       	sbrc	r22, 5
                       set_b5_high
     362:	59 9a       	sbi	0x0b, 1	; 11
               set_b5_output;		//init hardware
     364:	51 9a       	sbi	0x0a, 1	; 10
               sbrc    preg_2, 6
     366:	66 fd       	sbrc	r22, 6
                       set_b6_high
     368:	5a 9a       	sbi	0x0b, 2	; 11
               set_b6_output;		//init hardware
     36a:	52 9a       	sbi	0x0a, 2	; 10
               sbrc    preg_2, 7
     36c:	67 fd       	sbrc	r22, 7
                       set_b7_high
     36e:	5b 9a       	sbi	0x0b, 3	; 11
               set_b7_output;		//init hardware
     370:	53 9a       	sbi	0x0a, 3	; 10

               nop			; wait for data setup time
     372:	00 00       	nop
               set_en_low		; force data read from LCD controller
     374:	5d 98       	cbi	0x0b, 5	; 11
               RCALL    wait1us
     376:	88 d3       	rcall	.+1808   	; 0xa88 <wait1us>

               ; skip sending low nibble for init commands
               sbrc    preg_1, 7
     378:	87 fd       	sbrc	r24, 7
                       rjmp _lcd_hw_write_exit
     37a:	10 c0       	rjmp	.+32     	; 0x39c <_lcd_hw_write_exit>

               ; Send low nibble
               set_en_high
     37c:	5d 9a       	sbi	0x0b, 5	; 11
               
               set_b4_low
     37e:	58 98       	cbi	0x0b, 0	; 11
               set_b5_low
     380:	59 98       	cbi	0x0b, 1	; 11
               set_b6_low
     382:	5a 98       	cbi	0x0b, 2	; 11
               set_b7_low
     384:	5b 98       	cbi	0x0b, 3	; 11
               
               sbrc    preg_2, 0
     386:	60 fd       	sbrc	r22, 0
                       set_b4_high
     388:	58 9a       	sbi	0x0b, 0	; 11
               sbrc    preg_2, 1
     38a:	61 fd       	sbrc	r22, 1
                       set_b5_high
     38c:	59 9a       	sbi	0x0b, 1	; 11
               sbrc    preg_2, 2
     38e:	62 fd       	sbrc	r22, 2
                       set_b6_high
     390:	5a 9a       	sbi	0x0b, 2	; 11
               sbrc    preg_2, 3
     392:	63 fd       	sbrc	r22, 3
                       set_b7_high
     394:	5b 9a       	sbi	0x0b, 3	; 11

               nop			; wait for data setup time
     396:	00 00       	nop
               set_en_low		; force data read from LCD controller
     398:	5d 98       	cbi	0x0b, 5	; 11
               RCALL    wait50us
 #endif
 #ifdef SLOW_LCD
               RCALL    wait50us
 #else
               RCALL    wait1us
     39a:	76 c3       	rjmp	.+1772   	; 0xa88 <wait1us>

0000039c <_lcd_hw_write_exit>:
 #endif
_lcd_hw_write_exit:
               ret		; end _lcd_hw_write
     39c:	08 95       	ret

0000039e <lcd_save_position>:
}

#if FLASHEND > 0x1fff
/* ************************************************************************************** */
uint8_t lcd_save_position(void) {
 last_text_column = _lcd_column;
     39e:	80 91 3b 01 	lds	r24, 0x013B	; 0x80013b <_lcd_column>
     3a2:	80 93 00 01 	sts	0x0100, r24	; 0x800100 <_edata>
 last_text_line = lcd_text_line;
     3a6:	80 91 a1 01 	lds	r24, 0x01A1	; 0x8001a1 <lcd_text_line>
     3aa:	80 93 02 01 	sts	0x0102, r24	; 0x800102 <last_text_line>
 return(last_text_line);
}
     3ae:	08 95       	ret

000003b0 <lcd_data>:
#endif

/* ******************************************************************************* */
/* ******************************************************************************* */
// sends a character to the LCD 
void lcd_data(unsigned char temp1) {
     3b0:	cf 93       	push	r28
     3b2:	c8 2f       	mov	r28, r24
/* -------------------------------------------------------------------------- */

_lcd_column++;
     3b4:	80 91 3b 01 	lds	r24, 0x013B	; 0x80013b <_lcd_column>
     3b8:	8f 5f       	subi	r24, 0xFF	; 255
     3ba:	80 93 3b 01 	sts	0x013B, r24	; 0x80013b <_lcd_column>
 pfont = (uint8_t *)font + (FONT_WIDTH * PAGES_PER_LINE * temp1);	// first byte of character data
 // for other controllers like ST7565 the _page specifies the page of the controller (8 lines)
 lcd_set_pixels( pfont, _xpos, _page*8, 0, (unsigned char)FONT_WIDTH, (unsigned char)(PAGES_PER_LINE*8));
_xpos += FONT_WIDTH;		// move pointer to the next character position
#else
 lcd_write_data(temp1);		// set RS to 1
     3be:	6c 2f       	mov	r22, r28
     3c0:	81 e0       	ldi	r24, 0x01	; 1
     3c2:	bf df       	rcall	.-130    	; 0x342 <_lcd_hw_write>
     3c4:	58 d3       	rcall	.+1712   	; 0xa76 <wait50us>
#endif

#ifdef WITH_UART
 switch(temp1) {
     3c6:	c8 30       	cpi	r28, 0x08	; 8
     3c8:	50 f4       	brcc	.+20     	; 0x3de <lcd_data+0x2e>
     3ca:	c6 30       	cpi	r28, 0x06	; 6
     3cc:	c0 f4       	brcc	.+48     	; 0x3fe <lcd_data+0x4e>
     3ce:	c2 30       	cpi	r28, 0x02	; 2
     3d0:	71 f0       	breq	.+28     	; 0x3ee <lcd_data+0x3e>
     3d2:	c3 30       	cpi	r28, 0x03	; 3
     3d4:	81 f0       	breq	.+32     	; 0x3f6 <lcd_data+0x46>
     3d6:	c1 30       	cpi	r28, 0x01	; 1
     3d8:	e1 f4       	brne	.+56     	; 0x412 <__LOCK_REGION_LENGTH__+0x12>
    case LCD_CHAR_DIODE1:
    	uart_putc('>');
     3da:	8e e3       	ldi	r24, 0x3E	; 62
     3dc:	0d c0       	rjmp	.+26     	; 0x3f8 <lcd_data+0x48>
#else
 lcd_write_data(temp1);		// set RS to 1
#endif

#ifdef WITH_UART
 switch(temp1) {
     3de:	c4 3e       	cpi	r28, 0xE4	; 228
     3e0:	81 f0       	breq	.+32     	; 0x402 <__LOCK_REGION_LENGTH__+0x2>
     3e2:	c4 3f       	cpi	r28, 0xF4	; 244
     3e4:	81 f0       	breq	.+32     	; 0x406 <__LOCK_REGION_LENGTH__+0x6>
     3e6:	cd 32       	cpi	r28, 0x2D	; 45
     3e8:	a1 f4       	brne	.+40     	; 0x412 <__LOCK_REGION_LENGTH__+0x12>
    case LCD_CHAR_RESIS1:
    case LCD_CHAR_RESIS2:
    	uart_putc('R');
    	break;
    case LCD_CHAR_LINE1:
        uart_putc('-');
     3ea:	8d e2       	ldi	r24, 0x2D	; 45
    case LCD_CHAR_DIODE1:
    	uart_putc('>');
    	uart_putc('|');
    	break;
    case LCD_CHAR_DIODE2:
    	uart_putc('|');
     3ec:	13 c0       	rjmp	.+38     	; 0x414 <__LOCK_REGION_LENGTH__+0x14>
     3ee:	8c e7       	ldi	r24, 0x7C	; 124
     3f0:	15 d3       	rcall	.+1578   	; 0xa1c <uart_putc>
    	uart_putc('<');
     3f2:	8c e3       	ldi	r24, 0x3C	; 60
    	break;
    case LCD_CHAR_CAP:
    	uart_putc('|');
     3f4:	0f c0       	rjmp	.+30     	; 0x414 <__LOCK_REGION_LENGTH__+0x14>
     3f6:	8c e7       	ldi	r24, 0x7C	; 124
     3f8:	11 d3       	rcall	.+1570   	; 0xa1c <uart_putc>
    	uart_putc('|');
     3fa:	8c e7       	ldi	r24, 0x7C	; 124
     3fc:	0b c0       	rjmp	.+22     	; 0x414 <__LOCK_REGION_LENGTH__+0x14>
    	break;
    case LCD_CHAR_RESIS1:
    case LCD_CHAR_RESIS2:
    	uart_putc('R');
     3fe:	82 e5       	ldi	r24, 0x52	; 82
//    case LCD_CHAR_DEGREE:	// degree sign
//    	uart_putc(0xf8);	// codepage 437 or 850 has degree
//    	break;
    case LCD_CHAR_U:		//µ
//    	uart_putc(0xe6);	// codepage 437 or 850 has my
    	uart_putc('u');		// better use the ASCII u
     400:	09 c0       	rjmp	.+18     	; 0x414 <__LOCK_REGION_LENGTH__+0x14>
    	break;
    case LCD_CHAR_OMEGA:	//Omega
        uart_putc('O');
     402:	85 e7       	ldi	r24, 0x75	; 117
     404:	07 c0       	rjmp	.+14     	; 0x414 <__LOCK_REGION_LENGTH__+0x14>
     406:	8f e4       	ldi	r24, 0x4F	; 79
        uart_putc('h');
     408:	09 d3       	rcall	.+1554   	; 0xa1c <uart_putc>
     40a:	88 e6       	ldi	r24, 0x68	; 104
        uart_putc('m');
     40c:	07 d3       	rcall	.+1550   	; 0xa1c <uart_putc>
     40e:	8d e6       	ldi	r24, 0x6D	; 109
    case LCD_CHAR_INDUCTOR2:
        uart_putc('L');
        break;
 #endif
    default:
    	uart_putc(temp1);
     410:	01 c0       	rjmp	.+2      	; 0x414 <__LOCK_REGION_LENGTH__+0x14>
     412:	8c 2f       	mov	r24, r28
 }
#endif
 wdt_reset();
} /* end lcd_data() */
     414:	03 d3       	rcall	.+1542   	; 0xa1c <uart_putc>
     416:	a8 95       	wdr

/* ******************************************************************************* */
// sends numeric character (Pin Number) to the LCD 
// from binary 0 we send ASCII 1 ....
void lcd_testpin(unsigned char temp) {
   lcd_data(temp + '1' + TP_OFFSET - TP_MIN);
     418:	cf 91       	pop	r28
     41a:	08 95       	ret

0000041c <lcd_testpin>:
     41c:	8f 5c       	subi	r24, 0xCF	; 207
}

/* ******************************************************************************* */
// send space character to LCD
void lcd_space(void) {
   lcd_data(' ');	// output one space to LCD and UART
     41e:	c8 cf       	rjmp	.-112    	; 0x3b0 <lcd_data>
     420:	08 95       	ret

00000422 <lcd_space>:
     422:	80 e2       	ldi	r24, 0x20	; 32
     424:	c5 cf       	rjmp	.-118    	; 0x3b0 <lcd_data>
}

void lcd_spaces(int8_t nn) {
     426:	08 95       	ret

00000428 <lcd_spaces>:
   while (nn > 0) {
     428:	cf 93       	push	r28
     42a:	c8 2f       	mov	r28, r24
     lcd_space();	// output one space to LCD and UART
     42c:	1c 16       	cp	r1, r28
     42e:	1c f4       	brge	.+6      	; 0x436 <lcd_spaces+0xe>
     nn--;
   }
}
     430:	f8 df       	rcall	.-16     	; 0x422 <lcd_space>
     432:	c1 50       	subi	r28, 0x01	; 1
// send equal character to LCD
void lcd_equal(void) {
   lcd_data('=');
     434:	fb cf       	rjmp	.-10     	; 0x42c <lcd_spaces+0x4>
     436:	cf 91       	pop	r28
     438:	08 95       	ret

0000043a <lcd_equal>:
     43a:	8d e3       	ldi	r24, 0x3D	; 61
} /* end lcd_data() */
 
// sends a command to the LCD
 
void lcd_command(unsigned char temp1) {
	_lcd_hw_write(0x00,temp1);
     43c:	b9 cf       	rjmp	.-142    	; 0x3b0 <lcd_data>
     43e:	08 95       	ret

00000440 <lcd_command>:
     440:	68 2f       	mov	r22, r24
#if ((LCD_ST_TYPE == 7565) || (LCD_ST_TYPE == 1306) || (LCD_ST_TYPE == 7108) || (LCD_ST_TYPE == 7920) || (LCD_ST_TYPE == 8812) || (LCD_ST_TYPE == 8814) || (LCD_ST_TYPE == 7735) || (LCD_ST_TYPE == 9163) || (LCD_ST_TYPE == 9341))
 ;
#else
	wait50us();		// wait at least 50us after every instruction for character LCD
     442:	80 e0       	ldi	r24, 0x00	; 0
     444:	7e df       	rcall	.-260    	; 0x342 <_lcd_hw_write>
     446:	17 c3       	rjmp	.+1582   	; 0xa76 <wait50us>
/* ************************************************************************************** */
/* Set the character position to x,y , where x specifies the character number in a text line. */
/* The y position is the page address (8 line units).                                     */
/* For most controllers the y position must be increased by (Height + 7) / 8 for the next text line */
void lcd_set_cursor(uint8_t y, uint8_t x) {
    _lcd_column = x;
     448:	08 95       	ret

0000044a <lcd_set_cursor>:
    // For example the SPL501 controller has 132x65 dot matrix memory
    // LCD_ST7565_H_OFFSET specifies the offset of the 128 pixel of the display window.
   _xpos = (x * FONT_WIDTH);
#else
   // move to the specified position for character display
   if (y == 1) {
     44a:	60 93 3b 01 	sts	0x013B, r22	; 0x80013b <_lcd_column>
     lcd_command((uint8_t)(CMD_SetDDRAMAddress + LCD_Row2 + x));
     44e:	81 30       	cpi	r24, 0x01	; 1
     lcd_command((uint8_t)(CMD_SetDDRAMAddress + LCD_Row3 + x));
   } else if (y == 3) {
     lcd_command((uint8_t)(CMD_SetDDRAMAddress + LCD_Row4 + x));
 #endif
   } else {
     lcd_command((uint8_t)(CMD_SetDDRAMAddress + LCD_Row1 + x));
     450:	11 f4       	brne	.+4      	; 0x456 <lcd_set_cursor+0xc>
     452:	80 ec       	ldi	r24, 0xC0	; 192
     454:	01 c0       	rjmp	.+2      	; 0x458 <lcd_set_cursor+0xe>
     456:	80 e8       	ldi	r24, 0x80	; 128
 last_text_line = lcd_text_line;
 return(last_text_line);
}
/* ************************************************************************************** */
void lcd_restore_position(void) {
 lcd_set_cursor((uint8_t)last_text_line * PAGES_PER_LINE, (uint8_t)(last_text_column));
     458:	86 0f       	add	r24, r22
     45a:	f2 cf       	rjmp	.-28     	; 0x440 <lcd_command>
     45c:	08 95       	ret

0000045e <lcd_restore_position>:
     45e:	60 91 00 01 	lds	r22, 0x0100	; 0x800100 <_edata>
}  /* end lcd_clear() */


#ifdef WITH_UART
void uart_newline(void) {
   uart_putc('\r');
     462:	80 91 02 01 	lds	r24, 0x0102	; 0x800102 <last_text_line>
   uart_putc('\n');
     466:	f1 cf       	rjmp	.-30     	; 0x44a <lcd_set_cursor>
     468:	08 95       	ret

0000046a <uart_newline>:
     46a:	8d e0       	ldi	r24, 0x0D	; 13
     46c:	d7 d2       	rcall	.+1454   	; 0xa1c <uart_putc>
}

/* ******************************************************************************* */
//move to the beginning of the 1. row
void lcd_line1() {
   lcd_text_line = 0;
     46e:	8a e0       	ldi	r24, 0x0A	; 10
   lcd_set_cursor(0 * PAGES_PER_LINE,0);
#elif (LCD_ST_TYPE == 7920)
   _page = 0;			// _page is the vertical pixel address for ST7920 controller
   _xpos = 0;			// LCD_ST7565_H_OFFSET is not used for ST7920 controller
#else
   lcd_command((uint8_t)(CMD_SetDDRAMAddress + LCD_Row1));
     470:	d5 c2       	rjmp	.+1450   	; 0xa1c <uart_putc>
     472:	08 95       	ret

00000474 <lcd_line1>:
   _lcd_column = 0;
     474:	10 92 a1 01 	sts	0x01A1, r1	; 0x8001a1 <lcd_text_line>
#endif
#ifdef WITH_UART
   uart_newline();		// start of new measurement
     478:	80 e8       	ldi	r24, 0x80	; 128
     47a:	e2 df       	rcall	.-60     	; 0x440 <lcd_command>
     47c:	10 92 3b 01 	sts	0x013B, r1	; 0x80013b <_lcd_column>
       lcd_write_word(LCD_BG_COLOR);		// clear 5 red / 6 green / 5 blue pixels
 #endif
     }
   }
#else
   lcd_command(CMD_CLEAR_DISPLAY);
     480:	f4 cf       	rjmp	.-24     	; 0x46a <uart_newline>
   wait_about10ms();
     482:	08 95       	ret

00000484 <lcd_clear>:
     484:	81 e0       	ldi	r24, 0x01	; 1
#endif
   lcd_line1();			// set cursor to Line1 Column 1, (only for OLED-Display)
     486:	dc df       	rcall	.-72     	; 0x440 <lcd_command>
     488:	82 e0       	ldi	r24, 0x02	; 2
     48a:	01 d3       	rcall	.+1538   	; 0xa8e <sleep_5ms>
//move to the beginning of the 2. row
// for the ST7920 you can select a accurate vertical pixel positioning of line with:
// or you can select a 8-line rounding of the positioning of the lines with: 
//#define FONT_V_SPACE (((FONT_HEIGHT + 7) / 8) * 8)
void lcd_line2() {
   lcd_text_line = 1;
     48c:	f3 cf       	rjmp	.-26     	; 0x474 <lcd_line1>
     48e:	08 95       	ret

00000490 <lcd_line2>:
#if (LCD_GRAPHIC_TYPE != 0)
   lcd_set_cursor(1 * PAGES_PER_LINE,0);
#else
   lcd_command((uint8_t)(CMD_SetDDRAMAddress + LCD_Row2));
     490:	81 e0       	ldi	r24, 0x01	; 1
     492:	80 93 a1 01 	sts	0x01A1, r24	; 0x8001a1 <lcd_text_line>
   _lcd_column = 0;
     496:	80 ec       	ldi	r24, 0xC0	; 192
#endif
#ifdef WITH_UART
   uart_newline();		// start of new line
     498:	d3 df       	rcall	.-90     	; 0x440 <lcd_command>
     49a:	10 92 3b 01 	sts	0x013B, r1	; 0x80013b <_lcd_column>
}

/* ******************************************************************************* */
//move to the beginning of the 3. row
void lcd_line3() {
   lcd_text_line = 2;
     49e:	e5 cf       	rjmp	.-54     	; 0x46a <uart_newline>
     4a0:	08 95       	ret

000004a2 <lcd_line3>:
#if (LCD_GRAPHIC_TYPE != 0)
   lcd_set_cursor(2 * PAGES_PER_LINE,0);
#else
   lcd_command((uint8_t)(CMD_SetDDRAMAddress + LCD_Row3));
     4a2:	82 e0       	ldi	r24, 0x02	; 2
     4a4:	80 93 a1 01 	sts	0x01A1, r24	; 0x8001a1 <lcd_text_line>
   _lcd_column = 0;
     4a8:	80 e9       	ldi	r24, 0x90	; 144
     4aa:	ca df       	rcall	.-108    	; 0x440 <lcd_command>
#endif
#ifdef WITH_UART
   uart_newline();		// start of new line
     4ac:	10 92 3b 01 	sts	0x013B, r1	; 0x80013b <_lcd_column>
     4b0:	dc cf       	rjmp	.-72     	; 0x46a <uart_newline>
}

/* ******************************************************************************* */
//move to the beginning of the 4. row
void lcd_line4() {
   lcd_text_line = 3;
     4b2:	08 95       	ret

000004b4 <lcd_line4>:
     4b4:	83 e0       	ldi	r24, 0x03	; 3
#if (LCD_GRAPHIC_TYPE != 0)
   lcd_set_cursor(3 * PAGES_PER_LINE,0);
#else
   lcd_command((uint8_t)(CMD_SetDDRAMAddress + LCD_Row4));
     4b6:	80 93 a1 01 	sts	0x01A1, r24	; 0x8001a1 <lcd_text_line>
     4ba:	80 ed       	ldi	r24, 0xD0	; 208
   _lcd_column = 0;
     4bc:	c1 df       	rcall	.-126    	; 0x440 <lcd_command>
     4be:	10 92 3b 01 	sts	0x013B, r1	; 0x80013b <_lcd_column>
#endif
#ifdef WITH_UART
   uart_newline();		// start of new line
     4c2:	d3 cf       	rjmp	.-90     	; 0x46a <uart_newline>
     4c4:	08 95       	ret

000004c6 <lcd_string>:
 
 
/* ******************************************************************************* */
// writes a string to the LCD 
 
void lcd_string(char *data) {
     4c6:	cf 93       	push	r28
     4c8:	df 93       	push	r29
     4ca:	ec 01       	movw	r28, r24
    while(*data) {
     4cc:	89 91       	ld	r24, Y+
     4ce:	88 23       	and	r24, r24
     4d0:	11 f0       	breq	.+4      	; 0x4d6 <lcd_string+0x10>
        lcd_data(*data);
     4d2:	6e df       	rcall	.-292    	; 0x3b0 <lcd_data>
     4d4:	fb cf       	rjmp	.-10     	; 0x4cc <lcd_string+0x6>
        data++;
    }
}
     4d6:	df 91       	pop	r29
     4d8:	cf 91       	pop	r28
     4da:	08 95       	ret

000004dc <lcd_pgm_string>:

#ifdef use_lcd_pgm
//Load string from PGM  and send to LCD 
void lcd_pgm_string(const unsigned char *data) {
     4dc:	cf 93       	push	r28
     4de:	df 93       	push	r29
     4e0:	ec 01       	movw	r28, r24
   unsigned char cc;
   while(1) {
      cc = pgm_read_byte(data);
     4e2:	fe 01       	movw	r30, r28
     4e4:	84 91       	lpm	r24, Z
      if((cc==0) || (cc==128)) {
     4e6:	98 2f       	mov	r25, r24
     4e8:	9f 77       	andi	r25, 0x7F	; 127
     4ea:	19 f0       	breq	.+6      	; 0x4f2 <lcd_pgm_string+0x16>
         return;
      }
      lcd_data(cc);
     4ec:	61 df       	rcall	.-318    	; 0x3b0 <lcd_data>
     4ee:	21 96       	adiw	r28, 0x01	; 1
      data++;
     4f0:	f8 cf       	rjmp	.-16     	; 0x4e2 <lcd_pgm_string+0x6>
   }
}
     4f2:	df 91       	pop	r29
     4f4:	cf 91       	pop	r28
     4f6:	08 95       	ret

000004f8 <lcd_fix_string>:
#endif

/* ******************************************************************************* */
#ifdef USE_EEPROM
//Load string from PGM or EEprom and send to LCD 
void lcd_fix_string(const unsigned char *data) {
     4f8:	cf 93       	push	r28
     4fa:	df 93       	push	r29
     4fc:	ec 01       	movw	r28, r24
   unsigned char cc;
   while(1) {
      cc = MEM_read_byte(data);
     4fe:	ce 01       	movw	r24, r28
     500:	0e 94 5b 34 	call	0x68b6	; 0x68b6 <eeprom_read_byte>
      if((cc==0) || (cc==128)) {
     504:	98 2f       	mov	r25, r24
     506:	9f 77       	andi	r25, 0x7F	; 127
         return;
      }
      lcd_data(cc);
     508:	19 f0       	breq	.+6      	; 0x510 <lcd_fix_string+0x18>
      data++;
   }
     50a:	52 df       	rcall	.-348    	; 0x3b0 <lcd_data>
}
     50c:	21 96       	adiw	r28, 0x01	; 1
     50e:	f7 cf       	rjmp	.-18     	; 0x4fe <lcd_fix_string+0x6>
#endif

/* ******************************************************************************* */
// load custom character from PGM or EEprom and send to LCD
void lcd_fix_customchar(const unsigned char *chardata) {	
     510:	df 91       	pop	r29
     512:	cf 91       	pop	r28
     514:	08 95       	ret

00000516 <lcd_fix_customchar>:
     516:	0f 93       	push	r16
#if (LCD_ST_TYPE == 0)
    uint8_t ii;
    for (ii=0;ii<8;ii++) {
        lcd_data(MEM_read_byte(chardata++));
     518:	1f 93       	push	r17
     51a:	cf 93       	push	r28
     51c:	df 93       	push	r29
     51e:	ec 01       	movw	r28, r24
     520:	28 96       	adiw	r28, 0x08	; 8
/* ******************************************************************************* */
// load custom character from PGM or EEprom and send to LCD
void lcd_fix_customchar(const unsigned char *chardata) {	
#if (LCD_ST_TYPE == 0)
    uint8_t ii;
    for (ii=0;ii<8;ii++) {
     522:	8c 01       	movw	r16, r24
     524:	0f 5f       	subi	r16, 0xFF	; 255
        lcd_data(MEM_read_byte(chardata++));
    }
#endif
}
     526:	1f 4f       	sbci	r17, 0xFF	; 255
     528:	0e 94 5b 34 	call	0x68b6	; 0x68b6 <eeprom_read_byte>
     52c:	41 df       	rcall	.-382    	; 0x3b0 <lcd_data>

  /* we don't clear the display now, because it's quite slow */

#else    /* !(LCD_ST_TYPE == 7565 | 1306) | 7108 | 7920 | 7108 | 8812 | 8814 | 7735 | 9163) */
/* must be a character display */
   wait_about100ms();
     52e:	c8 01       	movw	r24, r16
     530:	0c 17       	cp	r16, r28
   // to initialise, send 3 times to be sure to be in 8 Bit mode

 #if LCD_INTERFACE_MODE == MODE_PARALLEL
   lcd_command(0x33);			// switch to 8-bit
     532:	1d 07       	cpc	r17, r29
     534:	b1 f7       	brne	.-20     	; 0x522 <lcd_fix_customchar+0xc>
   lcd_command(0x32);			// switch to 4-bit
     536:	df 91       	pop	r29
     538:	cf 91       	pop	r28
 #else
   lcd_command(0x3a);			// switch to 8-bit for I2C or SPI
 #endif
   wait_about10ms();
     53a:	1f 91       	pop	r17
     53c:	0f 91       	pop	r16
   lcd_command(CMD_DISPLAY_ON);			// 0x08 Display on, no Cursor, No blink
   lcd_command(CMD_SetEntryMode | 0x02);	// 0x06 increment / no Scroll    
// - - - - - - - - - - - - - - - - 
 #else
   // initialize sequence with OLED display
   lcd_command(CMD_SetIFOptions | MODE_8BIT);		// Add for OLED
     53e:	08 95       	ret

00000540 <lcd_init>:
     540:	84 e1       	ldi	r24, 0x14	; 20
   lcd_command(CMD_SetIFOptions | MODE_8BIT);		// Add for OLED
     542:	a5 d2       	rcall	.+1354   	; 0xa8e <sleep_5ms>
     544:	83 e3       	ldi	r24, 0x33	; 51
  #if defined(FOUR_LINE_LCD) && (FOUR_LINE_LCD != 3)             
   // for KS0073 controller  set the 4-line mode with extended instruction
   lcd_command(CMD_SetIFOptions | MODE_8BIT | 0x40 | 0x08); //enter extended instruction
   lcd_command(CMD_SetDisplayAndCursor | 0x01);	// enable 4-line mode
  #endif
   lcd_command(CMD_SetIFOptions | MODE_8BIT | 0x0A);	// 4Bit / 2 rows / 5x7 / table3 / Add for OLED
     546:	7c df       	rcall	.-264    	; 0x440 <lcd_command>
     548:	82 e3       	ldi	r24, 0x32	; 50
   lcd_command(CMD_SetDisplayAndCursor);	// Display off / no Blinking  / Add for OLED
     54a:	7a df       	rcall	.-268    	; 0x440 <lcd_command>
     54c:	82 e0       	ldi	r24, 0x02	; 2
   lcd_command(CMD_SetEntryMode | 0x02);	// increment / no Scroll
     54e:	9f d2       	rcall	.+1342   	; 0xa8e <sleep_5ms>
     550:	80 e2       	ldi	r24, 0x20	; 32
     552:	76 df       	rcall	.-276    	; 0x440 <lcd_command>
   lcd_command(CMD_CURSOR_HOME);		// Home Command  // Add for OLED
     554:	80 e2       	ldi	r24, 0x20	; 32
     556:	74 df       	rcall	.-280    	; 0x440 <lcd_command>
   lcd_clear();
     558:	8a e2       	ldi	r24, 0x2A	; 42
     55a:	72 df       	rcall	.-284    	; 0x440 <lcd_command>
   wait_about5ms();
     55c:	88 e0       	ldi	r24, 0x08	; 8
     55e:	70 df       	rcall	.-288    	; 0x440 <lcd_command>
   lcd_command(CMD_SetDisplayAndCursor | 0x04);	// Display on / Cursor off / no Blinking
     560:	86 e0       	ldi	r24, 0x06	; 6
     562:	6e df       	rcall	.-292    	; 0x440 <lcd_command>
     564:	82 e0       	ldi	r24, 0x02	; 2
 #endif
// - - - - - - - - - - - - - - - - 

   LCDLoadCustomChar(LCD_CHAR_DIODE1);	//Custom-Character Diode symbol
     566:	6c df       	rcall	.-296    	; 0x440 <lcd_command>
     568:	8d df       	rcall	.-230    	; 0x484 <lcd_clear>
     56a:	81 e0       	ldi	r24, 0x01	; 1
   lcd_fix_customchar(DiodeIcon1);	//load Character  >|
     56c:	90 d2       	rcall	.+1312   	; 0xa8e <sleep_5ms>
     56e:	8c e0       	ldi	r24, 0x0C	; 12
     570:	67 df       	rcall	.-306    	; 0x440 <lcd_command>
     572:	88 e4       	ldi	r24, 0x48	; 72
   LCDLoadCustomChar(LCD_CHAR_DIODE2);	//Custom-Character 
     574:	65 df       	rcall	.-310    	; 0x440 <lcd_command>
     576:	84 e5       	ldi	r24, 0x54	; 84
     578:	90 e0       	ldi	r25, 0x00	; 0
   lcd_fix_customchar(DiodeIcon2);	//load Character  |<
     57a:	cd df       	rcall	.-102    	; 0x516 <lcd_fix_customchar>
     57c:	80 e5       	ldi	r24, 0x50	; 80
     57e:	60 df       	rcall	.-320    	; 0x440 <lcd_command>
   LCDLoadCustomChar(LCD_CHAR_CAP);	//Custom-Character  Capacitor symbol
     580:	8c e4       	ldi	r24, 0x4C	; 76
     582:	90 e0       	ldi	r25, 0x00	; 0
   lcd_fix_customchar(CapIcon);		//load Character  ||
     584:	c8 df       	rcall	.-112    	; 0x516 <lcd_fix_customchar>
     586:	88 e5       	ldi	r24, 0x58	; 88
   LCDLoadCustomChar(LCD_CHAR_RESIS1);	//Custom-Character Resistor symbol
     588:	5b df       	rcall	.-330    	; 0x440 <lcd_command>
     58a:	8c e5       	ldi	r24, 0x5C	; 92
   lcd_fix_customchar(ResIcon1);		//load Character  [
     58c:	90 e0       	ldi	r25, 0x00	; 0
     58e:	c3 df       	rcall	.-122    	; 0x516 <lcd_fix_customchar>
   LCDLoadCustomChar(LCD_CHAR_RESIS2);	//Custom-Character 
     590:	88 e7       	ldi	r24, 0x78	; 120
     592:	56 df       	rcall	.-340    	; 0x440 <lcd_command>
   lcd_fix_customchar(ResIcon2);		//load Character  ]
     594:	84 e4       	ldi	r24, 0x44	; 68
     596:	90 e0       	ldi	r25, 0x00	; 0
     598:	be df       	rcall	.-132    	; 0x516 <lcd_fix_customchar>
 #if LCD_CHAR_U < 8
   LCDLoadCustomChar(LCD_CHAR_U);	//load mu as Custom-Character
   lcd_fix_customchar(CyrillicMuIcon);
 #endif
 #if LCD_CHAR_RESIS3 != 'R'
   LCDLoadCustomChar(LCD_CHAR_RESIS3);	//load Resistor symbol as Custom-Character
     59a:	80 e7       	ldi	r24, 0x70	; 112
     59c:	51 df       	rcall	.-350    	; 0x440 <lcd_command>
   lcd_fix_customchar(ResIcon3);		// load character ||
     59e:	8c e3       	ldi	r24, 0x3C	; 60
     5a0:	90 e0       	ldi	r25, 0x00	; 0
     5a2:	b9 df       	rcall	.-142    	; 0x516 <lcd_fix_customchar>
     5a4:	80 e4       	ldi	r24, 0x40	; 64
     5a6:	4c df       	rcall	.-360    	; 0x440 <lcd_command>
}

/* ******************************************************************************* */
void lcd_clear_line(void) {
 // writes spaces up to LCD_LINE_LENGTH to LCD-Display, Cursor can be positioned to any column
    lcd_spaces(LCD_LINE_LENGTH - _lcd_column);
     5a8:	84 e3       	ldi	r24, 0x34	; 52
     5aa:	90 e0       	ldi	r25, 0x00	; 0
     5ac:	b4 cf       	rjmp	.-152    	; 0x516 <lcd_fix_customchar>
     5ae:	08 95       	ret

000005b0 <lcd_clear_line>:
     5b0:	90 91 3b 01 	lds	r25, 0x013B	; 0x80013b <_lcd_column>
     5b4:	80 e1       	ldi	r24, 0x10	; 16

/* ******************************************************************************* */
// position to next line to column xx
// Text_line number is incremented by 1, if possible (not yet at the last line).
// If already at the last line of the display, last_line_used is set to 1 .
void lcd_next_line(uint8_t xx) {
     5b6:	89 1b       	sub	r24, r25
     5b8:	37 cf       	rjmp	.-402    	; 0x428 <lcd_spaces>
   lcd_clear_line();
     5ba:	08 95       	ret

000005bc <lcd_next_line>:
   lcd_text_line ++;
     5bc:	cf 93       	push	r28
     5be:	c8 2f       	mov	r28, r24
     5c0:	f7 df       	rcall	.-18     	; 0x5b0 <lcd_clear_line>
     5c2:	80 91 a1 01 	lds	r24, 0x01A1	; 0x8001a1 <lcd_text_line>
   if (lcd_text_line > (LCD_LINES - 1))  {
     5c6:	8f 5f       	subi	r24, 0xFF	; 255
      // Limit is reached
      lcd_text_line = (LCD_LINES - 1);
     5c8:	80 93 a1 01 	sts	0x01A1, r24	; 0x8001a1 <lcd_text_line>
      last_line_used = 1;
     5cc:	82 30       	cpi	r24, 0x02	; 2
     5ce:	30 f0       	brcs	.+12     	; 0x5dc <lcd_next_line+0x20>
   } else {
      last_line_used = 0;
     5d0:	81 e0       	ldi	r24, 0x01	; 1
     5d2:	80 93 a1 01 	sts	0x01A1, r24	; 0x8001a1 <lcd_text_line>
   }
   lcd_set_cursor((uint8_t)(lcd_text_line * PAGES_PER_LINE), xx);
     5d6:	80 93 3e 01 	sts	0x013E, r24	; 0x80013e <last_line_used>
     5da:	02 c0       	rjmp	.+4      	; 0x5e0 <lcd_next_line+0x24>
     5dc:	10 92 3e 01 	sts	0x013E, r1	; 0x80013e <last_line_used>
#ifdef WITH_UART
   uart_newline();		// start of new line
     5e0:	6c 2f       	mov	r22, r28
 #if WITH_UART == 2		// MAURO
   uart_putc('1'+lcd_text_line);	// MAURO
 #endif				// MAURO
#endif
}
     5e2:	80 91 a1 01 	lds	r24, 0x01A1	; 0x8001a1 <lcd_text_line>
/* ******************************************************************************* */
#ifdef WAIT_LINE2_CLEAR
void lcd_next_line_wait(uint8_t xx) {
   lcd_next_line(xx);
     5e6:	31 df       	rcall	.-414    	; 0x44a <lcd_set_cursor>
   wait_for_key_5s_line2();		// wait 5s and clear last line
     5e8:	40 df       	rcall	.-384    	; 0x46a <uart_newline>
     5ea:	cf 91       	pop	r28
   if (lcd_text_line > 2)
     5ec:	08 95       	ret

000005ee <lcd_next_line_wait>:
     5ee:	e6 df       	rcall	.-52     	; 0x5bc <lcd_next_line>
     5f0:	34 d3       	rcall	.+1640   	; 0xc5a <wait_for_key_5s_line2>
     5f2:	80 91 a1 01 	lds	r24, 0x01A1	; 0x8001a1 <lcd_text_line>
     uart_newline();		// MAURO  ('H')
     5f6:	83 30       	cpi	r24, 0x03	; 3
     5f8:	08 f0       	brcs	.+2      	; 0x5fc <lcd_next_line_wait+0xe>
    lcd_spaces(LCD_LINE_LENGTH - _lcd_column);
}

#ifdef LCD_CLEAR
void lcd_clear_line1(void) {
    lcd_line1();
     5fa:	37 cf       	rjmp	.-402    	; 0x46a <uart_newline>
     5fc:	08 95       	ret

000005fe <lcd_clear_line1>:
    lcd_clear_line();
     5fe:	3a df       	rcall	.-396    	; 0x474 <lcd_line1>
     600:	d7 df       	rcall	.-82     	; 0x5b0 <lcd_clear_line>
    lcd_line1();
     602:	38 cf       	rjmp	.-400    	; 0x474 <lcd_line1>
     604:	08 95       	ret

00000606 <lcd_clear_line2>:
     606:	44 df       	rcall	.-376    	; 0x490 <lcd_line2>
}
void lcd_clear_line2(void) {
    lcd_line2();
     608:	d3 df       	rcall	.-90     	; 0x5b0 <lcd_clear_line>
     60a:	42 cf       	rjmp	.-380    	; 0x490 <lcd_line2>
    lcd_clear_line();
     60c:	08 95       	ret

0000060e <lcd_set_pixels>:
     60e:	08 95       	ret

00000610 <lcd_show_Cg>:
    lcd_line2();
     610:	0f 93       	push	r16
     612:	85 e7       	ldi	r24, 0x75	; 117
     614:	91 e0       	ldi	r25, 0x01	; 1
/* width and height specifies the dimension of the pixel field.                    */
/* The different controller types uses different ways of loading the pixels.       */
/* For the ST7920 controller the changes are only made in a memory field (RAM).    */
/* ******************************************************************************* */
void lcd_set_pixels(const unsigned char *pdata, unsigned char x, unsigned char y,
unsigned char options, unsigned char width, unsigned char height) {
     616:	70 df       	rcall	.-288    	; 0x4f8 <lcd_fix_string>
   } /* end for page */
/* ------------------------------------------------------------------------------- */
#endif /* (LCD_ST_TYPE == 7565 || 1306 || 7108 || 7920 || 8812 || 8814 */
}
/* ******************************************************************************* */
void lcd_show_Cg(void) {
     618:	40 91 85 01 	lds	r20, 0x0185	; 0x800185 <cap+0x12>
       lcd_MEM_string(GateCap_str);             //"Cg="
     61c:	4d 3f       	cpi	r20, 0xFD	; 253
     61e:	64 f4       	brge	.+24     	; 0x638 <lcd_show_Cg+0x28>
     620:	60 91 73 01 	lds	r22, 0x0173	; 0x800173 <cap>
#if FLASHEND > 0x1fff
       if (cap.cpre < -3) {
     624:	70 91 74 01 	lds	r23, 0x0174	; 0x800174 <cap+0x1>
     628:	80 91 75 01 	lds	r24, 0x0175	; 0x800175 <cap+0x2>
          DisplayValue(cap.cval,cap.cpre,'F',3);
     62c:	90 91 76 01 	lds	r25, 0x0176	; 0x800176 <cap+0x3>
     630:	03 e0       	ldi	r16, 0x03	; 3
     632:	26 e4       	ldi	r18, 0x46	; 70
     634:	ea d0       	rcall	.+468    	; 0x80a <DisplayValue>
     636:	02 c0       	rjmp	.+4      	; 0x63c <lcd_show_Cg+0x2c>
     638:	8f e3       	ldi	r24, 0x3F	; 63
     63a:	ba de       	rcall	.-652    	; 0x3b0 <lcd_data>
     63c:	0f 91       	pop	r16
     63e:	08 95       	ret

00000640 <lcd_show_rds>:
     640:	90 91 19 01 	lds	r25, 0x0119	; 0x800119 <PartMode>
       } else {
          lcd_data('?');
     644:	9f 70       	andi	r25, 0x0F	; 15
     646:	92 30       	cpi	r25, 0x02	; 2
     648:	71 f4       	brne	.+28     	; 0x666 <lcd_show_rds+0x26>
       }
#else
       DisplayValue(cap.cval,cap.cpre,'F',3);
#endif
}
     64a:	d1 df       	rcall	.-94     	; 0x5ee <lcd_next_line_wait>
     64c:	84 e6       	ldi	r24, 0x64	; 100
#ifdef SHOW_R_DS
void lcd_show_rds(uint8_t xpos)
{
       if ((PartMode&0x0f) == PART_MODE_MOS) {     /* kein JFET or IGBT */
     64e:	90 e0       	ldi	r25, 0x00	; 0
     650:	53 df       	rcall	.-346    	; 0x4f8 <lcd_fix_string>
     652:	e0 91 3c 01 	lds	r30, 0x013C	; 0x80013c <_trans>
     656:	f0 91 3d 01 	lds	r31, 0x013D	; 0x80013d <_trans+0x1>
          lcd_next_line_wait(xpos);
     65a:	22 e0       	ldi	r18, 0x02	; 2
          lcd_MEM_string(RDS_str);		// "RDS=
     65c:	44 ef       	ldi	r20, 0xF4	; 244
     65e:	6f ef       	ldi	r22, 0xFF	; 255
     660:	84 81       	ldd	r24, Z+4	; 0x04
     662:	95 81       	ldd	r25, Z+5	; 0x05
          DisplayValue16(_trans->uBE,-1,LCD_CHAR_OMEGA,2);	// Drain-Source resistance
     664:	bc c1       	rjmp	.+888    	; 0x9de <DisplayValue16>
     666:	08 95       	ret

00000668 <i2lcd>:
i2lcd:			;	void i2lcd(int iw)

#if FLASHEND > 0x1fff

;;  	movw	r20, r24
 	sbrs	r25, 7
     668:	97 ff       	sbrs	r25, 7
 	rjmp	to_lcd		; if (iw >= 0) {
     66a:	09 c0       	rjmp	.+18     	; 0x67e <u2lcd>
;   // negativ value, output -  and invert iw
        push	r24		; save r24:r25
     66c:	8f 93       	push	r24
        push	r25
     66e:	9f 93       	push	r25
 	ldi	r24,'-'		; 45
     670:	8d e2       	ldi	r24, 0x2D	; 45
 	RCALL	lcd_data	; lcd_data('-'); uses r22
     672:	9e de       	rcall	.-708    	; 0x3b0 <lcd_data>
        pop	r25		; recall r25:r24
     674:	9f 91       	pop	r25
        pop	r24		; old r24
     676:	8f 91       	pop	r24
        com	r25
     678:	90 95       	com	r25
	neg	r24
     67a:	81 95       	neg	r24
        sbci	r25,-1		; iw = - iw
     67c:	9f 4f       	sbci	r25, 0xFF	; 255

0000067e <u2lcd>:
#endif

u2lcd:			;	void i2lcd(uint16_t iw)
to_lcd:			;	void i2lcd(uint16_t iw)
 	ldi	r22, lo8(outval)	;0x0F
     67e:	61 e2       	ldi	r22, 0x21	; 33
 	ldi	r23, hi8(outval)	;0x01
     680:	71 e0       	ldi	r23, 0x01	; 1
 	ldi	r20, 10
     682:	4a e0       	ldi	r20, 0x0A	; 10
 	ldi	r21, 0x00	; 0
     684:	50 e0       	ldi	r21, 0x00	; 0
 	ACALL	utoa		; utoa(iw, outval, 10);	//output voltage to string
     686:	0e 94 28 34 	call	0x6850	; 0x6850 <utoa>
 	RCALL	lcd_string	;lcd_string(utoa(iw, outval, 10));	//output correction voltage
     68a:	1d cf       	rjmp	.-454    	; 0x4c6 <lcd_string>

 	ret
     68c:	08 95       	ret

0000068e <i2lcd_space>:

#if FLASHEND > 0x1fff
.GLOBAL i2lcd_space
i2lcd_space:
	RCALL	i2lcd
     68e:	ec df       	rcall	.-40     	; 0x668 <i2lcd>
	rjmp	space_ret	; use return from u2lcd_space
     690:	01 c0       	rjmp	.+2      	; 0x694 <space_ret>

00000692 <u2lcd_space>:

u2lcd_space:
	RCALL	i2lcd
     692:	ea df       	rcall	.-44     	; 0x668 <i2lcd>

00000694 <space_ret>:
space_ret:
	RCALL    lcd_space
     694:	c6 ce       	rjmp	.-628    	; 0x422 <lcd_space>
	ret
     696:	08 95       	ret

00000698 <PinLayout>:

PinLayout:

#ifndef EBC_STYLE 
;   // Layout with 123= style
 	push	r14
     698:	ef 92       	push	r14
 	push	r15
     69a:	ff 92       	push	r15
 	push	r16
     69c:	0f 93       	push	r16
 	push	r17
     69e:	1f 93       	push	r17

 	mov	r17, r24		; Pin1
     6a0:	18 2f       	mov	r17, r24
 	mov	r16, r22		; Pin2
     6a2:	06 2f       	mov	r16, r22
 	mov	r15, r20		; Pin3
     6a4:	f4 2e       	mov	r15, r20
 	ldi	r24, lo8(N123_str)	; 0x0B
     6a6:	84 e6       	ldi	r24, 0x64	; 100
 	ldi	r25, hi8(N123_str)	; 0x01	
     6a8:	91 e0       	ldi	r25, 0x01	; 1
 #ifdef USE_EEPROM
 	RCALL	lcd_fix_string	; lcd_MEM_string(N123_str);		//" 123="
     6aa:	26 df       	rcall	.-436    	; 0x4f8 <lcd_fix_string>
 #else
 	RCALL	lcd_pgm_string	; lcd_MEM_string(N123_str);		//" 123="
 #endif
 	eor	r14, r14	; for (ipp=0;
     6ac:	ee 24       	eor	r14, r14

000006ae <loop1>:
loop1:
 	lds	r30, _trans
     6ae:	e0 91 3c 01 	lds	r30, 0x013C	; 0x80013c <_trans>
 	lds	r31, _trans+1
     6b2:	f0 91 3d 01 	lds	r31, 0x013D	; 0x80013d <_trans+0x1>
 	ldd	r24, Z+OFFS_e	; _trans->e
     6b6:	86 85       	ldd	r24, Z+14	; 0x0e
 	cp	r14, r24
     6b8:	e8 16       	cp	r14, r24
 	brne	checkb		; if (ipp == _trans->e) 
     6ba:	11 f4       	brne	.+4      	; 0x6c0 <checkb>
 	mov	r24, r17	; pin1
     6bc:	81 2f       	mov	r24, r17
        rjmp	data_ipp  	; lcd_data(pin1);	// Output Character in right order
     6be:	09 c0       	rjmp	.+18     	; 0x6d2 <data_ipp>

000006c0 <checkb>:
checkb:
 	ldd	r24, Z+OFFS_b	; _trans->b
     6c0:	84 85       	ldd	r24, Z+12	; 0x0c
 	cp	r14, r24	; if (ipp == _trans->b) 
     6c2:	e8 16       	cp	r14, r24
 	brne	checkc
     6c4:	11 f4       	brne	.+4      	; 0x6ca <checkc>
 	mov	r24, r16
     6c6:	80 2f       	mov	r24, r16
        rjmp	data_ipp	;  lcd_data(pin2);
     6c8:	04 c0       	rjmp	.+8      	; 0x6d2 <data_ipp>

000006ca <checkc>:
checkc:
 	ldd	r24, Z+OFFS_c	; _trans->c
     6ca:	85 85       	ldd	r24, Z+13	; 0x0d
 	cp	r14, r24
     6cc:	e8 16       	cp	r14, r24
 	brne	next_ipp		; if (ipp == _trans->c) 
     6ce:	11 f4       	brne	.+4      	; 0x6d4 <next_ipp>
 	mov	r24, r15
     6d0:	8f 2d       	mov	r24, r15

000006d2 <data_ipp>:
data_ipp:
 	RCALL	lcd_data	;  lcd_data(pin3);
     6d2:	6e de       	rcall	.-804    	; 0x3b0 <lcd_data>

000006d4 <next_ipp>:
next_ipp:
 	inc	r14
     6d4:	e3 94       	inc	r14
 	mov	r24, r14
     6d6:	8e 2d       	mov	r24, r14
 	cpi	r24, 0x03	;  for (     ;ipp<3;ipp++) {
     6d8:	83 30       	cpi	r24, 0x03	; 3
 	brne	loop1 
     6da:	49 f7       	brne	.-46     	; 0x6ae <loop1>

 	pop	r17
     6dc:	1f 91       	pop	r17
 	pop	r16
     6de:	0f 91       	pop	r16
 	pop	r15
     6e0:	ff 90       	pop	r15
 	pop	r14
     6e2:	ef 90       	pop	r14
 	ret
     6e4:	08 95       	ret

000006e6 <Rnum2pins>:
#endif     /* WITH_GRAPHICS */

 .GLOBAL Rnum2pins
 .func Rnum2pins
 Rnum2pins:
	mov	r22,r24
     6e6:	68 2f       	mov	r22, r24
	ldi	r24, TP1
     6e8:	80 e0       	ldi	r24, 0x00	; 0
	ldi	r25, TP3
     6ea:	92 e0       	ldi	r25, 0x02	; 2
        and	r22,r22
     6ec:	66 23       	and	r22, r22
        brne    nozero
     6ee:	09 f4       	brne	.+2      	; 0x6f2 <nozero>
        ldi	r25, TP2
     6f0:	91 e0       	ldi	r25, 0x01	; 1

000006f2 <nozero>:
nozero:
	cpi	r22, 2
     6f2:	62 30       	cpi	r22, 0x02	; 2
	brne	no_two
     6f4:	09 f4       	brne	.+2      	; 0x6f8 <no_two>
	ldi	r24, TP2
     6f6:	81 e0       	ldi	r24, 0x01	; 1

000006f8 <no_two>:
no_two:
	ret
     6f8:	08 95       	ret

000006fa <RvalOut>:
 .extern ResistorVal

 .section .text

RvalOut:		; void RvalOut(uint8_t nrr) 	
 	push	r16
     6fa:	0f 93       	push	r16

        mov	r16, r24
     6fc:	08 2f       	mov	r16, r24
	LDIZ	ResistorVal
     6fe:	e2 ea       	ldi	r30, 0xA2	; 162
     700:	f1 e0       	ldi	r31, 0x01	; 1
	add	r24, r24	; nrr*2
     702:	88 0f       	add	r24, r24
	add	r24, r24	; nrr*4
     704:	88 0f       	add	r24, r24
	add	r30, r24
     706:	e8 0f       	add	r30, r24
	adc	r31, zero_reg
     708:	f1 1d       	adc	r31, r1

 	ld	r22, Z		; resis[rr].rx
     70a:	60 81       	ld	r22, Z
 	ldd	r23, Z+1	; 0x01
     70c:	71 81       	ldd	r23, Z+1	; 0x01
 	ldd	r24, Z+2	; 0x02
     70e:	82 81       	ldd	r24, Z+2	; 0x02
 	ldd	r25, Z+3	; 0x03
     710:	93 81       	ldd	r25, Z+3	; 0x03
#if FLASHEND > 0x1fff
 	cpi	r22, 0x64	; 100
     712:	64 36       	cpi	r22, 0x64	; 100
 	cpc	r23, r1
     714:	71 05       	cpc	r23, r1
 	cpc	r24, r1
     716:	81 05       	cpc	r24, r1
 	cpc	r25, r1
     718:	91 05       	cpc	r25, r1
 	brcc	ad1d8e 		; (ResistorVal[nrr] < 100)
     71a:	70 f4       	brcc	.+28     	; 0x738 <ad1d8e>
 	lds	r18, inductor_lpre
     71c:	20 91 01 01 	lds	r18, 0x0101	; 0x800101 <inductor_lpre>
	sbrc	r18, 7		; minus bit set?
     720:	27 fd       	sbrc	r18, 7
 	rjmp	ad1d8e 		; (inductor_lpre >= 0)
     722:	0a c0       	rjmp	.+20     	; 0x738 <ad1d8e>
	mov	r24,r16
     724:	80 2f       	mov	r24, r16
	ACALL	Rnum2pins;	; pins = Rnum2pins(nrr)
     726:	df df       	rcall	.-66     	; 0x6e6 <Rnum2pins>
        mov	r22, r25
     728:	69 2f       	mov	r22, r25
 	ACALL	GetESR		; rr = GetESR(resis[nrr].ra,resis[nrr].rb);
     72a:	0e 94 55 1e 	call	0x3caa	; 0x3caa <GetESR>
;        ldi	r24, 0
;        ldi	r25, 0
; 	ldi	r20, -2		; 254
; 	ldi	r16, 0x03	; 3
; 	rjmp	ad1d94		; DisplayValue(rr,-2,LCD_CHAR_OMEGA,3);
	ldi	r22, -2
     72e:	6e ef       	ldi	r22, 0xFE	; 254
	ldi	r18, 3
     730:	23 e0       	ldi	r18, 0x03	; 3
	ldi	r20, LCD_CHAR_OMEGA
     732:	44 ef       	ldi	r20, 0xF4	; 244
	RCALL	DisplayValue16	; DisplayValue16(rr,-2,LCD_OMEGA,3);
     734:	54 d1       	rcall	.+680    	; 0x9de <DisplayValue16>
	rjmp	ret_with_space
     736:	04 c0       	rjmp	.+8      	; 0x740 <ret_with_space>

00000738 <ad1d8e>:
ad1d8e:		; } else {
#endif
	; r22-r25 = ResistorVal[rr]
 	ldi	r20, -1		; 255
     738:	4f ef       	ldi	r20, 0xFF	; 255
 	ldi	r16, 0x04	; DisplayValue(resis[nrr].rx,-1,LCD_CHAR_OMEGA,4);
     73a:	04 e0       	ldi	r16, 0x04	; 4
;ad1d94:
 	ldi	r18, LCD_CHAR_OMEGA	; 244
     73c:	24 ef       	ldi	r18, 0xF4	; 244
 	RCALL	DisplayValue
     73e:	65 d0       	rcall	.+202    	; 0x80a <DisplayValue>

00000740 <ret_with_space>:
ret_with_space:
 	RCALL	lcd_space	; lcd_space();
     740:	70 de       	rcall	.-800    	; 0x422 <lcd_space>
 	pop	r16
     742:	0f 91       	pop	r16
 	ret
     744:	08 95       	ret

00000746 <mVAusgabe>:
        .extern lcd_space

	 .func mVAusgabe
	mVAusgabe:
	;   if (nn < 6) {
		cpi	r24, 0x06	; 6
     746:	86 30       	cpi	r24, 0x06	; 6
		brcc	ad1ca4;
     748:	58 f4       	brcc	.+22     	; 0x760 <ad1ca4>
	      // Output in mV units
		LDIZ	diodes+12;
     74a:	e5 e9       	ldi	r30, 0x95	; 149
     74c:	f1 e0       	ldi	r31, 0x01	; 1
		add	r30,r24
     74e:	e8 0f       	add	r30, r24
		adc	r31,zero_reg
     750:	f1 1d       	adc	r31, r1
		add	r30,r24
     752:	e8 0f       	add	r30, r24
		adc	r31,zero_reg
     754:	f1 1d       	adc	r31, r1
		ld	r24, Z		; diodes.Voltage[nn]
     756:	80 81       	ld	r24, Z
		ldd	r25, Z+1	; 0x01
     758:	91 81       	ldd	r25, Z+1	; 0x01
		ldi	r22, 0x03	; 3
     75a:	63 e0       	ldi	r22, 0x03	; 3
		RCALL	Display_mV	; Display_mV(diodes.Voltage[nn],3);
     75c:	4b d1       	rcall	.+662    	; 0x9f4 <Display_mV>
		RCALL	lcd_space;	; lcd_space();
     75e:	61 ce       	rjmp	.-830    	; 0x422 <lcd_space>

00000760 <ad1ca4>:
	ad1ca4:
		ret
     760:	08 95       	ret

00000762 <UfAusgabe>:
	.extern mVAusgabe

	.func UfAusgabe

UfAusgabe:
 	push	r17
     762:	1f 93       	push	r17
 	mov	r17, r24
     764:	18 2f       	mov	r17, r24
 	lds	r24, ResistorsFound;	0x0168
     766:	80 91 6f 01 	lds	r24, 0x016F	; 0x80016f <ResistorsFound>
 	and	r24, r24
     76a:	88 23       	and	r24, r24
 	breq	ad1cbe; 	   if (ResistorsFound > 0) { 
     76c:	19 f0       	breq	.+6      	; 0x774 <ad1cbe>
 	RCALL	lcd_space;	lcd_space();
     76e:	59 de       	rcall	.-846    	; 0x422 <lcd_space>
 	ldi	r24, LCD_CHAR_RESIS3;	0
     770:	80 e0       	ldi	r24, 0x00	; 0
 	RCALL	lcd_data;      lcd_data(LCD_CHAR_RESIS3);	// special symbol or R
     772:	1e de       	rcall	.-964    	; 0x3b0 <lcd_data>

00000774 <ad1cbe>:
ad1cbe:
 	RCALL	lcd_line2;					//2. row
     774:	8d de       	rcall	.-742    	; 0x490 <lcd_line2>
 	ldi	r24, lo8(Uf_str);	0xE9
     776:	8b e5       	ldi	r24, 0x5B	; 91
 	ldi	r25, hi8(Uf_str);	0x01
     778:	91 e0       	ldi	r25, 0x01	; 1
#ifdef USE_EEPROM
 	RCALL	lcd_fix_string	; lcd_PGM_string(Uf_str);	//"Uf="
     77a:	be de       	rcall	.-644    	; 0x4f8 <lcd_fix_string>
#else
 	RCALL	lcd_pgm_string	; lcd_PGM_string(Uf_str);	//"Uf="
#endif
 	mov	r24, r17
     77c:	81 2f       	mov	r24, r17
 	swap	r24
     77e:	82 95       	swap	r24
 	andi	r24, 0x0F
     780:	8f 70       	andi	r24, 0x0F	; 15
 	rcall	mVAusgabe	; mVAusgabe(bcdnum >> 4);
     782:	e1 df       	rcall	.-62     	; 0x746 <mVAusgabe>
 	mov	r24, r17
     784:	81 2f       	mov	r24, r17
 	andi	r24, 0x0F	; 15
     786:	8f 70       	andi	r24, 0x0F	; 15
 	rcall	mVAusgabe	; mVAusgabe(bcdnum & 0x0f);
     788:	de df       	rcall	.-68     	; 0x746 <mVAusgabe>
 	pop	r17
     78a:	1f 91       	pop	r17
 	ret
     78c:	08 95       	ret

0000078e <SerienDiodenAusgabe>:
	.extern AnKat_str

	.func  SerienDiodenAusgabe

SerienDiodenAusgabe:
 	lds	r24, diode_sequence;	0x0102
     78e:	80 91 0d 01 	lds	r24, 0x010D	; 0x80010d <diode_sequence>
 	swap	r24
     792:	82 95       	swap	r24
 	andi	r24, 0x0F	; first = diode_sequence >> 4;
     794:	8f 70       	andi	r24, 0x0F	; 15
	rcall	DiodeSymbol_ApinCpin	;  1->|-2
     796:	19 d0       	rcall	.+50     	; 0x7ca <DiodeSymbol_ApinCpin>

 	lds	r24, diode_sequence;	0x0102
     798:	80 91 0d 01 	lds	r24, 0x010D	; 0x80010d <diode_sequence>
 	andi	r24, 0x03	; second = diode_sequence & 3;
     79c:	83 70       	andi	r24, 0x03	; 3
 	RCALL	DiodeSymbol_ACpin	;  ->|-3
     79e:	1c d0       	rcall	.+56     	; 0x7d8 <DiodeSymbol_ACpin>
 	lds	r24, diode_sequence;	x0102
     7a0:	80 91 0d 01 	lds	r24, 0x010D	; 0x80010d <diode_sequence>
 	rcall	UfAusgabe	; UfAusgabe(diode_sequence);
     7a4:	de cf       	rjmp	.-68     	; 0x762 <UfAusgabe>
    	ret
     7a6:	08 95       	ret

000007a8 <load_diodes_adr>:
 .endfunc

        .func	load_diodes_adr
load_diodes_adr:
 	ldi	r30, lo8(diodes)	;0x80
     7a8:	e9 e8       	ldi	r30, 0x89	; 137
 	ldi	r31, hi8(diodes)	;0x01
     7aa:	f1 e0       	ldi	r31, 0x01	; 1
 	add	r30, r24	; [nn]
     7ac:	e8 0f       	add	r30, r24
 	adc	r31, zero_reg
     7ae:	f1 1d       	adc	r31, r1
	ret
     7b0:	08 95       	ret

000007b2 <DiodeSymbol_withPins>:
	.func	DiodeSymbol_withPins

DiodeSymbol_withPins:
#if FLASHEND > 0x1fff
 // enough memory (>8k) to sort the pins
        push    r28
     7b2:	cf 93       	push	r28
	rcall	load_diodes_adr
     7b4:	f9 df       	rcall	.-14     	; 0x7a8 <load_diodes_adr>

cat_first1:
	rcall	DiodeSymbol_CpinApin
 #else
  // the higher test pin number is right side
	ld	r25, Z
     7b6:	90 81       	ld	r25, Z
	ldd	r28, Z+6	; if (anode_nr < cathode_nr) {
     7b8:	c6 81       	ldd	r28, Z+6	; 0x06
	cp	r28, r25
     7ba:	c9 17       	cp	r28, r25
	brcc	cat_first2
     7bc:	10 f4       	brcc	.+4      	; 0x7c2 <cat_first2>

	rcall	DiodeSymbol_ApinCpin
     7be:	05 d0       	rcall	.+10     	; 0x7ca <DiodeSymbol_ApinCpin>
	rjmp	diode_fin
     7c0:	01 c0       	rjmp	.+2      	; 0x7c4 <diode_fin>

000007c2 <cat_first2>:

//   } else {

cat_first2:
	rcall	DiodeSymbol_CpinApin
     7c2:	13 d0       	rcall	.+38     	; 0x7ea <DiodeSymbol_CpinApin>

000007c4 <diode_fin>:
 #endif
#else
	rcall	DiodeSymbol_ApinCpin
#endif
diode_fin:
	rcall	lcd_space
     7c4:	2e de       	rcall	.-932    	; 0x422 <lcd_space>
	pop	r28
     7c6:	cf 91       	pop	r28
	ret
     7c8:	08 95       	ret

000007ca <DiodeSymbol_ApinCpin>:

	.GLOBAL DiodeSymbol_ApinCpin
	.func	DiodeSymbol_ApinCpin

DiodeSymbol_ApinCpin:
	rcall	load_diodes_adr
     7ca:	ee df       	rcall	.-36     	; 0x7a8 <load_diodes_adr>
	push	r24
     7cc:	8f 93       	push	r24
 	ld	r24, Z		;Anode
     7ce:	80 81       	ld	r24, Z
 	RCALL	lcd_testpin	; lcd_testpin(diodes.Anode[nn]);
     7d0:	25 de       	rcall	.-950    	; 0x41c <lcd_testpin>
	pop	r24
     7d2:	8f 91       	pop	r24
	rcall	DiodeSymbol_ACpin	; ->|-3
     7d4:	01 c0       	rjmp	.+2      	; 0x7d8 <DiodeSymbol_ACpin>
        ret
     7d6:	08 95       	ret

000007d8 <DiodeSymbol_ACpin>:

	.GLOBAL DiodeSymbol_ACpin
	.func	DiodeSymbol_ACpin

DiodeSymbol_ACpin:
	push	r24
     7d8:	8f 93       	push	r24
 	ldi	r24, lo8(AnKat_str)	;0xA3
     7da:	87 e2       	ldi	r24, 0x27	; 39
 	ldi	r25, hi8(AnKat_str)	;0x03
     7dc:	91 e0       	ldi	r25, 0x01	; 1
  #ifdef USE_EEPROM
	.extern lcd_fix_string
 	RCALL	lcd_fix_string	; lcd_PGM_string(AnKat_str);	//"->|-"
     7de:	8c de       	rcall	.-744    	; 0x4f8 <lcd_fix_string>
  #else
	.extern lcd_pgm_string
 	RCALL	lcd_pgm_string	; lcd_PGM_string(AnKat_str);	//"->|-"
  #endif
	pop	r24
     7e0:	8f 91       	pop	r24
	rcall	load_diodes_adr
     7e2:	e2 df       	rcall	.-60     	; 0x7a8 <load_diodes_adr>
	ldd	r24, Z+6	; Cathode
     7e4:	86 81       	ldd	r24, Z+6	; 0x06
 	RCALL	lcd_testpin	; lcd_testpin(diodes.Cathode[nn]);
     7e6:	1a ce       	rjmp	.-972    	; 0x41c <lcd_testpin>
	ret
     7e8:	08 95       	ret

000007ea <DiodeSymbol_CpinApin>:

	.GLOBAL DiodeSymbol_CpinApin
	.func	DiodeSymbol_CpinApin

DiodeSymbol_CpinApin:
	rcall	load_diodes_adr
     7ea:	de df       	rcall	.-68     	; 0x7a8 <load_diodes_adr>
	push	r24
     7ec:	8f 93       	push	r24
 	ldd	r24, Z+6	;Cathode
     7ee:	86 81       	ldd	r24, Z+6	; 0x06
 	RCALL	lcd_testpin	; lcd_testpin(diodes.Cathode[nn]);
     7f0:	15 de       	rcall	.-982    	; 0x41c <lcd_testpin>
	pop	r24
     7f2:	8f 91       	pop	r24
	rcall	DiodeSymbol_CApin	; -|<-3
     7f4:	01 c0       	rjmp	.+2      	; 0x7f8 <DiodeSymbol_CApin>
        ret
     7f6:	08 95       	ret

000007f8 <DiodeSymbol_CApin>:

	.GLOBAL DiodeSymbol_CApin
	.func	DiodeSymbol_CApin

DiodeSymbol_CApin:
	push	r24
     7f8:	8f 93       	push	r24
 	ldi	r24, lo8(KatAn_str)	;0xA3
     7fa:	83 e2       	ldi	r24, 0x23	; 35
 	ldi	r25, hi8(KatAn_str)	;0x03
     7fc:	91 e0       	ldi	r25, 0x01	; 1
  #ifdef USE_EEPROM
	.extern lcd_fix_string
 	RCALL	lcd_fix_string	; lcd_PGM_string(KatAn_str);	//"->|-"
     7fe:	7c de       	rcall	.-776    	; 0x4f8 <lcd_fix_string>
  #else
	.extern lcd_pgm_string
 	RCALL	lcd_pgm_string	; lcd_PGM_string(KatAn_str);	//"->|-"
  #endif
	pop	r24
     800:	8f 91       	pop	r24
	rcall	load_diodes_adr
     802:	d2 df       	rcall	.-92     	; 0x7a8 <load_diodes_adr>
	ld	r24, Z		; Anode
     804:	80 81       	ld	r24, Z
 	RCALL	lcd_testpin	; lcd_testpin(diodes.Anode[nn]);
     806:	0a ce       	rjmp	.-1004   	; 0x41c <lcd_testpin>
	ret
     808:	08 95       	ret

0000080a <DisplayValue>:
 *  Flag 0x10 for output with leading zeros
 *  Flag 0x20 for '+' Output, if not '-' 
 */

void DisplayValue(signed long signedValue, int8_t Exponent, unsigned char Unit, uint8_t xdigits)
{
     80a:	ae e0       	ldi	r26, 0x0E	; 14
     80c:	b0 e0       	ldi	r27, 0x00	; 0
     80e:	eb e0       	ldi	r30, 0x0B	; 11
     810:	f4 e0       	ldi	r31, 0x04	; 4
     812:	0c 94 c8 33 	jmp	0x6790	; 0x6790 <__prologue_saves__>
     816:	14 2f       	mov	r17, r20
     818:	62 2e       	mov	r6, r18
     81a:	70 2e       	mov	r7, r16
  uint8_t           digits;		/* xdigits without option */
  uint8_t           Length;		/* string length */
  uint8_t	    Rshift;		/* right shift of significant bits with leading '0' */


  unsigned long Value=signedValue;
     81c:	6b 01       	movw	r12, r22
     81e:	7c 01       	movw	r14, r24
  digits = xdigits & 0x0f;
     820:	0f 70       	andi	r16, 0x0F	; 15
  for(Prefix=0;Prefix<6;Prefix++) OutBuffer[Prefix] = '0';
     822:	80 e3       	ldi	r24, 0x30	; 48
     824:	89 83       	std	Y+1, r24	; 0x01
     826:	8a 83       	std	Y+2, r24	; 0x02
     828:	8b 83       	std	Y+3, r24	; 0x03
     82a:	8c 83       	std	Y+4, r24	; 0x04
     82c:	8d 83       	std	Y+5, r24	; 0x05
     82e:	8e 83       	std	Y+6, r24	; 0x06

#if FLASHEND > 0x1fff
  if (signedValue<0) {
     830:	f7 fe       	sbrs	r15, 7
     832:	0b c0       	rjmp	.+22     	; 0x84a <DisplayValue+0x40>
     lcd_data('-');
     834:	8d e2       	ldi	r24, 0x2D	; 45
     836:	bc dd       	rcall	.-1160   	; 0x3b0 <lcd_data>
     Value=-signedValue;
     838:	f0 94       	com	r15
     83a:	e0 94       	com	r14
     83c:	d0 94       	com	r13
     83e:	c0 94       	com	r12
     840:	c1 1c       	adc	r12, r1
     842:	d1 1c       	adc	r13, r1
     844:	e1 1c       	adc	r14, r1
     846:	f1 1c       	adc	r15, r1
     848:	04 c0       	rjmp	.+8      	; 0x852 <DisplayValue+0x48>
  } else {
     if ((xdigits & 0x20) != 0) lcd_data('+');
     84a:	75 fe       	sbrs	r7, 5
     84c:	02 c0       	rjmp	.+4      	; 0x852 <DisplayValue+0x48>
     84e:	8b e2       	ldi	r24, 0x2B	; 43
     850:	af dd       	rcall	.-1186   	; 0x3b0 <lcd_data>
  }
#endif

  Limit = 100;				/* scale value down to 2 digits */
  if (digits == 3) Limit = 1000;	/* scale value down to 3 digits */
     852:	03 30       	cpi	r16, 0x03	; 3
     854:	71 f0       	breq	.+28     	; 0x872 <DisplayValue+0x68>
  if (digits == 4) Limit = 10000;	/* scale value down to 4 digits */
     856:	04 30       	cpi	r16, 0x04	; 4
     858:	99 f0       	breq	.+38     	; 0x880 <DisplayValue+0x76>
#ifdef LONG_OUTPUT
  if (digits == 5) Limit = 100000;	/* scale value down to 5 digits */
     85a:	05 30       	cpi	r16, 0x05	; 5
     85c:	c1 f0       	breq	.+48     	; 0x88e <DisplayValue+0x84>
  if (digits == 6) Limit = 1000000;	/* scale value down to 6 digits */
     85e:	06 30       	cpi	r16, 0x06	; 6
     860:	f1 f0       	breq	.+60     	; 0x89e <DisplayValue+0x94>
  if (digits == 7) Limit = 10000000;	/* scale value down to 7 digits */
     862:	07 30       	cpi	r16, 0x07	; 7
     864:	21 f1       	breq	.+72     	; 0x8ae <DisplayValue+0xa4>
  } else {
     if ((xdigits & 0x20) != 0) lcd_data('+');
  }
#endif

  Limit = 100;				/* scale value down to 2 digits */
     866:	74 e6       	ldi	r23, 0x64	; 100
     868:	87 2e       	mov	r8, r23
     86a:	91 2c       	mov	r9, r1
     86c:	a1 2c       	mov	r10, r1
     86e:	b1 2c       	mov	r11, r1
     870:	25 c0       	rjmp	.+74     	; 0x8bc <DisplayValue+0xb2>
  if (digits == 3) Limit = 1000;	/* scale value down to 3 digits */
     872:	68 ee       	ldi	r22, 0xE8	; 232
     874:	86 2e       	mov	r8, r22
     876:	63 e0       	ldi	r22, 0x03	; 3
     878:	96 2e       	mov	r9, r22
     87a:	a1 2c       	mov	r10, r1
     87c:	b1 2c       	mov	r11, r1
     87e:	1e c0       	rjmp	.+60     	; 0x8bc <DisplayValue+0xb2>
  if (digits == 4) Limit = 10000;	/* scale value down to 4 digits */
     880:	50 e1       	ldi	r21, 0x10	; 16
     882:	85 2e       	mov	r8, r21
     884:	57 e2       	ldi	r21, 0x27	; 39
     886:	95 2e       	mov	r9, r21
     888:	a1 2c       	mov	r10, r1
     88a:	b1 2c       	mov	r11, r1
     88c:	17 c0       	rjmp	.+46     	; 0x8bc <DisplayValue+0xb2>
#ifdef LONG_OUTPUT
  if (digits == 5) Limit = 100000;	/* scale value down to 5 digits */
     88e:	40 ea       	ldi	r20, 0xA0	; 160
     890:	84 2e       	mov	r8, r20
     892:	46 e8       	ldi	r20, 0x86	; 134
     894:	94 2e       	mov	r9, r20
     896:	aa 24       	eor	r10, r10
     898:	a3 94       	inc	r10
     89a:	b1 2c       	mov	r11, r1
     89c:	0f c0       	rjmp	.+30     	; 0x8bc <DisplayValue+0xb2>
  if (digits == 6) Limit = 1000000;	/* scale value down to 6 digits */
     89e:	30 e4       	ldi	r19, 0x40	; 64
     8a0:	83 2e       	mov	r8, r19
     8a2:	32 e4       	ldi	r19, 0x42	; 66
     8a4:	93 2e       	mov	r9, r19
     8a6:	3f e0       	ldi	r19, 0x0F	; 15
     8a8:	a3 2e       	mov	r10, r19
     8aa:	b1 2c       	mov	r11, r1
     8ac:	07 c0       	rjmp	.+14     	; 0x8bc <DisplayValue+0xb2>
  if (digits == 7) Limit = 10000000;	/* scale value down to 7 digits */
     8ae:	20 e8       	ldi	r18, 0x80	; 128
     8b0:	82 2e       	mov	r8, r18
     8b2:	26 e9       	ldi	r18, 0x96	; 150
     8b4:	92 2e       	mov	r9, r18
     8b6:	28 e9       	ldi	r18, 0x98	; 152
     8b8:	a2 2e       	mov	r10, r18
     8ba:	b1 2c       	mov	r11, r1

  while (Value >= Limit)
  {
    Value += 5;				/* for automatic rounding */
    // perhaps TODO: the above is not really correct, can do double rounding (2000.45 -> 2000.5 -> 2001)
    Value = Value / 10;			/* scale down by 10^1 */
     8bc:	9a e0       	ldi	r25, 0x0A	; 10
     8be:	29 2e       	mov	r2, r25
     8c0:	31 2c       	mov	r3, r1
     8c2:	41 2c       	mov	r4, r1
     8c4:	51 2c       	mov	r5, r1
  if (digits == 5) Limit = 100000;	/* scale value down to 5 digits */
  if (digits == 6) Limit = 1000000;	/* scale value down to 6 digits */
  if (digits == 7) Limit = 10000000;	/* scale value down to 7 digits */
#endif

  while (Value >= Limit)
     8c6:	c8 14       	cp	r12, r8
     8c8:	d9 04       	cpc	r13, r9
     8ca:	ea 04       	cpc	r14, r10
     8cc:	fb 04       	cpc	r15, r11
     8ce:	70 f0       	brcs	.+28     	; 0x8ec <DisplayValue+0xe2>
  {
    Value += 5;				/* for automatic rounding */
     8d0:	c7 01       	movw	r24, r14
     8d2:	b6 01       	movw	r22, r12
     8d4:	6b 5f       	subi	r22, 0xFB	; 251
     8d6:	7f 4f       	sbci	r23, 0xFF	; 255
     8d8:	8f 4f       	sbci	r24, 0xFF	; 255
     8da:	9f 4f       	sbci	r25, 0xFF	; 255
    // perhaps TODO: the above is not really correct, can do double rounding (2000.45 -> 2000.5 -> 2001)
    Value = Value / 10;			/* scale down by 10^1 */
     8dc:	a2 01       	movw	r20, r4
     8de:	91 01       	movw	r18, r2
     8e0:	0e 94 e0 32 	call	0x65c0	; 0x65c0 <__udivmodsi4>
     8e4:	69 01       	movw	r12, r18
     8e6:	7a 01       	movw	r14, r20
     8e8:	1f 5f       	subi	r17, 0xFF	; 255
     8ea:	ed cf       	rjmp	.-38     	; 0x8c6 <DisplayValue+0xbc>
    }
#endif
  // the following is much more concise
  // also removes the limits checking, since limit errors should never happen, and if they do, they'd show _incorrect_ results;
  // showing a garbage prefix character seems preferable to something correct-looking but off by some power of 10
  Index = ((unsigned char)(Exponent+17))/3;
     8ec:	81 e1       	ldi	r24, 0x11	; 17
     8ee:	81 0f       	add	r24, r17
     8f0:	9b ea       	ldi	r25, 0xAB	; 171
     8f2:	89 9f       	mul	r24, r25
     8f4:	81 2d       	mov	r24, r1
     8f6:	11 24       	eor	r1, r1
     8f8:	a8 2e       	mov	r10, r24
     8fa:	a6 94       	lsr	r10
  Offset = ((unsigned char)(6-Exponent))%3;
     8fc:	86 e0       	ldi	r24, 0x06	; 6
     8fe:	81 1b       	sub	r24, r17
     900:	89 9f       	mul	r24, r25
     902:	11 2d       	mov	r17, r1
     904:	11 24       	eor	r1, r1
     906:	16 95       	lsr	r17
     908:	91 2f       	mov	r25, r17
     90a:	99 0f       	add	r25, r25
     90c:	19 0f       	add	r17, r25
     90e:	81 1b       	sub	r24, r17
     910:	18 2f       	mov	r17, r24
    } else if (__radix < 2 || __radix > 36) {
	*__s = 0;
	return __s;
    } else {
	extern char *__ultoa_ncheck (unsigned long, char *, unsigned char);
	return __ultoa_ncheck (__val, __s, __radix);
     912:	4e 01       	movw	r8, r28
     914:	87 e0       	ldi	r24, 0x07	; 7
     916:	88 0e       	add	r8, r24
     918:	91 1c       	adc	r9, r1
     91a:	2a e0       	ldi	r18, 0x0A	; 10
     91c:	a4 01       	movw	r20, r8
     91e:	c7 01       	movw	r24, r14
     920:	b6 01       	movw	r22, r12
     922:	0e 94 07 34 	call	0x680e	; 0x680e <__ultoa_ncheck>
  ultoa(Value, &OutBuffer[6], 10);	// sprintf(&OutBuffer[6],"%ld%c",Value,(char)0);
#else
  utoa((uint16_t)Value, &OutBuffer[6], 10);	// sprintf(&OutBuffer[6],"%d%c",Value,(char)0);
#endif

  Length = strlen(&OutBuffer[6]);
     926:	f4 01       	movw	r30, r8
     928:	01 90       	ld	r0, Z+
     92a:	00 20       	and	r0, r0
     92c:	e9 f7       	brne	.-6      	; 0x928 <__stack+0x29>
     92e:	31 97       	sbiw	r30, 0x01	; 1
     930:	7f 01       	movw	r14, r30
     932:	e8 18       	sub	r14, r8
     934:	f9 08       	sbc	r15, r9
     936:	9e 2c       	mov	r9, r14

#ifdef LONG_OUTPUT
 #ifdef NO_NANO
  if ((Length > (4+Offset))  && (Index != 0))
 #else
  if (Length > (4+Offset)) 
     938:	67 01       	movw	r12, r14
     93a:	dd 24       	eor	r13, r13
     93c:	81 2f       	mov	r24, r17
     93e:	90 e0       	ldi	r25, 0x00	; 0
     940:	04 96       	adiw	r24, 0x04	; 4
     942:	8c 15       	cp	r24, r12
     944:	9d 05       	cpc	r25, r13
     946:	14 f4       	brge	.+4      	; 0x94c <__stack+0x4d>
 #endif
    {
      Index++;			/* take next prefix for better readable string */
     948:	a3 94       	inc	r10
      Offset += 3;		/* decimal point 3 to the left */
     94a:	1d 5f       	subi	r17, 0xFD	; 253
      Index++;				/* use mikro instead of nano */
      Offset += 3;			/* can be 3,4 or 5 */
    }
#endif

  Prefix = MEM_read_byte((unsigned char *)(&PrefixTab[Index]));   /* look up prefix in table */
     94c:	8a 2d       	mov	r24, r10
     94e:	90 e0       	ldi	r25, 0x00	; 0
     950:	84 5d       	subi	r24, 0xD4	; 212
     952:	9f 4f       	sbci	r25, 0xFF	; 255
     954:	0e 94 5b 34 	call	0x68b6	; 0x68b6 <eeprom_read_byte>
     958:	a8 2e       	mov	r10, r24

   */


  /* position of dot */
  if (((xdigits & 0x10) != 0) && (digits > Length)) {
     95a:	74 fe       	sbrs	r7, 4
     95c:	04 c0       	rjmp	.+8      	; 0x966 <__stack+0x67>
     95e:	90 16       	cp	r9, r16
     960:	10 f4       	brcc	.+4      	; 0x966 <__stack+0x67>
     Rshift = (digits - Length);	// use previous filled '0' characters
     962:	0e 19       	sub	r16, r14
     964:	01 c0       	rjmp	.+2      	; 0x968 <__stack+0x69>
  } else {
     Rshift = 0;
     966:	00 e0       	ldi	r16, 0x00	; 0
  }

  Exponent = (Length + Rshift) - Offset;		/* calculate position */
     968:	8e 2c       	mov	r8, r14
     96a:	81 1a       	sub	r8, r17
     96c:	80 0e       	add	r8, r16

  if (Exponent <= 0)			/* we have to prepend "0." */
     96e:	18 14       	cp	r1, r8
  {
    /* 0: factor 10 / -1: factor 100 */
//    lcd_data('0');
    lcd_data('.');
     970:	24 f0       	brlt	.+8      	; 0x97a <__stack+0x7b>
     972:	8e e2       	ldi	r24, 0x2E	; 46
     974:	1d dd       	rcall	.-1478   	; 0x3b0 <lcd_data>
      }
#else
    if (Exponent < 0) lcd_data('0');	/* extra 0 for factor 100 */
#endif
#else
    Rshift = Offset - Length;
     976:	01 2f       	mov	r16, r17
     978:	0e 19       	sub	r16, r14
#endif
  }



  if (Offset == 0) Exponent = -8;	/* disable dot if not needed */
     97a:	11 11       	cpse	r17, r1
     97c:	02 c0       	rjmp	.+4      	; 0x982 <__stack+0x83>
     97e:	88 ef       	ldi	r24, 0xF8	; 248
     980:	88 2e       	mov	r8, r24

//  Exponent--;


  /* display value and add dot if requested */
  Index = 0;
     982:	91 2c       	mov	r9, r1
  while (Index < (Length+Rshift))		/* loop through string */
     984:	10 e0       	ldi	r17, 0x00	; 0
     986:	c0 0e       	add	r12, r16
     988:	d1 1e       	adc	r13, r17
  {
    lcd_data(OutBuffer[Index+6-Rshift]);		/* display char */
    Index++;				/* next one */
    if (Index == Exponent) {
     98a:	e8 2c       	mov	r14, r8
     98c:	08 2c       	mov	r0, r8
     98e:	00 0c       	add	r0, r0
     990:	ff 08       	sbc	r15, r15
//  Exponent--;


  /* display value and add dot if requested */
  Index = 0;
  while (Index < (Length+Rshift))		/* loop through string */
     992:	89 2d       	mov	r24, r9
     994:	90 e0       	ldi	r25, 0x00	; 0
     996:	8c 15       	cp	r24, r12
     998:	9d 05       	cpc	r25, r13
     99a:	ac f4       	brge	.+42     	; 0x9c6 <__stack+0xc7>
  {
    lcd_data(OutBuffer[Index+6-Rshift]);		/* display char */
     99c:	fc 01       	movw	r30, r24
     99e:	36 96       	adiw	r30, 0x06	; 6
     9a0:	e0 1b       	sub	r30, r16
     9a2:	f1 0b       	sbc	r31, r17
     9a4:	81 e0       	ldi	r24, 0x01	; 1
     9a6:	90 e0       	ldi	r25, 0x00	; 0
     9a8:	8c 0f       	add	r24, r28
     9aa:	9d 1f       	adc	r25, r29
     9ac:	e8 0f       	add	r30, r24
     9ae:	f9 1f       	adc	r31, r25
     9b0:	80 81       	ld	r24, Z
     9b2:	fe dc       	rcall	.-1540   	; 0x3b0 <lcd_data>
    Index++;				/* next one */
     9b4:	93 94       	inc	r9
    if (Index == Exponent) {
     9b6:	89 2d       	mov	r24, r9
     9b8:	90 e0       	ldi	r25, 0x00	; 0
     9ba:	8e 15       	cp	r24, r14
     9bc:	9f 05       	cpc	r25, r15
      lcd_data('.');			/* display dot */
     9be:	49 f7       	brne	.-46     	; 0x992 <__stack+0x93>
     9c0:	8e e2       	ldi	r24, 0x2E	; 46
     9c2:	f6 dc       	rcall	.-1556   	; 0x3b0 <lcd_data>



  /* display prefix and unit */

  if (Prefix != 0) {
     9c4:	e6 cf       	rjmp	.-52     	; 0x992 <__stack+0x93>
     9c6:	aa 20       	and	r10, r10
     lcd_data(Prefix);
     9c8:	11 f0       	breq	.+4      	; 0x9ce <__stack+0xcf>
     9ca:	8a 2d       	mov	r24, r10
  }

  if (Unit != 0) {
     9cc:	f1 dc       	rcall	.-1566   	; 0x3b0 <lcd_data>
     9ce:	66 20       	and	r6, r6
      lcd_data(Unit);
     9d0:	11 f0       	breq	.+4      	; 0x9d6 <__stack+0xd7>
     9d2:	86 2d       	mov	r24, r6
     9d4:	ed dc       	rcall	.-1574   	; 0x3b0 <lcd_data>
  }
  return;
}
     9d6:	2e 96       	adiw	r28, 0x0e	; 14
     9d8:	e2 e1       	ldi	r30, 0x12	; 18
     9da:	0c 94 e4 33 	jmp	0x67c8	; 0x67c8 <__epilogue_restores__>

000009de <DisplayValue16>:

void DisplayValue16(uint16_t Value, int8_t Exponent, unsigned char Unit, uint8_t digits)
{
     9de:	0f 93       	push	r16
 DisplayValue((signed long)Value, Exponent, Unit, digits);
     9e0:	36 2f       	mov	r19, r22
     9e2:	bc 01       	movw	r22, r24
     9e4:	80 e0       	ldi	r24, 0x00	; 0
     9e6:	90 e0       	ldi	r25, 0x00	; 0
     9e8:	02 2f       	mov	r16, r18
     9ea:	24 2f       	mov	r18, r20
     9ec:	43 2f       	mov	r20, r19
     9ee:	0d df       	rcall	.-486    	; 0x80a <DisplayValue>
}
     9f0:	0f 91       	pop	r16

void Display_mV(uint16_t xx, uint8_t ll) {
     9f2:	08 95       	ret

000009f4 <Display_mV>:
     9f4:	0f 93       	push	r16
 DisplayValue((long)xx,-3,'V',ll);
     9f6:	06 2f       	mov	r16, r22
     9f8:	bc 01       	movw	r22, r24
     9fa:	80 e0       	ldi	r24, 0x00	; 0
     9fc:	90 e0       	ldi	r25, 0x00	; 0
     9fe:	26 e5       	ldi	r18, 0x56	; 86
     a00:	4d ef       	ldi	r20, 0xFD	; 253
}
     a02:	03 df       	rcall	.-506    	; 0x80a <DisplayValue>
#if defined(WITH_MENU) || defined(WITH_XTAL)
void Display_Hz(unsigned long xx, uint8_t dd) {
     a04:	0f 91       	pop	r16
 DisplayValue(xx,0,'H',dd);
     a06:	08 95       	ret

00000a08 <Display_Hz>:
     a08:	0f 93       	push	r16
     a0a:	04 2f       	mov	r16, r20
     a0c:	28 e4       	ldi	r18, 0x48	; 72
     a0e:	40 e0       	ldi	r20, 0x00	; 0
 lcd_data('z');
     a10:	fc de       	rcall	.-520    	; 0x80a <DisplayValue>
     a12:	8a e7       	ldi	r24, 0x7A	; 122
     a14:	cd dc       	rcall	.-1638   	; 0x3b0 <lcd_data>
 lcd_space();
     a16:	05 dd       	rcall	.-1526   	; 0x422 <lcd_space>
     a18:	0f 91       	pop	r16
}
     a1a:	08 95       	ret

00000a1c <uart_putc>:
 .section .text
uart_putc:	
#if defined(WITH_UART) && (!defined(WITH_HARDWARE_SERIAL))
;	push bitcnt
;	in temp,_SFR_IO_ADDR(SREG)
		push	Txbyte		; save character 
     a1c:	8f 93       	push	r24
	    	push bitcnt		; save register used for bit count
     a1e:	2f 93       	push	r18
		ldi	bitcnt,10	;1+8+sb (sb is # of stop bits)
     a20:	2a e0       	ldi	r18, 0x0A	; 10
		com	Txbyte		;Inverte everything
     a22:	80 95       	com	r24
		sbi	SER_DDR,SERIAL_BIT	; enable output of serial bit
     a24:	3b 9a       	sbi	0x07, 3	; 7
		sec			;Start bit
     a26:	08 94       	sec

00000a28 <putchar0>:

putchar0:	brcc	putchar1	;If carry set
     a28:	10 f4       	brcc	.+4      	; 0xa2e <putchar1>
	#ifdef SWUART_INVERT
		sbi	SER_PORT,SERIAL_BIT	;    send a '0'
	#else
		cbi	SER_PORT,SERIAL_BIT	;    send a '0'
     a2a:	43 98       	cbi	0x08, 3	; 8
	#endif
		rjmp	putchar2	;else	
     a2c:	02 c0       	rjmp	.+4      	; 0xa32 <putchar2>

00000a2e <putchar1>:

putchar1:	
	#ifdef SWUART_INVERT
		cbi	SER_PORT,SERIAL_BIT	;    send a '1'
	#else
		sbi	SER_PORT,SERIAL_BIT	;    send a '1'
     a2e:	43 9a       	sbi	0x08, 3	; 8
	...

00000a32 <putchar2>:
	#endif
		nop

putchar2:
                rcall   wait100us	; about 9600 Baud
     a32:	20 d0       	rcall	.+64     	; 0xa74 <wait100us>
       	#if  F_CPU >= 8000000UL
                rcall	wait3us
     a34:	27 d0       	rcall	.+78     	; 0xa84 <wait3us>
	#endif
		lsr	Txbyte		;Get next bit
     a36:	86 95       	lsr	r24
		dec	bitcnt		;If not all bit sent
     a38:	2a 95       	dec	r18
		brne	putchar0	;   send next
     a3a:	b1 f7       	brne	.-20     	; 0xa28 <putchar0>
					;else
		pop	bitcnt 		; restore register used for bit count
     a3c:	2f 91       	pop	r18
		pop	Txbyte		; restore character send
     a3e:	8f 91       	pop	r24
		lds	r25, UCSR0A
		sbrs	r25, UDRE0
		rjmp	w3		; wait
		AOUT    UDR0, r24	; put data to transmit buffer
#endif	/* def WITH_HARDWARE_SERIAL */
		ret			;   return
     a40:	08 95       	ret

00000a42 <wait5s>:
; A maximum of 28 bytes of space for return addresses is used in RAM 
; I see no way to implement this function with C-language (too tricky)


wait5s:
 rcall wait1s		;	12+x return-adresses
     a42:	03 d0       	rcall	.+6      	; 0xa4a <wait1000ms>

00000a44 <wait4s>:
wait4s:
 rcall wait1s		;	12+x return-adresses
     a44:	02 d0       	rcall	.+4      	; 0xa4a <wait1000ms>

00000a46 <wait3s>:
wait3s:
 rcall wait1s		;	12+x return-adresses
     a46:	01 d0       	rcall	.+2      	; 0xa4a <wait1000ms>

00000a48 <wait2s>:
wait2s:
 rcall wait1s		;1s     12+x Return-Adresses
     a48:	00 d0       	rcall	.+0      	; 0xa4a <wait1000ms>

00000a4a <wait1000ms>:

wait1s:
wait1000ms:	
 rcall wait500ms	;500ms	11+x Return-Adresses
     a4a:	00 d0       	rcall	.+0      	; 0xa4c <wait500ms>

00000a4c <wait500ms>:

wait500ms:
 rcall wait100ms	;100ms	10+x Return-Adresses
     a4c:	03 d0       	rcall	.+6      	; 0xa54 <wait100ms>

00000a4e <wait400ms>:
wait400ms:
 rcall wait100ms	;100ms	10+x Return-Adresses
     a4e:	02 d0       	rcall	.+4      	; 0xa54 <wait100ms>

00000a50 <wait300ms>:
wait300ms:
 rcall wait100ms	;100ms	10+x Return-Adresses
     a50:	01 d0       	rcall	.+2      	; 0xa54 <wait100ms>

00000a52 <wait200ms>:
wait200ms:
 rcall wait100ms	;100ms	10+x Return-Adresses
     a52:	00 d0       	rcall	.+0      	; 0xa54 <wait100ms>

00000a54 <wait100ms>:


wait100ms:
 rcall wait50ms	    	; 50ms	9+x Return-Adresses
     a54:	00 d0       	rcall	.+0      	; 0xa56 <wait50ms>

00000a56 <wait50ms>:

wait50ms:
 rcall wait10ms	    	;10ms	8+x Return-Adresses 
     a56:	03 d0       	rcall	.+6      	; 0xa5e <wait10ms>

00000a58 <wait40ms>:
wait40ms:
 rcall wait10ms	    	;10ms	8+x Return-Adresses  
     a58:	02 d0       	rcall	.+4      	; 0xa5e <wait10ms>

00000a5a <wait30ms>:
wait30ms:
 rcall wait10ms	    	;10ms	8+x Return-Adresses  
     a5a:	01 d0       	rcall	.+2      	; 0xa5e <wait10ms>

00000a5c <wait20ms>:
wait20ms:
 rcall wait10ms	    	;10ms	8+x Return-Adresses
     a5c:	00 d0       	rcall	.+0      	; 0xa5e <wait10ms>

00000a5e <wait10ms>:

wait10ms:
 rcall wait5ms	   	;5ms	7+x Return-Adresses
     a5e:	00 d0       	rcall	.+0      	; 0xa60 <wait5ms>

00000a60 <wait5ms>:
wait5ms:
 wdr				; every 5ms one Watchdog reset!
     a60:	a8 95       	wdr
 rcall wait1ms	   	;1ms	6+x Return-Adresses
     a62:	03 d0       	rcall	.+6      	; 0xa6a <wait1ms>

00000a64 <wait4ms>:
wait4ms:
 rcall wait1ms	   	;1ms	6+x Return-Adresses
     a64:	02 d0       	rcall	.+4      	; 0xa6a <wait1ms>

00000a66 <wait3ms>:
wait3ms:
 rcall wait1ms	   	;1ms	6+x Return-Adresses
     a66:	01 d0       	rcall	.+2      	; 0xa6a <wait1ms>

00000a68 <wait2ms>:
wait2ms:
 rcall wait1ms	   	;1ms	6+x Return-Adresses
     a68:	00 d0       	rcall	.+0      	; 0xa6a <wait1ms>

00000a6a <wait1ms>:

wait1ms:
 rcall wait500us    	;500us	5+x Return-Adresses
     a6a:	00 d0       	rcall	.+0      	; 0xa6c <wait500us>

00000a6c <wait500us>:
wait500us:
 rcall wait100us    	;100us	4+x Return-Adresses
     a6c:	03 d0       	rcall	.+6      	; 0xa74 <wait100us>

00000a6e <wait400us>:
wait400us:
 rcall wait100us    	;100us	4+x Return-Adresses
     a6e:	02 d0       	rcall	.+4      	; 0xa74 <wait100us>

00000a70 <wait300us>:
wait300us:
 rcall wait100us    	;100us	4+x Return-Adresses
     a70:	01 d0       	rcall	.+2      	; 0xa74 <wait100us>

00000a72 <wait200us>:
wait200us:
 rcall wait100us    	;100us	4+x Return-Adresses
     a72:	00 d0       	rcall	.+0      	; 0xa74 <wait100us>

00000a74 <wait100us>:

wait100us:
#if US100_TICS > (2 * US50_TICS)
 nop
#endif
 rcall wait50us	    	; 50us delay
     a74:	00 d0       	rcall	.+0      	; 0xa76 <wait50us>

00000a76 <wait50us>:
wait50us:
#if US50_TICS > (US40_TICS + US10_TICS)
 nop
#endif
 rcall wait10us     	;10us delay
     a76:	03 d0       	rcall	.+6      	; 0xa7e <wait10us>

00000a78 <wait40us>:
wait40us:
#if US40_TICS > (US30_TICS + US10_TICS)
 nop
#endif
 rcall wait10us     	;10us delay
     a78:	02 d0       	rcall	.+4      	; 0xa7e <wait10us>

00000a7a <wait30us>:
wait30us:
#if US30_TICS > (US20_TICS + US10_TICS)
 nop
#endif
 rcall wait10us     	;10us delay
     a7a:	01 d0       	rcall	.+2      	; 0xa7e <wait10us>

00000a7c <wait20us>:
wait20us:
#if US20_TICS > (2 * US10_TICS)
 nop
#endif
 rcall wait10us		;10us delay
     a7c:	00 d0       	rcall	.+0      	; 0xa7e <wait10us>

00000a7e <wait10us>:

#if US5_TICS >= RCALL_TICS
 #if US10_TICS > (2 * US5_TICS)
  nop
 #endif
 rcall wait5us
     a7e:	00 d0       	rcall	.+0      	; 0xa80 <wait5us>

00000a80 <wait5us>:
  #if NS500_TICS >= RCALL_TICS
wait5us:
   #if US5_TICS > (US4_TICS + US1_TICS)
    nop
   #endif
   rcall wait1us
     a80:	03 d0       	rcall	.+6      	; 0xa88 <wait1us>

00000a82 <wait4us>:
wait4us:
   #if US4_TICS > (US3_TICS + US1_TICS)
    nop
   #endif
   rcall wait1us
     a82:	02 d0       	rcall	.+4      	; 0xa88 <wait1us>

00000a84 <wait3us>:
wait3us:
   #if US3_TICS > (US2_TICS + US1_TICS)
    nop
   #endif
   rcall wait1us
     a84:	01 d0       	rcall	.+2      	; 0xa88 <wait1us>

00000a86 <wait2us>:
wait2us:
   #if US2_TICS > (2 * US1_TICS)
    nop
   #endif
   rcall wait1us
     a86:	00 d0       	rcall	.+0      	; 0xa88 <wait1us>

00000a88 <wait1us>:
wait1us:
   ; a 500ns delay is also possible with call
   #if US1_TICS > (2 * NS500_TICS)
    nop
   #endif
   rcall wait500ns
     a88:	00 d0       	rcall	.+0      	; 0xa8a <wait500ns>

00000a8a <wait500ns>:
 #endif
 #if WAST_TICS2 >= 2
    rjmp .		/* two additional tics */
 #endif
 #if ((WAST_TICS2 / 2) * 2) < WAST_TICS2
    nop			/* one additional tic */
     a8a:	00 00       	nop
 #endif

 ret
     a8c:	08 95       	ret

00000a8e <sleep_5ms>:

;/* set the processor to sleep state */
;/* wake up will be done with compare match interrupt of counter 2 */
; void sleep_5ms(uint8_t spause){
sleep_5ms:
 	ldi	r25, 0x00	;  pause = spause;
     a8e:	90 e0       	ldi	r25, 0x00	; 0
 	cpi	r24, 201
     a90:	89 3c       	cpi	r24, 0xC9	; 201
 	brcs	wloop		; if (spause > 200) 
     a92:	28 f0       	brcs	.+10     	; 0xa9e <wloop>

;// spause = 202 = 2s
;// spause = 203 = 3s
;// spause = 204 = 4s
;// spause = 205 = 5s
 	subi	r24, 0xC8	; 200 pause = (spause-200) * 200;
     a94:	88 5c       	subi	r24, 0xC8	; 200
 	ldi	r20, 0xC8	; 200
     a96:	48 ec       	ldi	r20, 0xC8	; 200
 	mul	r24, r20	; (spause-200) * 200
     a98:	84 9f       	mul	r24, r20
 	movw	r24, r0		; r24:25 = (spause-200) * 200
     a9a:	c0 01       	movw	r24, r0
 	eor	r1, r1
     a9c:	11 24       	eor	r1, r1

00000a9e <wloop>:

wloop:
 	sbiw	r24, 0x00	; 0 while (pause > 0)
     a9e:	00 97       	sbiw	r24, 0x00	; 0
 	brne	check_remain 
     aa0:	09 f4       	brne	.+2      	; 0xaa4 <check_remain>
; 	sts	TIMSK2, r1	; TIMSK2 = (0<<OCIE2B) | (0<<OCIE2A) | (0<<TOIE2); /* disable output compare match A interrupt */ 
;#endif
 	ret
     aa2:	08 95       	ret

00000aa4 <check_remain>:

check_remain:
#if (F_CPU_HZ / 400) > RESTART_DELAY_TICS
        lds	r18, TCCR1B	; if (TCCR1B & ((1<<CS12)|(1<<CS11)|(1<<CS10)) != 0) 
     aa4:	20 91 81 00 	lds	r18, 0x0081	; 0x800081 <__TEXT_REGION_LENGTH__+0x7e0081>
	andi	r18, ((1<<CS12)|(1<<CS11)|(1<<CS10))	;
     aa8:	27 70       	andi	r18, 0x07	; 7
	breq	do_sleep
     aaa:	19 f0       	breq	.+6      	; 0xab2 <do_sleep>
;  timer 1 is running, don't use sleep
	RCALL	wait5ms		; wait5ms();
     aac:	d9 df       	rcall	.-78     	; 0xa60 <wait5ms>
	sbiw	r24, 1		; pause -= 1;
     aae:	01 97       	sbiw	r24, 0x01	; 1
	rjmp	wloop
     ab0:	f6 cf       	rjmp	.-20     	; 0xa9e <wloop>

00000ab2 <do_sleep>:
do_sleep:
 	cpi	r24, 0x01	; 1
     ab2:	81 30       	cpi	r24, 0x01	; 1
 	cpc	r25, r1
     ab4:	91 05       	cpc	r25, r1
 	breq	only_one 		; if (pause > 1)
     ab6:	19 f0       	breq	.+6      	; 0xabe <only_one>
 	sbiw	r24, 0x02	; pause -= 2;
     ab8:	02 97       	sbiw	r24, 0x02	; 2
;     // Startup time is too long with 1MHz Clock!!!!
	ldi	r19, DELAY_10ms ; 	/* set to 10ms above the actual counter */
     aba:	3c e8       	ldi	r19, 0x8C	; 140
 	rjmp	set_cntr 
     abc:	03 c0       	rjmp	.+6      	; 0xac4 <set_cntr>

00000abe <only_one>:

only_one:
	ldi	r19, DELAY_5ms	; 	/* set to 5ms above the actual counter */
     abe:	3e e3       	ldi	r19, 0x3E	; 62
 	ldi	r24, 0x00	;  pause = 0;
     ac0:	80 e0       	ldi	r24, 0x00	; 0
 	ldi	r25, 0x00	; 0
     ac2:	90 e0       	ldi	r25, 0x00	; 0

00000ac4 <set_cntr>:
   
set_cntr:
 	lds	r18, TCNT2
     ac4:	20 91 b2 00 	lds	r18, 0x00B2	; 0x8000b2 <__TEXT_REGION_LENGTH__+0x7e00b2>
 	add	r18, r19	; + t2_offset
     ac8:	23 0f       	add	r18, r19
 	sts	OCR2A, r18	; OCR2A = TCNT2 + t2_offset;	/* set the compare value */
     aca:	20 93 b3 00 	sts	0x00B3, r18	; 0x8000b3 <__TEXT_REGION_LENGTH__+0x7e00b3>
 	ldi	r20, ((0<<OCIE2B) | (1<<OCIE2A) | (0<<TOIE2)); /* enable output compare match A interrupt */ 
     ace:	42 e0       	ldi	r20, 0x02	; 2
 	sts	TIMSK2, r20	; TIMSK2 = (0<<OCIE2B) | (1<<OCIE2A) | (0<<TOIE2); /* enable output compare match A interrupt */ 
     ad0:	40 93 70 00 	sts	0x0070, r20	; 0x800070 <__TEXT_REGION_LENGTH__+0x7e0070>

;;	ldi	r18, (1 << SM1) | (1 << SM0) | (0 << SE); set_sleep_mode(SLEEP_MODE_PWR_SAVE)
;;	out	_SFR_IO_ADDR(SMCR), r18;        /*  SMCR = (1 <<SM1) | (1 << SM0) | (0 << SE); */
	ldi	r18, (1 << SM1) | (1 << SM0) | (1 << SE);
     ad4:	27 e0       	ldi	r18, 0x07	; 7
	out	_SFR_IO_ADDR(SMCR), r18;        /*  SMCR = (1 <<SM1) | (1 << SM0) | (1 << SE); */
     ad6:	23 bf       	out	0x33, r18	; 51
	sleep			;
     ad8:	88 95       	sleep
; // wake up after output compare match interrupt
	ldi	r18, (1 << SM1) | (1 << SM0) | (0 << SE);
     ada:	26 e0       	ldi	r18, 0x06	; 6
	out	_SFR_IO_ADDR(SMCR), r18;        /*  SMCR = (1 << SM0) | (0 << SE); */
     adc:	23 bf       	out	0x33, r18	; 51
 	sts	TIMSK2, r1	; TIMSK2 = (0<<OCIE2B) | (0<<OCIE2A) | (0<<TOIE2); /* disable output compare match A interrupt */ 
     ade:	10 92 70 00 	sts	0x0070, r1	; 0x800070 <__TEXT_REGION_LENGTH__+0x7e0070>
 	wdr			; wdt_reset();
     ae2:	a8 95       	wdr
#else
;    // restart delay ist too long, use normal delay of 5ms
	RCALL	wait5ms		; wait5ms();	// wait5ms includes wdt_reset()
	sbiw	r24, 1		; pause -= 1;
#endif
 	rjmp	wloop 
     ae4:	dc cf       	rjmp	.-72     	; 0xa9e <wloop>

00000ae6 <W20msReadADC>:
W5msReadADC:
	ACALL wait5ms;
			;// runs directly to ReadADC, this will replace "ACALL ReadADC + ret"
#else
W20msReadADC:
	push	r24;
     ae6:	8f 93       	push	r24
	ldi	r24, 4;		/* 4 * 5ms */
     ae8:	84 e0       	ldi	r24, 0x04	; 4
	RCALL	sleep_5ms;
     aea:	d1 df       	rcall	.-94     	; 0xa8e <sleep_5ms>
	rjmp   to_read;
     aec:	07 c0       	rjmp	.+14     	; 0xafc <to_read>

00000aee <W10msReadADC>:
W10msReadADC:
	push	r24;
     aee:	8f 93       	push	r24
	ldi	r24, 2;		/* 2 * 5ms */
     af0:	82 e0       	ldi	r24, 0x02	; 2
	RCALL	sleep_5ms;
     af2:	cd df       	rcall	.-102    	; 0xa8e <sleep_5ms>
	rjmp   to_read;
     af4:	03 c0       	rjmp	.+6      	; 0xafc <to_read>

00000af6 <W5msReadADC>:
W5msReadADC:
	push	r24;
     af6:	8f 93       	push	r24
	ldi	r24, 1;		/* 1 * 5ms */
     af8:	81 e0       	ldi	r24, 0x01	; 1
	RCALL	sleep_5ms;
     afa:	c9 df       	rcall	.-110    	; 0xa8e <sleep_5ms>

00000afc <to_read>:

to_read:
	pop	r24;
     afc:	8f 91       	pop	r24

00000afe <ReadADC>:

;unsigned int ReadADC(uint8_t Probe) 
ReadADC:
;  //returns result of ADC port Probe scaled to mV resolution (unsigned int)
;  unsigned long Value;
	push	r17;
     afe:	1f 93       	push	r17
; unsigned int U; /* return value (mV) */
; uint8_t Samples; /* loop counter */
; unsigned long Value; /* ADC value */
	mov	r17, r24;	Probe
     b00:	18 2f       	mov	r17, r24
	ori	r17, (1 << REFS0)	; Probe |= (1 << REFS0); /* use internal reference anyway */
     b02:	10 64       	ori	r17, 0x40	; 64

00000b04 <get_sample>:
get_sample:
        AOUT	ADMUX, r17		; ADMUX = Probe; /* set input channel and U reference */
     b04:	10 93 7c 00 	sts	0x007C, r17	; 0x80007c <__TEXT_REGION_LENGTH__+0x7e007c>
#ifdef AUTOSCALE_ADC
 /* if voltage reference changed run a dummy conversion */
	mov	r30, r17;
     b08:	e1 2f       	mov	r30, r17
       	andi	r30, (1 << REFS1)	; Samples = Probe & (1 << REFS1); /* get REFS1 bit flag */
     b0a:	e0 78       	andi	r30, 0x80	; 128
	lds	r24, ADCconfig+RefFlag	;
     b0c:	80 91 2c 01 	lds	r24, 0x012C	; 0x80012c <ADCconfig+0x1>
       	cp	r30, r24;
     b10:	e8 17       	cp	r30, r24
       	breq	no_ref_change			; if (Samples != ADCconfig.RefFlag) 
     b12:	59 f0       	breq	.+22     	; 0xb2a <no_ref_change>
	sts	ADCconfig+RefFlag, r30	; ADCconfig.RefFlag = Samples; /* update flag */
     b14:	e0 93 2c 01 	sts	0x012C, r30	; 0x80012c <ADCconfig+0x1>
 #ifdef NO_AREF_CAP
	RCALL	wait100us		; wait100us(); /* time for voltage stabilization */
     b18:	ad df       	rcall	.-166    	; 0xa74 <wait100us>
  #else
	ldi	r24, 2			; /* 2 * 5ms */
	RCALL	sleep_5ms		; wait_about10ms()
  #endif
 #endif		/* end NO_AREF_CAP */
	StartADCwait                    ; // allways do one dummy read of ADC, 112us
     b1a:	8f e9       	ldi	r24, 0x9F	; 159
     b1c:	80 93 7a 00 	sts	0x007A, r24	; 0x80007a <__TEXT_REGION_LENGTH__+0x7e007a>
     b20:	83 e0       	ldi	r24, 0x03	; 3
     b22:	83 bf       	out	0x33, r24	; 51
     b24:	88 95       	sleep
     b26:	82 e0       	ldi	r24, 0x02	; 2
     b28:	83 bf       	out	0x33, r24	; 51

00000b2a <no_ref_change>:
#endif		/* end AUTOSCALE_ADC */

;unsigned int ReadADC (uint8_t Probe) {
no_ref_change:
 /* * sample ADC readings */
	ldi	r18, 0x00;	 Value = 0UL; /* reset sampling variable */
     b2a:	20 e0       	ldi	r18, 0x00	; 0
	ldi	r19, 0x00; 
     b2c:	30 e0       	ldi	r19, 0x00	; 0
	movw	r20, r18;
     b2e:	a9 01       	movw	r20, r18
	ldi	r30, 0x00;	 Samples = 0; /* number of samples to take */
     b30:	e0 e0       	ldi	r30, 0x00	; 0
	rjmp	r2ae8 ;
     b32:	1f c0       	rjmp	.+62     	; 0xb72 <r2ae8>

00000b34 <Loop>:
; while (Samples < ADCconfig.Samples) /* take samples */ 
Loop:
	StartADCwait                    /* start ADC and wait */
     b34:	8f e9       	ldi	r24, 0x9F	; 159
     b36:	80 93 7a 00 	sts	0x007A, r24	; 0x80007a <__TEXT_REGION_LENGTH__+0x7e007a>
     b3a:	83 e0       	ldi	r24, 0x03	; 3
     b3c:	83 bf       	out	0x33, r24	; 51
     b3e:	88 95       	sleep
     b40:	82 e0       	ldi	r24, 0x02	; 2
     b42:	83 bf       	out	0x33, r24	; 51

	lds	r22, ADCL;     Value += ADCW; /* add ADC reading */
     b44:	60 91 78 00 	lds	r22, 0x0078	; 0x800078 <__TEXT_REGION_LENGTH__+0x7e0078>
	lds	r23, ADCH;
     b48:	70 91 79 00 	lds	r23, 0x0079	; 0x800079 <__TEXT_REGION_LENGTH__+0x7e0079>
	add	r18, r22;
     b4c:	26 0f       	add	r18, r22
	adc	r19, r23;
     b4e:	37 1f       	adc	r19, r23
	adc	r20, r1;
     b50:	41 1d       	adc	r20, r1
	adc	r21, r1;
     b52:	51 1d       	adc	r21, r1
#ifdef AUTOSCALE_ADC
;    /* auto-switch voltage reference for low readings */
;    if ((Samples == 4) && (ADCconfig.U_Bandgap > 255) && ((uint16_t)Value < 1024) && !(Probe & (1 << REFS1))) {
	cpi	r30, 0x04;	Samples == 4
     b54:	e4 30       	cpi	r30, 0x04	; 4
	brne	cnt_next		; if ((Samples == 4) && 
     b56:	61 f4       	brne	.+24     	; 0xb70 <cnt_next>
	lds	r24, ADCconfig+3;
     b58:	80 91 2e 01 	lds	r24, 0x012E	; 0x80012e <ADCconfig+0x3>
        cpi	r24,0;
     b5c:	80 30       	cpi	r24, 0x00	; 0
        breq	cnt_next		; if ( && (ADCconfig.U_Bandgap > 255) )
     b5e:	41 f0       	breq	.+16     	; 0xb70 <cnt_next>
       	ldi	r24, hi8(1024)		; Value < 1024
     b60:	84 e0       	ldi	r24, 0x04	; 4
	cpi	r18, lo8(1024)
     b62:	20 30       	cpi	r18, 0x00	; 0
	cpc	r19, r24;
     b64:	38 07       	cpc	r19, r24
	brcc	cnt_next		; if ( &&  && ((uint16_t)Value < 1024) )
     b66:	20 f4       	brcc	.+8      	; 0xb70 <cnt_next>
	sbrc	r17, REFS1;
     b68:	17 fd       	sbrc	r17, 7
	rjmp	cnt_next		; if ( &&  &&  && !(Probe & (1 << REFS1))) 
     b6a:	02 c0       	rjmp	.+4      	; 0xb70 <cnt_next>
	ori	r17, (1 << REFS1);   Probe |= (1 << REFS1); /* select internal bandgap reference */
     b6c:	10 68       	ori	r17, 0x80	; 128
 #if (PROCESSOR_TYP == 644) || (PROCESSOR_TYP == 1280)
	cbr	r17, (1<<REFS0); Probe &= ~(1 << REFS0);  /* ATmega640/1280/2560 1.1V Reference with REFS0=0 */
 #endif
	rjmp	get_sample ;       goto get_sample; /* re-run sampling */
     b6e:	ca cf       	rjmp	.-108    	; 0xb04 <get_sample>

00000b70 <cnt_next>:
#endif		/* end AUTOSCALE_ADC */
cnt_next:
	subi	r30, 0xFF;	  Samples++; /* one more done */
     b70:	ef 5f       	subi	r30, 0xFF	; 255

00000b72 <r2ae8>:
r2ae8:
	lds	r24, ADCconfig+Samples;
     b72:	80 91 2b 01 	lds	r24, 0x012B	; 0x80012b <ADCconfig>
	cp	r30, r24		; while (Samples < ADCconfig.Samples) /* take samples */ 
     b76:	e8 17       	cp	r30, r24
	brcs	Loop ;
     b78:	e8 f2       	brcs	.-70     	; 0xb34 <Loop>
	lds	r22, ADCconfig+U_AVCC		; U = ADCconfig.U_AVCC; /* Vcc reference */
     b7a:	60 91 2f 01 	lds	r22, 0x012F	; 0x80012f <ADCconfig+0x4>
       	lds	r23, ADCconfig+U_AVCC+1;
     b7e:	70 91 30 01 	lds	r23, 0x0130	; 0x800130 <ADCconfig+0x5>
#ifdef AUTOSCALE_ADC
; /* * convert ADC reading to voltage * - single sample: U = ADC reading * U_ref / 1024 */
; /* get voltage of reference used */
	sbrs	r17, REFS1			; if (Probe & (1 << REFS1))
     b82:	17 ff       	sbrs	r17, 7
	rjmp	r2b02 ;
     b84:	04 c0       	rjmp	.+8      	; 0xb8e <r2b02>
	lds	r22, ADCconfig+U_Bandgap	; U = ADCconfig.U_Bandgap; /* bandgap reference */
     b86:	60 91 2d 01 	lds	r22, 0x012D	; 0x80012d <ADCconfig+0x2>
	lds	r23, ADCconfig+U_Bandgap+1;
     b8a:	70 91 2e 01 	lds	r23, 0x012E	; 0x80012e <ADCconfig+0x3>

00000b8e <r2b02>:
#endif		/* end AUTOSCALE_ADC */
; /* convert to voltage; */
r2b02:
	ldi	r24, 0x00			; Value *= U; /* ADC readings * U_ref */
     b8e:	80 e0       	ldi	r24, 0x00	; 0
	ldi	r25, 0x00; 0
     b90:	90 e0       	ldi	r25, 0x00	; 0
	ACALL	__mulsi3;			; sum(ADCreads) * ADC_reference
     b92:	0e 94 9e 32 	call	0x653c	; 0x653c <__mulsi3>
	ldi	r18, lo8(1023)			; Value /= 1023; /* / 1024 for 10bit ADC */
     b96:	2f ef       	ldi	r18, 0xFF	; 255
	ldi	r19, hi8(1023);
     b98:	33 e0       	ldi	r19, 0x03	; 3
	ldi	r20, 0x00; 0
     b9a:	40 e0       	ldi	r20, 0x00	; 0
	ldi	r21, 0x00; 0
     b9c:	50 e0       	ldi	r21, 0x00	; 0
	ACALL	__udivmodsi4;			R22-25 / R18-21
     b9e:	0e 94 e0 32 	call	0x65c0	; 0x65c0 <__udivmodsi4>
	movw	r22, r18;
     ba2:	b9 01       	movw	r22, r18
	movw	r24, r20;
     ba4:	ca 01       	movw	r24, r20
; /* de-sample to get average voltage */
	lds	r18,ADCconfig+Samples			; Value /= ADCconfig.Samples;
     ba6:	20 91 2b 01 	lds	r18, 0x012B	; 0x80012b <ADCconfig>
	ldi	r19, 0x00; 0
     baa:	30 e0       	ldi	r19, 0x00	; 0
	ldi	r20, 0x00; 0
     bac:	40 e0       	ldi	r20, 0x00	; 0
	ldi	r21, 0x00; 0
     bae:	50 e0       	ldi	r21, 0x00	; 0
	ACALL	__udivmodsi4;			R22-25 / R18-21
     bb0:	0e 94 e0 32 	call	0x65c0	; 0x65c0 <__udivmodsi4>
	movw	r24, r18			;;//   return ((unsigned int)(Value / (1023 * (unsigned long)ADCconfig.Samples)));
     bb4:	c9 01       	movw	r24, r18
	pop	r17;
     bb6:	1f 91       	pop	r17
    	ret;
     bb8:	08 95       	ret

00000bba <abs_diff>:
 .endfunc

.func abs_diff
.GLOBAL abs_diff
abs_diff:
	movw	r18, r22
     bba:	9b 01       	movw	r18, r22
        sub	r18, r24
     bbc:	28 1b       	sub	r18, r24
	sbc	r19, r25
     bbe:	39 0b       	sbc	r19, r25
	brcs	is_pl		; return v1-v2
     bc0:	50 f0       	brcs	.+20     	; 0xbd6 <is_pl>
	movw	r24, r18
     bc2:	c9 01       	movw	r24, r18
	ret			; return v2-v1
     bc4:	08 95       	ret

00000bc6 <vcc_diff>:

.func vcc_diff
.GLOBAL vcc_diff
; uint16_t vcc_diff(uint16_t v2)	// computes unsigned_diff(ADCconfig.U_AVCC, v2)
vcc_diff:
	movw	r22, r24
     bc6:	bc 01       	movw	r22, r24
	lds	r24, ADCconfig+U_AVCC
     bc8:	80 91 2f 01 	lds	r24, 0x012F	; 0x80012f <ADCconfig+0x4>
	lds	r25, ADCconfig+U_AVCC+1
     bcc:	90 91 30 01 	lds	r25, 0x0130	; 0x800130 <ADCconfig+0x5>

00000bd0 <unsigned_diff>:
.func unsigned_diff
.GLOBAL unsigned_diff
; uint16_t unsigned_diff(uint16_t v1, uint16_t v2)  // computes v1-v2 if positive, otherwise returns 0

unsigned_diff:
	cp	r22, r24
     bd0:	68 17       	cp	r22, r24
	cpc	r23, r25
     bd2:	79 07       	cpc	r23, r25
	brcc	no_pl
     bd4:	18 f4       	brcc	.+6      	; 0xbdc <no_pl>

00000bd6 <is_pl>:
is_pl:
	sub	r24, r22
     bd6:	86 1b       	sub	r24, r22
	sbc	r25, r23
     bd8:	97 0b       	sbc	r25, r23
	ret			; return v1-v2
     bda:	08 95       	ret

00000bdc <no_pl>:
no_pl:
	ldi	r24, 0
     bdc:	80 e0       	ldi	r24, 0x00	; 0
	ldi	r25, 0
     bde:	90 e0       	ldi	r25, 0x00	; 0
	ret	;
     be0:	08 95       	ret

00000be2 <wait_for_key_ms>:
/* wait max_time or previous key press */
/* return value: !=0 == key is pressed for x*10ms, 0 == no key pressed, time has expired */
/* Additionally the movement of rotary encoder is monitored, if */
/* the constant WITH_ROTARY_SWITCH is defined.                  */
/* *********************************************************** */
uint8_t wait_for_key_ms(int max_time) {
     be2:	ef 92       	push	r14
     be4:	ff 92       	push	r15
     be6:	0f 93       	push	r16
     be8:	1f 93       	push	r17
     bea:	cf 93       	push	r28
     bec:	df 93       	push	r29
     bee:	f8 2e       	mov	r15, r24
     bf0:	e9 2e       	mov	r14, r25
     bf2:	c5 e6       	ldi	r28, 0x65	; 101
        if ((RST_PIN_REG & (1<<RST_PIN)) != 0)  break; // key is released
        WaitRotary();		// wait the predefined time
     }
     if (ww < WWend) break;
#else
     if ((RST_PIN_REG & (1<<RST_PIN)) != 0)  break; // key is released
     bf4:	4f 9b       	sbis	0x09, 7	; 9
     bf6:	05 c0       	rjmp	.+10     	; 0xc02 <wait_for_key_ms+0x20>
     }
     wdt_reset();
//     wait_time++;
     if (count_time > 0) {		// count only, if counter > 0
        count_time -= 10;		// 10 ms are done, count down
        if (count_time == 0) count_time = -1;	// never count to zero, zero is endless!
     bf8:	cf 2d       	mov	r28, r15
     bfa:	de 2d       	mov	r29, r14
     bfc:	15 e5       	ldi	r17, 0x55	; 85
     bfe:	00 e0       	ldi	r16, 0x00	; 0
     c00:	19 c0       	rjmp	.+50     	; 0xc34 <wait_for_key_ms+0x52>
        WaitRotary();		// wait the predefined time
     }
     if (ww < WWend) break;
#else
     if ((RST_PIN_REG & (1<<RST_PIN)) != 0)  break; // key is released
     wait_about5ms();		// wait 5 ms (sleep)
     c02:	81 e0       	ldi	r24, 0x01	; 1
     c04:	44 df       	rcall	.-376    	; 0xa8e <sleep_5ms>
     c06:	c1 50       	subi	r28, 0x01	; 1
  rotary.state[(rotary.ind+ROT_MSK-2)&ROT_MSK] = ' ' - '0';  // for debugging
 #endif
#endif

  kk = 100;
  while (kk >= 0)  { /* wait up to 500ms until key is released */
     c08:	a9 f7       	brne	.-22     	; 0xbf4 <wait_for_key_ms+0x12>
     c0a:	f6 cf       	rjmp	.-20     	; 0xbf8 <wait_for_key_ms+0x16>
     for (ww=0; ww < (WWend*2) ;ww++) {
        check_rotary();		// check for change of switch state of the rotary encoder
        WaitRotary();		// wait the predefined time, total 10ms
     }
#else
     wait_about10ms();
     c0c:	82 e0       	ldi	r24, 0x02	; 2
     c0e:	3f df       	rcall	.-386    	; 0xa8e <sleep_5ms>
#endif
     key_pressed += key_pressed;	// multiply with 2 is shift to left
     c10:	11 0f       	add	r17, r17
     if ((RST_PIN_REG & (1<<RST_PIN)) == 0) key_pressed++; // append a 1
     c12:	4f 9b       	sbis	0x09, 7	; 9
     c14:	1f 5f       	subi	r17, 0xFF	; 255
     key_pressed &= 0x3f;
     c16:	1f 73       	andi	r17, 0x3F	; 63
     if(key_pressed == 0x3f) {
     c18:	1f 33       	cpi	r17, 0x3F	; 63
     c1a:	79 f4       	brne	.+30     	; 0xc3a <wait_for_key_ms+0x58>
        // If the key is pressed again... 
        if (key_cs == 0) {
     c1c:	01 11       	cpse	r16, r1
     c1e:	03 c0       	rjmp	.+6      	; 0xc26 <wait_for_key_ms+0x44>
           // first time, when key down is detected
           key_cs = 4;	// must be 7 times for 10ms hold down
           count_time = max_time;	// begin new time period
     c20:	cf 2d       	mov	r28, r15
     c22:	de 2d       	mov	r29, r14
     key_pressed &= 0x3f;
     if(key_pressed == 0x3f) {
        // If the key is pressed again... 
        if (key_cs == 0) {
           // first time, when key down is detected
           key_cs = 4;	// must be 7 times for 10ms hold down
     c24:	04 e0       	ldi	r16, 0x04	; 4
           count_time = max_time;	// begin new time period
        }
        key_cs++;			// count the time, the key is hold down
     c26:	0f 5f       	subi	r16, 0xFF	; 255
        if (key_cs >= MAX_CS) break;
     c28:	08 3c       	cpi	r16, 0xC8	; 200
     c2a:	88 f4       	brcc	.+34     	; 0xc4e <wait_for_key_ms+0x6c>
     } else {
        // key_pressed is zero, if the key is not pressed for 80 ms
        if ((key_pressed == 0) && (key_cs != 0)) break;	// return, if key is released again
     }
     wdt_reset();
     c2c:	a8 95       	wdr
//     wait_time++;
     if (count_time > 0) {		// count only, if counter > 0
     c2e:	1c 16       	cp	r1, r28
     c30:	1d 06       	cpc	r1, r29
     c32:	44 f0       	brlt	.+16     	; 0xc44 <wait_for_key_ms+0x62>
  key_pressed = 0x55;
  count_time = max_time;
#ifdef WITH_ROTARY_SWITCH
  wait_time = 0;
#endif
  while (count_time >= 0) {
     c34:	d7 ff       	sbrs	r29, 7
     c36:	ea cf       	rjmp	.-44     	; 0xc0c <wait_for_key_ms+0x2a>
     c38:	0a c0       	rjmp	.+20     	; 0xc4e <wait_for_key_ms+0x6c>
        }
        key_cs++;			// count the time, the key is hold down
        if (key_cs >= MAX_CS) break;
     } else {
        // key_pressed is zero, if the key is not pressed for 80 ms
        if ((key_pressed == 0) && (key_cs != 0)) break;	// return, if key is released again
     c3a:	11 11       	cpse	r17, r1
     c3c:	f7 cf       	rjmp	.-18     	; 0xc2c <wait_for_key_ms+0x4a>
     c3e:	00 23       	and	r16, r16
     c40:	a9 f3       	breq	.-22     	; 0xc2c <wait_for_key_ms+0x4a>
     c42:	05 c0       	rjmp	.+10     	; 0xc4e <wait_for_key_ms+0x6c>
     }
     wdt_reset();
//     wait_time++;
     if (count_time > 0) {		// count only, if counter > 0
        count_time -= 10;		// 10 ms are done, count down
     c44:	2a 97       	sbiw	r28, 0x0a	; 10
        if (count_time == 0) count_time = -1;	// never count to zero, zero is endless!
     c46:	b1 f7       	brne	.-20     	; 0xc34 <wait_for_key_ms+0x52>
     c48:	cf ef       	ldi	r28, 0xFF	; 255
     c4a:	df ef       	ldi	r29, 0xFF	; 255
     c4c:	f3 cf       	rjmp	.-26     	; 0xc34 <wait_for_key_ms+0x52>
     if ((wait_time > 20) && (rotary.count != 0)) break;
     if (wait_time > 20) wait_time = 0;		// reset time window
#endif
  } /* end while (count_time >= 0) */
 return(key_cs);		// return period key is pressed within the specified time
}  /* end wait_for_key_5ms(  ) */
     c4e:	80 2f       	mov	r24, r16
     c50:	cd b7       	in	r28, 0x3d	; 61
     c52:	de b7       	in	r29, 0x3e	; 62
     c54:	e6 e0       	ldi	r30, 0x06	; 6
     c56:	0c 94 f0 33 	jmp	0x67e0	; 0x67e0 <__epilogue_restores__+0x18>

00000c5a <wait_for_key_5s_line2>:
/* wait 5 seconds or previous key press, then clear last line  of LCD and */
/* set the cursor to the beginning of last line */
/* *********************************************************** */
void wait_for_key_5s_line2(void) {
  uint8_t current_line;
  current_line = lcd_save_position();
     c5a:	cf 93       	push	r28
     c5c:	a0 db       	rcall	.-2240   	; 0x39e <lcd_save_position>
     c5e:	c8 2f       	mov	r28, r24
  if (last_line_used != 0) {
     c60:	80 91 3e 01 	lds	r24, 0x013E	; 0x80013e <last_line_used>
     c64:	88 23       	and	r24, r24
     c66:	c1 f0       	breq	.+48     	; 0xc98 <wait_for_key_5s_line2+0x3e>
  if ((last_line_used == 1) && (current_line == (LCD_LINES-1))) {
     c68:	81 30       	cpi	r24, 0x01	; 1
     c6a:	49 f4       	brne	.+18     	; 0xc7e <wait_for_key_5s_line2+0x24>
     c6c:	c1 30       	cpi	r28, 0x01	; 1
     // add a + sign at the last location of screen
     lcd_set_cursor(((LCD_LINES - 1) * PAGES_PER_LINE), (LCD_LINE_LENGTH - 1));
     c6e:	39 f4       	brne	.+14     	; 0xc7e <wait_for_key_5s_line2+0x24>
     c70:	6f e0       	ldi	r22, 0x0F	; 15
     lcd_data('+');
     c72:	eb db       	rcall	.-2090   	; 0x44a <lcd_set_cursor>
     c74:	8b e2       	ldi	r24, 0x2B	; 43
     lcd_set_cursor(((LCD_LINES - 1) * PAGES_PER_LINE), (LCD_LINE_LENGTH - 1));
     c76:	9c db       	rcall	.-2248   	; 0x3b0 <lcd_data>
     c78:	6f e0       	ldi	r22, 0x0F	; 15
     c7a:	81 e0       	ldi	r24, 0x01	; 1
  do {
     if (wait_for_key_ms(SHORT_WAIT_TIME) > 0) break;
     // continue waiting, if the key is not pressed, but rotary switch is rotated
  } while (rotary.incre > 0);
 #else
  wait_for_key_ms(SHORT_WAIT_TIME);	// wait until time is elapsed or key is pressed
     c7c:	e6 db       	rcall	.-2100   	; 0x44a <lcd_set_cursor>
     c7e:	80 e4       	ldi	r24, 0x40	; 64
     c80:	9f e1       	ldi	r25, 0x1F	; 31
     c82:	af df       	rcall	.-162    	; 0xbe2 <wait_for_key_ms>
 #endif
  if ((current_line == (LCD_LINES - 1)) && (last_line_used == 1)) {
     c84:	c1 30       	cpi	r28, 0x01	; 1
     c86:	39 f4       	brne	.+14     	; 0xc96 <wait_for_key_5s_line2+0x3c>
     c88:	80 91 3e 01 	lds	r24, 0x013E	; 0x80013e <last_line_used>
     lcd_set_cursor((LCD_LINES-1) * PAGES_PER_LINE,0);
     c8c:	81 30       	cpi	r24, 0x01	; 1
     c8e:	19 f4       	brne	.+6      	; 0xc96 <wait_for_key_5s_line2+0x3c>
     c90:	60 e0       	ldi	r22, 0x00	; 0
     lcd_clear_line();		// clear the whole line
     c92:	db db       	rcall	.-2122   	; 0x44a <lcd_set_cursor>
     c94:	8d dc       	rcall	.-1766   	; 0x5b0 <lcd_clear_line>
  }
  lcd_restore_position();
     c96:	e3 db       	rcall	.-2106   	; 0x45e <lcd_restore_position>
     c98:	cf 91       	pop	r28
  }  /* end if last_line_used */
}  /* end wait_for_key_5s_line2() */
     c9a:	08 95       	ret

00000c9c <RefVoltage>:
 

RefVoltage:

#ifdef AUTO_CAL
 	ldi	r24, lo8(ref_offset)	; 1
     c9c:	8b e2       	ldi	r24, 0x2B	; 43
 	ldi	r25, hi8(ref_offset)	; 0
     c9e:	93 e0       	ldi	r25, 0x03	; 3
;; 	ACALL	eeprom_read_word	; eeprom_read_word((uint16_t *)(&ref_offset));
;; 	lds	r18, ref_mv
;; 	lds	r19, ref_mv+1
;; 	add	r18, r24		; referenz =  ref_mv +
;; 	adc	r19, r25
	ACALL	eeprom_read_byte	; eeprom_read_word((uint16_t *)(&ref_offset)); done as two read_byte
     ca0:	0e 94 5b 34 	call	0x68b6	; 0x68b6 <eeprom_read_byte>
	mov	r19, r24
     ca4:	38 2f       	mov	r19, r24
	ldi	r24, lo8(ref_offset+1)
     ca6:	8c e2       	ldi	r24, 0x2C	; 44
	ldi	r25, hi8(ref_offset+1)
     ca8:	93 e0       	ldi	r25, 0x03	; 3
	ACALL	eeprom_read_byte
     caa:	0e 94 5b 34 	call	0x68b6	; 0x68b6 <eeprom_read_byte>
 	lds	r18, ref_mv
     cae:	20 91 33 01 	lds	r18, 0x0133	; 0x800133 <ref_mv>
	add	r18, r19
     cb2:	23 0f       	add	r18, r19
 	lds	r19, ref_mv+1
     cb4:	30 91 34 01 	lds	r19, 0x0134	; 0x800134 <ref_mv+0x1>
	adc	r19, r24
     cb8:	38 1f       	adc	r19, r24
	lds	r18, ref_mv
	lds	r19, ref_mv+1
	subi	r18, -REF_C_KORR		; referenz = ref_mv + REF_C_KORR;
	adc	r19, zero_reg
#endif
        sts	ref_mv_offs, r18
     cba:	20 93 16 01 	sts	0x0116, r18	; 0x800116 <ref_mv_offs>
        sts	ref_mv_offs+1, r19
     cbe:	30 93 17 01 	sts	0x0117, r19	; 0x800117 <ref_mv_offs+0x1>

#ifdef AUTO_RH 
 	ldi	r24, hi8(Ref_Tab_Beginn)	; 3
     cc2:	83 e0       	ldi	r24, 0x03	; 3
 	cpi	r18, lo8(Ref_Tab_Beginn)	; 232
     cc4:	28 3e       	cpi	r18, 0xE8	; 232
 	cpc	r19, r24
     cc6:	38 07       	cpc	r19, r24
 	brcs	ad210e 				; if (referenz >= Ref_Tab_Beginn) 
     cc8:	20 f0       	brcs	.+8      	; 0xcd2 <ad210e>
 	movw	r24, r18
     cca:	c9 01       	movw	r24, r18
 	subi	r24, lo8(Ref_Tab_Beginn)	; 232 referenz -= Ref_Tab_Beginn;
     ccc:	88 5e       	subi	r24, 0xE8	; 232
 	sbci	r25, hi8(Ref_Tab_Beginn)	; 3
     cce:	93 40       	sbci	r25, 0x03	; 3
 	rjmp	ad2112 
     cd0:	02 c0       	rjmp	.+4      	; 0xcd6 <ad2112>

00000cd2 <ad210e>:
ad210e:
 	ldi	r24, 0x00	; referenz = 0;		// limit to begin of table
     cd2:	80 e0       	ldi	r24, 0x00	; 0
 	ldi	r25, 0x00	; 0
     cd4:	90 e0       	ldi	r25, 0x00	; 0

00000cd6 <ad2112>:
ad2112:
 	ldi	r22, lo8(Ref_Tab_Abstand)	; 50 tabind = referenz / Ref_Tab_Abstand;
     cd6:	62 e3       	ldi	r22, 0x32	; 50
 	ldi	r23, hi8(Ref_Tab_Abstand)	; 0
     cd8:	70 e0       	ldi	r23, 0x00	; 0
 	ACALL	__udivmodhi4
     cda:	0e 94 b9 32 	call	0x6572	; 0x6572 <__udivmodhi4>
;  r22 = tabind = referenz / Ref_Tab_Abstand;
;  r24 =  tabres = referenz % Ref_Tab_Abstand;
 	cpi	r22, 0x08	; if (tabind > 7) 
     cde:	68 30       	cpi	r22, 0x08	; 8
 	brcs	ad2120 
     ce0:	08 f0       	brcs	.+2      	; 0xce4 <ad2120>
 	ldi	r22, 0x07	; tabind = 7;		// limit to end of table
     ce2:	67 e0       	ldi	r22, 0x07	; 7

00000ce4 <ad2120>:
ad2120:
; // interpolate the table of factors

	LDIZ	RHtab
     ce4:	e3 ea       	ldi	r30, 0xA3	; 163
     ce6:	f2 e0       	ldi	r31, 0x02	; 2
	add	r30, r22
     ce8:	e6 0f       	add	r30, r22
	adc	r31, zero_reg
     cea:	f1 1d       	adc	r31, r1
	add	r30, r22
     cec:	e6 0f       	add	r30, r22
	adc	r31, zero_reg
     cee:	f1 1d       	adc	r31, r1

 	lpm	r20, Z+		; y1 = pgm_read_word(&RHtab[tabind]);
     cf0:	45 91       	lpm	r20, Z+
 	lpm	r21, Z+
     cf2:	55 91       	lpm	r21, Z+
 	lpm	r18, Z+		; y2 = pgm_read_word(&RHtab[tabind+1]);
     cf4:	25 91       	lpm	r18, Z+
 	lpm	r19, Z+
     cf6:	35 91       	lpm	r19, Z+
 	ldi	r22, Ref_Tab_Abstand	; 50
     cf8:	62 e3       	ldi	r22, 0x32	; 50
 	sub	r22, r24		; tabres = Ref_Tab_Abstand-tabres;
     cfa:	68 1b       	sub	r22, r24
;  // interpolate the table of factors
;  // RHmultip is the interpolated factor to compute capacity from load time with 470k
;; 	ldi	r23, 0x00	; 0
 	sub	r20, r18	; y1 - y2
     cfc:	42 1b       	sub	r20, r18
 #if FLASHEND > 0x1fff
	sbc	r21, r19	; hi8(y1 - y2) is usually allway zero
     cfe:	53 0b       	sbc	r21, r19
 #endif
 	mul	r22, r20	; lo8(tabres) * lo8(y1-y2)
     d00:	64 9f       	mul	r22, r20
 	movw	r24, r0		; r24:25 = *
     d02:	c0 01       	movw	r24, r0
 #if FLASHEND > 0x1fff
 	mul	r22, r21	; lo8(tabres) * hi8(y1-y2)
     d04:	65 9f       	mul	r22, r21
 	add	r25, r0		; r25 + lo8(*)
     d06:	90 0d       	add	r25, r0
 #endif
;; 	mul	r23, r20	; hi8(tabres) * lo8(y1*y2) , allways zero
;; 	add	r25, r0		; r25 + lo8(*)

 	eor	r1, r1
     d08:	11 24       	eor	r1, r1
 	adiw	r24, (Ref_Tab_Abstand/2)	; 25
     d0a:	49 96       	adiw	r24, 0x19	; 25
 	ldi	r22, lo8(Ref_Tab_Abstand)	; 50
     d0c:	62 e3       	ldi	r22, 0x32	; 50
 	ldi	r23, hi8(Ref_Tab_Abstand)	; 0
     d0e:	70 e0       	ldi	r23, 0x00	; 0
 	ACALL	__udivmodhi4	; ((y1 - y2) * tabres + (Ref_Tab_Abstand/2)) / Ref_Tab_Abstand 
     d10:	0e 94 b9 32 	call	0x6572	; 0x6572 <__udivmodhi4>
 	add	r22, r18	; + y2
     d14:	62 0f       	add	r22, r18
 	adc	r23, r19
     d16:	73 1f       	adc	r23, r19
 	sts	RHmultip+1, r23
     d18:	70 93 72 01 	sts	0x0172, r23	; 0x800172 <RHmultip+0x1>
 	sts	RHmultip, r22
     d1c:	60 93 71 01 	sts	0x0171, r22	; 0x800171 <RHmultip>
	ldi	r23, hi8(DEFAULT_RH_FAKT)
 	sts	RHmultip, r22
 	sts	RHmultip+1, r23
#endif 
#ifdef AUTO_CAL
	ldi	r24, lo8(RefDiff)
     d20:	8d e2       	ldi	r24, 0x2D	; 45
	ldi	r25, hi8(RefDiff)
     d22:	93 e0       	ldi	r25, 0x03	; 3
	ACALL	eeprom_read_byte	; (int8_t)eeprom_read_byte((uint8_t *)&RefDiff));
     d24:	0e 94 5b 34 	call	0x68b6	; 0x68b6 <eeprom_read_byte>
	eor	r25, r25		; set zero for sign extend
     d28:	99 27       	eor	r25, r25
        sbrc	r24, 7			; minus?
     d2a:	87 fd       	sbrc	r24, 7
	com	r25			; yes, set to 0xff
     d2c:	90 95       	com	r25
        lds	r22, ref_mv		; ADCconfig.U_Bandgap = (ref_mv + (int8_t)eeprom_read_byte((uint8_t *)&RefDiff));
     d2e:	60 91 33 01 	lds	r22, 0x0133	; 0x800133 <ref_mv>
        lds	r23, ref_mv+1
     d32:	70 91 34 01 	lds	r23, 0x0134	; 0x800134 <ref_mv+0x1>
	add	r24, r22
     d36:	86 0f       	add	r24, r22
	adc	r25, r23
     d38:	97 1f       	adc	r25, r23
        lds	r25, ref_mv+1
	add	r24, r22
        adc	r25, r23
#endif
#define U_Bandgap 2
        sts	ADCconfig+U_Bandgap+1, r25
     d3a:	90 93 2e 01 	sts	0x012E, r25	; 0x80012e <ADCconfig+0x3>
        sts	ADCconfig+U_Bandgap, r24
     d3e:	80 93 2d 01 	sts	0x012D, r24	; 0x80012d <ADCconfig+0x2>
	sts	adc_internal_reference+1, r25		; adc_internal_reference = ADCconfig.U_Bandgap;
     d42:	90 93 6e 01 	sts	0x016E, r25	; 0x80016e <adc_internal_reference+0x1>
	sts	adc_internal_reference, r24
     d46:	80 93 6d 01 	sts	0x016D, r24	; 0x80016d <adc_internal_reference>


 	ret
     d4a:	08 95       	ret

00000d4c <get_log>:
 .section .text

; // get_log interpolate a table with the function -1000*log(1 - (permil/1000))
; uint16_t get_log(uint16_t permil) {
get_log:
 	push	r28
     d4c:	cf 93       	push	r28
 	push	r29
     d4e:	df 93       	push	r29

 	ldi	r18, lo8(Log_Tab_Distance)	;0x14
     d50:	24 e1       	ldi	r18, 0x14	; 20
 	ldi	r19, hi8(Log_Tab_Distance)	;0x00	
     d52:	30 e0       	ldi	r19, 0x00	; 0
 	movw	r22, r18
     d54:	b9 01       	movw	r22, r18
 	call	__udivmodhi4		; tabind = permil / Log_Tab_Distance;	// index to table
     d56:	0e 94 b9 32 	call	0x6572	; 0x6572 <__udivmodhi4>
 	movw	r26, r24
     d5a:	dc 01       	movw	r26, r24
;  r26:27 = tabres = permil % Log_Tab_Distance;	// fraction of table distance
;  // interpolate the table of factors
;  y1 = pgm_read_word(&LogTab[tabind]);	// get the lower table value
	LDIZ	LogTab;
     d5c:	e5 eb       	ldi	r30, 0xB5	; 181
     d5e:	f2 e0       	ldi	r31, 0x02	; 2
        add	r30, r22
     d60:	e6 0f       	add	r30, r22
        adc	r31, r23
     d62:	f7 1f       	adc	r31, r23
        add	r30, r22
     d64:	e6 0f       	add	r30, r22
	adc	r31, r23	; &LogTab[tabind]
     d66:	f7 1f       	adc	r31, r23
 	lpm	r28, Z+		; y1 = pgm_read_word(&LogTab[tabind]);	// get the lower table value
     d68:	c5 91       	lpm	r28, Z+
 	lpm	r29, Z+
     d6a:	d5 91       	lpm	r29, Z+
 	lpm	r20, Z+		; y2 = pgm_read_word(&LogTab[tabind+1]); // get the higher table value
     d6c:	45 91       	lpm	r20, Z+
 	lpm	r21, Z+
     d6e:	55 91       	lpm	r21, Z+
;  result = ((y2 - y1) * tabres ) / Log_Tab_Distance + y1; // interpolate
 	sub	r20, r28	;  (y2 - y1) 
     d70:	4c 1b       	sub	r20, r28
	sbc	r21, r29	;  hi8(y2 - y1) 
     d72:	5d 0b       	sbc	r21, r29
 	mul	r20, r26	; * tabres   (maximum 19)
     d74:	4a 9f       	mul	r20, r26
 	movw	r24, r0		;  r24:25 =  ((y2 - y1) * tabres )
     d76:	c0 01       	movw	r24, r0
	mul	r20, r27	; hi8(tabres) 
     d78:	4b 9f       	mul	r20, r27
	add	r25, r0
     d7a:	90 0d       	add	r25, r0
	mul	r21, r26	; hi8(y2 - Y1) 
     d7c:	5a 9f       	mul	r21, r26
	add	r25, r0
     d7e:	90 0d       	add	r25, r0
 	eor	r1, r1
     d80:	11 24       	eor	r1, r1
 	movw	r22, r18	; Log_Tab_Distance
     d82:	b9 01       	movw	r22, r18
 	call	__udivmodhi4	;   ((y2 - y1) * tabres ) / Log_Tab_Distance
     d84:	0e 94 b9 32 	call	0x6572	; 0x6572 <__udivmodhi4>
 	add	r22, r28	;  result = ((y2 - y1) * tabres ) / Log_Tab_Distance + y1; // interpolate
     d88:	6c 0f       	add	r22, r28
 	adc	r23, r29
     d8a:	7d 1f       	adc	r23, r29
 	movw	r24, r22	; return(result);
     d8c:	cb 01       	movw	r24, r22
 	pop	r29
     d8e:	df 91       	pop	r29
 	pop	r28
     d90:	cf 91       	pop	r28
 	ret
     d92:	08 95       	ret

00000d94 <__vector_7>:
	#define MAIN_C
	#include "Transistortester.h"

	#ifndef INHIBIT_SLEEP_MODE
	  // prepare sleep mode
	  EMPTY_INTERRUPT(TIMER2_COMPA_vect);
     d94:	18 95       	reti

00000d96 <__vector_21>:
	#endif
        #if !defined(INHIBIT_SLEEP_MODE) || defined(SamplingADC)
	  // ADC_vect is always required by samplingADC()
	  EMPTY_INTERRUPT(ADC_vect);
     d96:	18 95       	reti

00000d98 <search_vak_diode>:

// function search_vak_diode try to find a diode, which has no side connected to the transistor base
// returns 20, if no diode found
uint8_t search_vak_diode() {
    uint8_t ii;
    for (ii=0; ii<NumOfDiodes; ii++) {
     d98:	30 91 18 01 	lds	r19, 0x0118	; 0x800118 <NumOfDiodes>
			if ((diodes.Anode[ii] == _trans->b)
     d9c:	a0 91 3c 01 	lds	r26, 0x013C	; 0x80013c <_trans>
     da0:	b0 91 3d 01 	lds	r27, 0x013D	; 0x80013d <_trans+0x1>
     da4:	e9 e8       	ldi	r30, 0x89	; 137
     da6:	f1 e0       	ldi	r31, 0x01	; 1

// function search_vak_diode try to find a diode, which has no side connected to the transistor base
// returns 20, if no diode found
uint8_t search_vak_diode() {
    uint8_t ii;
    for (ii=0; ii<NumOfDiodes; ii++) {
     da8:	80 e0       	ldi	r24, 0x00	; 0
     daa:	90 e0       	ldi	r25, 0x00	; 0
     dac:	83 17       	cp	r24, r19
     dae:	b0 f4       	brcc	.+44     	; 0xddc <search_vak_diode+0x44>
			if ((diodes.Anode[ii] == _trans->b)
     db0:	41 91       	ld	r20, Z+
     db2:	1c 96       	adiw	r26, 0x0c	; 12
     db4:	2c 91       	ld	r18, X
     db6:	1c 97       	sbiw	r26, 0x0c	; 12
     db8:	42 17       	cp	r20, r18
     dba:	19 f0       	breq	.+6      	; 0xdc2 <search_vak_diode+0x2a>
					|| (diodes.Cathode[ii] == _trans->b))
     dbc:	45 81       	ldd	r20, Z+5	; 0x05
     dbe:	24 13       	cpse	r18, r20
     dc0:	02 c0       	rjmp	.+4      	; 0xdc6 <search_vak_diode+0x2e>
     dc2:	01 96       	adiw	r24, 0x01	; 1
     dc4:	f3 cf       	rjmp	.-26     	; 0xdac <search_vak_diode+0x14>
				continue;
       // no side of the diode is connected to the base, this must be the protection diode   
       if (diodes.Voltage[ii] > 1000) break; // Voltage is too high for protection diode
     dc6:	fc 01       	movw	r30, r24
     dc8:	ee 0f       	add	r30, r30
     dca:	ff 1f       	adc	r31, r31
     dcc:	eb 56       	subi	r30, 0x6B	; 107
     dce:	fe 4f       	sbci	r31, 0xFE	; 254
     dd0:	20 81       	ld	r18, Z
     dd2:	31 81       	ldd	r19, Z+1	; 0x01
     dd4:	29 3e       	cpi	r18, 0xE9	; 233
     dd6:	33 40       	sbci	r19, 0x03	; 3
     dd8:	08 f4       	brcc	.+2      	; 0xddc <search_vak_diode+0x44>
     dda:	08 95       	ret
       return ii;
    }
    return 20;
     ddc:	84 e1       	ldi	r24, 0x14	; 20
}
     dde:	08 95       	ret

00000de0 <init_parts>:

/* init_parts initialize all parts to nothing found */
void init_parts(void) {
  PartFound = PART_NONE;	// no part found
     de0:	10 92 1a 01 	sts	0x011A, r1	; 0x80011a <PartFound>
  NumOfDiodes = 0;		// Number of diodes = 0
     de4:	10 92 18 01 	sts	0x0118, r1	; 0x800118 <NumOfDiodes>
  ptrans.count = 0;		// Number of found P type transistors
     de8:	10 92 68 01 	sts	0x0168, r1	; 0x800168 <ptrans+0xf>
  ntrans.count = 0;		// Number of found N type transistors
     dec:	10 92 4e 01 	sts	0x014E, r1	; 0x80014e <ntrans+0xf>
  PartMode = PART_MODE_NONE;
     df0:	10 92 19 01 	sts	0x0119, r1	; 0x800119 <PartMode>
  WithReference = 0;		// no precision reference voltage
     df4:	10 92 3a 01 	sts	0x013A, r1	; 0x80013a <WithReference>
  ResistorsFound = 0;		// no resistors found
     df8:	10 92 6f 01 	sts	0x016F, r1	; 0x80016f <ResistorsFound>
  ResistorChecked[0] = 0;
     dfc:	e3 e5       	ldi	r30, 0x53	; 83
     dfe:	f1 e0       	ldi	r31, 0x01	; 1
     e00:	10 82       	st	Z, r1
  ResistorChecked[1] = 0;
     e02:	11 82       	std	Z+1, r1	; 0x01
  ResistorChecked[2] = 0;
     e04:	12 82       	std	Z+2, r1	; 0x02
  cap.ca = TP1;
     e06:	e3 e7       	ldi	r30, 0x73	; 115
     e08:	f1 e0       	ldi	r31, 0x01	; 1
     e0a:	10 8a       	std	Z+16, r1	; 0x10
  cap.cb = TP3;
     e0c:	82 e0       	ldi	r24, 0x02	; 2
     e0e:	81 8b       	std	Z+17, r24	; 0x11
#if FLASHEND > 0x1fff
  inductor_lpre = 0;		// mark as zero
     e10:	10 92 01 01 	sts	0x0101, r1	; 0x800101 <inductor_lpre>
  cap.v_loss = 0;		// set Vloss to zero
     e14:	17 86       	std	Z+15, r1	; 0x0f
     e16:	16 86       	std	Z+14, r1	; 0x0e
#endif
  cap.cval_max = 0;		// set max to zero
     e18:	14 82       	std	Z+4, r1	; 0x04
     e1a:	15 82       	std	Z+5, r1	; 0x05
     e1c:	16 82       	std	Z+6, r1	; 0x06
     e1e:	17 82       	std	Z+7, r1	; 0x07
  cap.cpre_max = -15;	// set max to fF unit
     e20:	81 ef       	ldi	r24, 0xF1	; 241
     e22:	83 8b       	std	Z+19, r24	; 0x13
     e24:	08 95       	ret

00000e26 <switch_tester_off>:
}

void switch_tester_off(void)
{
 #ifdef WITH_UART
  uart_putc('O');	// MAURO
     e26:	8f e4       	ldi	r24, 0x4F	; 79
     e28:	f9 dd       	rcall	.-1038   	; 0xa1c <uart_putc>
  uart_putc('F');	// MAURO
     e2a:	86 e4       	ldi	r24, 0x46	; 70
     e2c:	f7 dd       	rcall	.-1042   	; 0xa1c <uart_putc>
  uart_putc('F');	// MAURO
     e2e:	86 e4       	ldi	r24, 0x46	; 70
     e30:	f5 dd       	rcall	.-1046   	; 0xa1c <uart_putc>
  uart_newline();	// MAURO
     e32:	1b db       	rcall	.-2506   	; 0x46a <uart_newline>
     e34:	5e 98       	cbi	0x0b, 6	; 11
 #endif
 #if ((LCD_ST_TYPE == 7565) || (LCD_ST_TYPE == 1306))
  lcd_powersave();			// set graphical display to power save mode
 #endif
  ON_PORT &= ~(1<<ON_PIN);		//switch off power
  wait2s();
     e36:	08 de       	rcall	.-1008   	; 0xa48 <wait2s>
     e38:	80 e0       	ldi	r24, 0x00	; 0
  wait_for_key_ms(0); //never ending loop 
     e3a:	90 e0       	ldi	r25, 0x00	; 0
     e3c:	d2 ce       	rjmp	.-604    	; 0xbe2 <wait_for_key_ms>
     e3e:	08 95       	ret

00000e40 <ShortedProbes>:
     e40:	1f 93       	push	r17
     e42:	cf 93       	push	r28
 *  - 0 if not shorted
 *  - 1 if shorted
 */

uint8_t ShortedProbes(uint8_t Probe1, uint8_t Probe2)
{
     e44:	df 93       	push	r29
     e46:	16 2f       	mov	r17, r22
     e48:	98 e0       	ldi	r25, 0x08	; 8
     e4a:	97 b9       	out	0x07, r25	; 7
   *  Set up a voltage divider between the two probes:
   *  - Probe1: Rl pull-up
   *  - Probe2: Rl pull-down
   */

  ADC_DDR =  TXD_MSK;		// all-Pins to Input
     e4c:	98 b9       	out	0x08, r25	; 8
     e4e:	e8 2f       	mov	r30, r24
  ADC_PORT = TXD_VAL;		// all ADC-Ports to GND
     e50:	f0 e0       	ldi	r31, 0x00	; 0
  addr = &PinRLRHADCtab[Probe1];
     e52:	e4 57       	subi	r30, 0x74	; 116
     e54:	fe 4f       	sbci	r31, 0xFE	; 254
     e56:	94 91       	lpm	r25, Z
     e58:	95 b9       	out	0x05, r25	; 5
  pp = pgm_read_byte(addr);
     e5a:	26 2f       	mov	r18, r22
  R_PORT = pp;
     e5c:	28 1b       	sub	r18, r24
  addr += (int8_t)(Probe2-Probe1);
  R_DDR =  pp | pgm_read_byte(addr);	// pgm_read_byte(PinRHtab[Probe1]) | pgm_read_byte(PinRLtab[Probe2]);
     e5e:	e2 0f       	add	r30, r18
     e60:	f1 1d       	adc	r31, r1
     e62:	27 fd       	sbrc	r18, 7
     e64:	fa 95       	dec	r31
     e66:	e4 91       	lpm	r30, Z
     e68:	e9 2b       	or	r30, r25
     e6a:	e4 b9       	out	0x04, r30	; 4

  /* read voltages */
  U1 = ReadADC(Probe1);
     e6c:	48 de       	rcall	.-880    	; 0xafe <ReadADC>
     e6e:	ec 01       	movw	r28, r24
     e70:	81 2f       	mov	r24, r17
  U2 = ReadADC(Probe2);
     e72:	45 de       	rcall	.-886    	; 0xafe <ReadADC>
     e74:	ac 01       	movw	r20, r24
     e76:	20 91 2f 01 	lds	r18, 0x012F	; 0x80012f <ADCconfig+0x4>
   */
 #ifndef MAX_UH_DIFF
  #define MAX_UH_DIFF 30
 #endif

  URH = ADCconfig.U_AVCC / 2;
     e7a:	30 91 30 01 	lds	r19, 0x0130	; 0x800130 <ADCconfig+0x5>
     e7e:	36 95       	lsr	r19
     e80:	27 95       	ror	r18
     e82:	c9 01       	movw	r24, r18
     e84:	03 97       	sbiw	r24, 0x03	; 3
  URH -= ((long)U_VCC * (long)(PIN_RP-PIN_RM)) / (4*(unsigned long)(R_L_VAL+PIN_RM));			// differenz of Pin resistance high (22) and low (20)
     e86:	be 01       	movw	r22, r28
     e88:	62 5e       	subi	r22, 0xE2	; 226
  if (((U1 + MAX_UH_DIFF) > URH ) && (U1 < (URH + MAX_UH_DIFF)))
     e8a:	7f 4f       	sbci	r23, 0xFF	; 255
     e8c:	86 17       	cp	r24, r22
     e8e:	97 07       	cpc	r25, r23
     e90:	78 f4       	brcc	.+30     	; 0xeb0 <ShortedProbes+0x70>
     e92:	25 5e       	subi	r18, 0xE5	; 229
     e94:	3f 4f       	sbci	r19, 0xFF	; 255
     e96:	c2 17       	cp	r28, r18
     e98:	d3 07       	cpc	r29, r19
     e9a:	50 f4       	brcc	.+20     	; 0xeb0 <ShortedProbes+0x70>
     e9c:	ba 01       	movw	r22, r20
     e9e:	62 5e       	subi	r22, 0xE2	; 226
  {
    if (((U2 + MAX_UH_DIFF) > URH) && (U2 < (URH + MAX_UH_DIFF)))
     ea0:	7f 4f       	sbci	r23, 0xFF	; 255
     ea2:	86 17       	cp	r24, r22
     ea4:	97 07       	cpc	r25, r23
     ea6:	20 f4       	brcc	.+8      	; 0xeb0 <ShortedProbes+0x70>
     ea8:	81 e0       	ldi	r24, 0x01	; 1
     eaa:	42 17       	cp	r20, r18
 *  - 1 if shorted
 */

uint8_t ShortedProbes(uint8_t Probe1, uint8_t Probe2)
{
  uint8_t           Flag1 = 0;      /* return value */
     eac:	53 07       	cpc	r21, r19
     eae:	08 f0       	brcs	.+2      	; 0xeb2 <ShortedProbes+0x72>
     eb0:	80 e0       	ldi	r24, 0x00	; 0
     eb2:	14 b8       	out	0x04, r1	; 4
     eb4:	df 91       	pop	r29

  /* reset port */
  R_DDR = 0;

  return Flag1;
}
     eb6:	cf 91       	pop	r28
     eb8:	1f 91       	pop	r17
     eba:	08 95       	ret

00000ebc <AllProbesShorted>:
 *  - 0 if no probes are short-circuited
 *  - number of probe pairs short-circuited (3 = all)
 */

uint8_t AllProbesShorted(void)
{
     ebc:	cf 93       	push	r28
  uint8_t           Flag2;      /* return value */

  /* check all possible combinations */
  Flag2 = ShortedProbes(TP1, TP2);
     ebe:	61 e0       	ldi	r22, 0x01	; 1
     ec0:	80 e0       	ldi	r24, 0x00	; 0
     ec2:	be df       	rcall	.-132    	; 0xe40 <ShortedProbes>
     ec4:	c8 2f       	mov	r28, r24
  Flag2 += ShortedProbes(TP1, TP3);
     ec6:	62 e0       	ldi	r22, 0x02	; 2
     ec8:	80 e0       	ldi	r24, 0x00	; 0
     eca:	ba df       	rcall	.-140    	; 0xe40 <ShortedProbes>
     ecc:	c8 0f       	add	r28, r24
     ece:	62 e0       	ldi	r22, 0x02	; 2
  Flag2 += ShortedProbes(TP2, TP3);
     ed0:	81 e0       	ldi	r24, 0x01	; 1
     ed2:	b6 df       	rcall	.-148    	; 0xe40 <ShortedProbes>
     ed4:	8c 0f       	add	r24, r28
     ed6:	cf 91       	pop	r28

  return Flag2;
}
     ed8:	08 95       	ret

00000eda <AutoCheck>:
     eda:	af e0       	ldi	r26, 0x0F	; 15
     edc:	b0 e0       	ldi	r27, 0x00	; 0
// Selftest of the device and calibration 
#ifdef WITH_SELFTEST
void AutoCheck(uint8_t test_mode) {
     ede:	e3 e7       	ldi	r30, 0x73	; 115
     ee0:	f7 e0       	ldi	r31, 0x07	; 7
     ee2:	0c 94 c8 33 	jmp	0x6790	; 0x6790 <__prologue_saves__>
     ee6:	b8 2e       	mov	r11, r24
  #ifdef AUTOSCALE_ADC
int8_t udiff;		// difference between ADC Voltage with VCC or Bandgap reference
int8_t udiff2;
  #endif
 #endif
PartFound = PART_NONE;		// no part found before
     ee8:	10 92 1a 01 	sts	0x011A, r1	; 0x80011a <PartFound>
if ((test_mode & 0xf0) == 0) {
  // probed should be shorted already to begin selftest
  if (AllProbesShorted() != 3) return;
     eec:	80 7f       	andi	r24, 0xF0	; 240
     eee:	a9 f4       	brne	.+42     	; 0xf1a <AutoCheck+0x40>
     ef0:	e5 df       	rcall	.-54     	; 0xebc <AllProbesShorted>
     ef2:	83 30       	cpi	r24, 0x03	; 3
  lcd_clear();
     ef4:	09 f0       	breq	.+2      	; 0xef8 <AutoCheck+0x1e>
  lcd_MEM_string(SELFTEST);		// "Selftest mode.."
     ef6:	7f c3       	rjmp	.+1790   	; 0x15f6 <AutoCheck+0x71c>
     ef8:	c5 da       	rcall	.-2678   	; 0x484 <lcd_clear>
     efa:	8b e3       	ldi	r24, 0x3B	; 59
  lcd_line2();
     efc:	92 e0       	ldi	r25, 0x02	; 2
  lcd_data('?');			// wait for key pressed for confirmation
     efe:	fc da       	rcall	.-2568   	; 0x4f8 <lcd_fix_string>
     f00:	c7 da       	rcall	.-2674   	; 0x490 <lcd_line2>
  if (wait_for_key_ms(2000) > 10) goto begin_selftest;	// key is pressed again
     f02:	8f e3       	ldi	r24, 0x3F	; 63
     f04:	55 da       	rcall	.-2902   	; 0x3b0 <lcd_data>
     f06:	80 ed       	ldi	r24, 0xD0	; 208
     f08:	97 e0       	ldi	r25, 0x07	; 7
     f0a:	6b de       	rcall	.-810    	; 0xbe2 <wait_for_key_ms>
  if (tt < 150) goto begin_selftest;		// is shorted before time limit
  goto no_zero_resistance;			// skip measuring of the zero resistance
 #endif
}
// no key pressed for 2s
lcd_clear();
     f0c:	8b 30       	cpi	r24, 0x0B	; 11
     f0e:	c0 f4       	brcc	.+48     	; 0xf40 <AutoCheck+0x66>
lcd_MEM_string(VERSION_str);	//"Version ..."
     f10:	b9 da       	rcall	.-2702   	; 0x484 <lcd_clear>
     f12:	85 ef       	ldi	r24, 0xF5	; 245
     f14:	90 e0       	ldi	r25, 0x00	; 0
return;
     f16:	f0 da       	rcall	.-2592   	; 0x4f8 <lcd_fix_string>
     f18:	6e c3       	rjmp	.+1756   	; 0x15f6 <AutoCheck+0x71c>
 #ifdef WITH_MENU
} else {
  // report to user, that probes should be shorted
  ww = 0;
  for (tt=0;tt<150;tt++) {	/* wait about 30 seconds for shorted probes */
    lcd_clear();
     f1a:	06 e9       	ldi	r16, 0x96	; 150
     f1c:	10 e0       	ldi	r17, 0x00	; 0
    lcd_MEM2_string(SHORT_PROBES_str);	// message "Short probes!" to LCD
     f1e:	b2 da       	rcall	.-2716   	; 0x484 <lcd_clear>
     f20:	8a ea       	ldi	r24, 0xAA	; 170
     f22:	91 e0       	ldi	r25, 0x01	; 1
    if (AllProbesShorted() == 3) {
     f24:	e9 da       	rcall	.-2606   	; 0x4f8 <lcd_fix_string>
     f26:	ca df       	rcall	.-108    	; 0xebc <AllProbesShorted>
     f28:	83 30       	cpi	r24, 0x03	; 3
     f2a:	21 f4       	brne	.+8      	; 0xf34 <AutoCheck+0x5a>
       ww++;	// all probes now shorted
     f2c:	1f 5f       	subi	r17, 0xFF	; 255
    } else {
       ww = 0;	// connection not stable, retry
    }
    if (ww > 3) break;	// connection seems to be stable
     f2e:	14 30       	cpi	r17, 0x04	; 4
     f30:	10 f0       	brcs	.+4      	; 0xf36 <AutoCheck+0x5c>
     f32:	06 c0       	rjmp	.+12     	; 0xf40 <AutoCheck+0x66>
    lcd_clear();
    lcd_MEM2_string(SHORT_PROBES_str);	// message "Short probes!" to LCD
    if (AllProbesShorted() == 3) {
       ww++;	// all probes now shorted
    } else {
       ww = 0;	// connection not stable, retry
     f34:	10 e0       	ldi	r17, 0x00	; 0
    }
    if (ww > 3) break;	// connection seems to be stable
    lcd_refresh();		// write the pixels to display, ST7920 only
    wait_about200ms();			// wait 200ms and try again
     f36:	88 e2       	ldi	r24, 0x28	; 40
     f38:	aa dd       	rcall	.-1196   	; 0xa8e <sleep_5ms>
     f3a:	01 50       	subi	r16, 0x01	; 1
     f3c:	81 f7       	brne	.-32     	; 0xf1e <AutoCheck+0x44>
  if (wait_for_key_ms(2000) > 10) goto begin_selftest;	// key is pressed again
 #ifdef WITH_MENU
} else {
  // report to user, that probes should be shorted
  ww = 0;
  for (tt=0;tt<150;tt++) {	/* wait about 30 seconds for shorted probes */
     f3e:	63 c0       	rjmp	.+198    	; 0x1006 <AutoCheck+0x12c>
     f40:	a7 da       	rcall	.-2738   	; 0x490 <lcd_line2>
lcd_clear();
lcd_MEM_string(VERSION_str);	//"Version ..."
return;

begin_selftest:
lcd_line2();
     f42:	0e 94 23 19 	call	0x3246	; 0x3246 <Calibrate_UR>
Calibrate_UR();		// get Reference voltage, Pin resistance
     f46:	81 eb       	ldi	r24, 0xB1	; 177
     f48:	90 e0       	ldi	r25, 0x00	; 0
lcd_MEM2_string(R0_str);		// "R0="
     f4a:	d6 da       	rcall	.-2644   	; 0x4f8 <lcd_fix_string>
     f4c:	60 e0       	ldi	r22, 0x00	; 0
     f4e:	85 e0       	ldi	r24, 0x05	; 5
     f50:	93 e0       	ldi	r25, 0x03	; 3
eeprom_write_byte((uint8_t *)(&EE_ESR_ZEROtab[2]), (uint8_t)0);	// clear zero offset
     f52:	0e 94 68 34 	call	0x68d0	; 0x68d0 <eeprom_write_byte>
     f56:	60 e0       	ldi	r22, 0x00	; 0
     f58:	86 e0       	ldi	r24, 0x06	; 6
     f5a:	93 e0       	ldi	r25, 0x03	; 3
eeprom_write_byte((uint8_t *)(&EE_ESR_ZEROtab[3]), (uint8_t)0);	// clear zero offset
     f5c:	0e 94 68 34 	call	0x68d0	; 0x68d0 <eeprom_write_byte>
     f60:	60 e0       	ldi	r22, 0x00	; 0
     f62:	84 e0       	ldi	r24, 0x04	; 4
     f64:	93 e0       	ldi	r25, 0x03	; 3
eeprom_write_byte((uint8_t *)(&EE_ESR_ZEROtab[1]), (uint8_t)0);	// clear zero offset
     f66:	0e 94 68 34 	call	0x68d0	; 0x68d0 <eeprom_write_byte>
     f6a:	60 e0       	ldi	r22, 0x00	; 0
     f6c:	82 e0       	ldi	r24, 0x02	; 2
     f6e:	0e 94 55 1e 	call	0x3caa	; 0x3caa <GetESR>

adcmv[0] = GetESR(TP3, TP1);
     f72:	6c 01       	movw	r12, r24
     f74:	9a 83       	std	Y+2, r25	; 0x02
     f76:	89 83       	std	Y+1, r24	; 0x01
     f78:	61 e0       	ldi	r22, 0x01	; 1
adcmv[1] = GetESR(TP3, TP2);
     f7a:	82 e0       	ldi	r24, 0x02	; 2
     f7c:	0e 94 55 1e 	call	0x3caa	; 0x3caa <GetESR>
     f80:	7c 01       	movw	r14, r24
     f82:	9c 83       	std	Y+4, r25	; 0x04
     f84:	8b 83       	std	Y+3, r24	; 0x03
adcmv[2] = GetESR(TP2, TP1);
     f86:	60 e0       	ldi	r22, 0x00	; 0
     f88:	81 e0       	ldi	r24, 0x01	; 1
     f8a:	0e 94 55 1e 	call	0x3caa	; 0x3caa <GetESR>
     f8e:	8c 01       	movw	r16, r24
     f90:	9e 83       	std	Y+6, r25	; 0x06
     f92:	8d 83       	std	Y+5, r24	; 0x05
DisplayValue16(adcmv[0],-2,' ',3);
     f94:	23 e0       	ldi	r18, 0x03	; 3
     f96:	40 e2       	ldi	r20, 0x20	; 32
     f98:	6e ef       	ldi	r22, 0xFE	; 254
     f9a:	c6 01       	movw	r24, r12
     f9c:	20 dd       	rcall	.-1472   	; 0x9de <DisplayValue16>
     f9e:	23 e0       	ldi	r18, 0x03	; 3
DisplayValue16(adcmv[1],-2,' ',3);
     fa0:	40 e2       	ldi	r20, 0x20	; 32
     fa2:	6e ef       	ldi	r22, 0xFE	; 254
     fa4:	c7 01       	movw	r24, r14
     fa6:	1b dd       	rcall	.-1482   	; 0x9de <DisplayValue16>
     fa8:	23 e0       	ldi	r18, 0x03	; 3
     faa:	44 ef       	ldi	r20, 0xF4	; 244
DisplayValue16(adcmv[2],-2,LCD_CHAR_OMEGA,3);
     fac:	6e ef       	ldi	r22, 0xFE	; 254
     fae:	c8 01       	movw	r24, r16
     fb0:	16 dd       	rcall	.-1492   	; 0x9de <DisplayValue16>
     fb2:	2a e5       	ldi	r18, 0x5A	; 90
     fb4:	c2 16       	cp	r12, r18
     fb6:	d1 04       	cpc	r13, r1
if (adcmv[0] >= 90) {
     fb8:	24 f0       	brlt	.+8      	; 0xfc2 <AutoCheck+0xe8>
     fba:	84 e1       	ldi	r24, 0x14	; 20
     fbc:	90 e0       	ldi	r25, 0x00	; 0
     fbe:	9a 83       	std	Y+2, r25	; 0x02
  adcmv[0] = ESR_ZERO;	// set back to default value
     fc0:	89 83       	std	Y+1, r24	; 0x01
     fc2:	69 81       	ldd	r22, Y+1	; 0x01
     fc4:	85 e0       	ldi	r24, 0x05	; 5
     fc6:	93 e0       	ldi	r25, 0x03	; 3
}
eeprom_write_byte((uint8_t *)(&EE_ESR_ZEROtab[2]), (uint8_t)adcmv[0]);	// fix zero offset
     fc8:	0e 94 68 34 	call	0x68d0	; 0x68d0 <eeprom_write_byte>
     fcc:	8a e5       	ldi	r24, 0x5A	; 90
     fce:	e8 16       	cp	r14, r24
     fd0:	f1 04       	cpc	r15, r1
if (adcmv[1] >= 90) {
     fd2:	24 f0       	brlt	.+8      	; 0xfdc <AutoCheck+0x102>
     fd4:	84 e1       	ldi	r24, 0x14	; 20
     fd6:	90 e0       	ldi	r25, 0x00	; 0
  adcmv[1] = ESR_ZERO;	// set back to default value
     fd8:	9c 83       	std	Y+4, r25	; 0x04
     fda:	8b 83       	std	Y+3, r24	; 0x03
     fdc:	6b 81       	ldd	r22, Y+3	; 0x03
     fde:	86 e0       	ldi	r24, 0x06	; 6
}
eeprom_write_byte((uint8_t *)(&EE_ESR_ZEROtab[3]), (uint8_t)adcmv[1]);	// fix zero offset
     fe0:	93 e0       	ldi	r25, 0x03	; 3
     fe2:	0e 94 68 34 	call	0x68d0	; 0x68d0 <eeprom_write_byte>
     fe6:	0a 35       	cpi	r16, 0x5A	; 90
     fe8:	11 05       	cpc	r17, r1
if (adcmv[2] >= 90) {
     fea:	24 f0       	brlt	.+8      	; 0xff4 <AutoCheck+0x11a>
     fec:	84 e1       	ldi	r24, 0x14	; 20
     fee:	90 e0       	ldi	r25, 0x00	; 0
  adcmv[2] = ESR_ZERO;	// set back to default value
     ff0:	9e 83       	std	Y+6, r25	; 0x06
     ff2:	8d 83       	std	Y+5, r24	; 0x05
     ff4:	6d 81       	ldd	r22, Y+5	; 0x05
     ff6:	84 e0       	ldi	r24, 0x04	; 4
}
eeprom_write_byte((uint8_t *)(&EE_ESR_ZEROtab[1]), (uint8_t)adcmv[2]);	// fix zero offset
     ff8:	93 e0       	ldi	r25, 0x03	; 3
     ffa:	0e 94 68 34 	call	0x68d0	; 0x68d0 <eeprom_write_byte>
     ffe:	82 e0       	ldi	r24, 0x02	; 2
    1000:	80 93 3e 01 	sts	0x013E, r24	; 0x80013e <last_line_used>
last_line_used = 2;
    1004:	2a de       	rcall	.-940    	; 0xc5a <wait_for_key_5s_line2>
wait_for_key_5s_line2();		// wait up to 5 seconds and clear line 2
    1006:	eb 2d       	mov	r30, r11
    1008:	ef 70       	andi	r30, 0x0F	; 15
    100a:	ef 87       	std	Y+15, r30	; 0x0f
 #ifdef WITH_MENU
no_zero_resistance:
 #endif
 #ifdef EXTENDED_TESTS
#define TEST_COUNT 8
if((test_mode & 0x0f) == 1) {  /* full test requested */
    100c:	e1 30       	cpi	r30, 0x01	; 1
    100e:	11 f0       	breq	.+4      	; 0x1014 <AutoCheck+0x13a>
    1010:	18 e7       	ldi	r17, 0x78	; 120
    1012:	34 c1       	rjmp	.+616    	; 0x127c <AutoCheck+0x3a2>
    1014:	ee 24       	eor	r14, r14
      R_PORT = 1<<PIN_RH3;
      adcmv[2] = W20msReadADC(TP3) - ADCconfig.U_AVCC;
      lcd_MEM_string(RH1H_str);	// "RH_Hi="
   }
   if (tt == 7) { // is the voltage of all R_H / R_L dividers correct?
      u680 = ((long)ADCconfig.U_AVCC * (PIN_RM + R_L_VAL) / (PIN_RM + R_L_VAL + (unsigned long)R_H_VAL*100));
    1016:	e3 94       	inc	r14
    1018:	f1 2c       	mov	r15, r1
    101a:	78 eb       	ldi	r23, 0xB8	; 184
    101c:	87 2e       	mov	r8, r23
    101e:	72 ed       	ldi	r23, 0xD2	; 210
      R_PORT = 1<<PIN_RH1;		//RH1 to VCC
    1020:	97 2e       	mov	r9, r23
      R_DDR = (1<<PIN_RH1) | (1<<PIN_RL1);	//RH1 to +, RL1 to -
      adcmv[0] = W20msReadADC(TP1);
      adcmv[0] -= u680;
      R_PORT = 1<<PIN_RH2;		//RH2 to VCC
    1022:	77 e4       	ldi	r23, 0x47	; 71
      R_DDR = (1<<PIN_RH2) | (1<<PIN_RL2);	//RH2 to +, RL2 to -
      adcmv[1] = W20msReadADC(TP2);
      adcmv[1] -= u680;
      R_PORT = 1<<PIN_RH3;		//RH3 to VCC
    1024:	a7 2e       	mov	r10, r23
    1026:	b1 2c       	mov	r11, r1
    lcd_clear();
    lcd_MEM2_string(SHORT_PROBES_str);	// message "Short probes!" to LCD
    if (AllProbesShorted() == 3) {
       ww++;	// all probes now shorted
    } else {
       ww = 0;	// connection not stable, retry
    1028:	e2 e0       	ldi	r30, 0x02	; 2
      R_PORT = 1<<PIN_RH1;		//RH1 to VCC
      R_DDR = (1<<PIN_RH1) | (1<<PIN_RH2);	//RH2 to -
      adcmv[0] = W20msReadADC(TP1);
      adcmv[3] = ADCconfig.U_AVCC / 2;
      adcmv[0] -= adcmv[3];
      R_DDR = (1<<PIN_RH1) | (1<<PIN_RH3);	//RH3 to -
    102a:	de 2e       	mov	r13, r30
    102c:	08 e0       	ldi	r16, 0x08	; 8
#define TEST_COUNT 8
if((test_mode & 0x0f) == 1) {  /* full test requested */

for(tt=1;tt<TEST_COUNT;tt++) {		// loop for all Tests
for(ww=0;ww<MAX_REP;ww++) {	// repeat the test MAX_REP times
   lcd_clear_line2();		// clear total line 2
    102e:	f0 e2       	ldi	r31, 0x20	; 32
    1030:	3f 2e       	mov	r3, r31
   lcd_clear_line1();		// clear total line 1
    1032:	c1 2c       	mov	r12, r1
    1034:	1e 2d       	mov	r17, r14
   lcd_data('T');			//output the Testmode "T"
    1036:	52 e2       	ldi	r21, 0x22	; 34
    1038:	25 2e       	mov	r2, r21
    103a:	e5 da       	rcall	.-2614   	; 0x606 <lcd_clear_line2>
   u2lcd(tt);		//lcd_string(utoa(tt, outval, 10));	//output Test number
    103c:	e0 da       	rcall	.-2624   	; 0x5fe <lcd_clear_line1>
    103e:	84 e5       	ldi	r24, 0x54	; 84
    1040:	b7 d9       	rcall	.-3218   	; 0x3b0 <lcd_data>
   lcd_space();
    1042:	c7 01       	movw	r24, r14
    1044:	1c db       	rcall	.-2504   	; 0x67e <u2lcd>
				//############################################
   if (tt == 1) {   // output of reference voltage and factors for capacity measurement
    1046:	ed d9       	rcall	.-3110   	; 0x422 <lcd_space>
    1048:	11 30       	cpi	r17, 0x01	; 1
      lcd_MEM2_string(URef_str);	//"URef="
    104a:	b1 f4       	brne	.+44     	; 0x1078 <AutoCheck+0x19e>
    104c:	84 ee       	ldi	r24, 0xE4	; 228
    104e:	90 e0       	ldi	r25, 0x00	; 0
    1050:	53 da       	rcall	.-2906   	; 0x4f8 <lcd_fix_string>
      Display_mV(ref_mv,4);
    1052:	64 e0       	ldi	r22, 0x04	; 4
    1054:	80 91 33 01 	lds	r24, 0x0133	; 0x800133 <ref_mv>
    1058:	90 91 34 01 	lds	r25, 0x0134	; 0x800134 <ref_mv+0x1>
    105c:	cb dc       	rcall	.-1642   	; 0x9f4 <Display_mV>
    105e:	18 da       	rcall	.-3024   	; 0x490 <lcd_line2>
      lcd_line2();			//Cursor to column 1, row 2
    1060:	8f ed       	ldi	r24, 0xDF	; 223
      lcd_MEM2_string(RHfakt_str);	//"RHf="
    1062:	90 e0       	ldi	r25, 0x00	; 0
    1064:	49 da       	rcall	.-2926   	; 0x4f8 <lcd_fix_string>
    1066:	80 91 71 01 	lds	r24, 0x0171	; 0x800171 <RHmultip>
      u2lcd(RHmultip);	//lcd_string(utoa(RHmultip, outval, 10));
    106a:	90 91 72 01 	lds	r25, 0x0172	; 0x800172 <RHmultip+0x1>
    106e:	07 db       	rcall	.-2546   	; 0x67e <u2lcd>
    1070:	8e eb       	ldi	r24, 0xBE	; 190
    1072:	80 93 2b 01 	sts	0x012B, r24	; 0x80012b <ADCconfig>
      ADCconfig.Samples = R_ANZ_MESS;	// set number of ADC reads near to maximum
    1076:	df c0       	rjmp	.+446    	; 0x1236 <AutoCheck+0x35c>
    1078:	12 30       	cpi	r17, 0x02	; 2
    107a:	79 f5       	brne	.+94     	; 0x10da <AutoCheck+0x200>
   }
				//############################################
   if (tt == 2) { // how equal are the RL resistors? 
    107c:	20 91 2f 01 	lds	r18, 0x012F	; 0x80012f <ADCconfig+0x4>
      u680 = ((long)ADCconfig.U_AVCC * (PIN_RM + R_L_VAL) / (PIN_RM + R_L_VAL + R_L_VAL + PIN_RP));
    1080:	30 91 30 01 	lds	r19, 0x0130	; 0x800130 <ADCconfig+0x5>
    1084:	a8 e5       	ldi	r26, 0x58	; 88
    1086:	bb e1       	ldi	r27, 0x1B	; 27
    1088:	0e 94 1e 33 	call	0x663c	; 0x663c <__umulhisi3>
    108c:	24 ec       	ldi	r18, 0xC4	; 196
    108e:	36 e3       	ldi	r19, 0x36	; 54
    1090:	40 e0       	ldi	r20, 0x00	; 0
    1092:	50 e0       	ldi	r21, 0x00	; 0
    1094:	0e 94 02 33 	call	0x6604	; 0x6604 <__divmodsi4>
    1098:	29 01       	movw	r4, r18
    109a:	3a 01       	movw	r6, r20
      R_PORT = 1<<PIN_RL1;		//RL1 to VCC
    109c:	81 e0       	ldi	r24, 0x01	; 1
    109e:	85 b9       	out	0x05, r24	; 5
      R_DDR = (1<<PIN_RL1) | (1<<PIN_RL2);	//RL2 to -
    10a0:	f5 e0       	ldi	r31, 0x05	; 5
    10a2:	f4 b9       	out	0x04, r31	; 4
      adcmv[0] = W20msReadADC(TP1);
    10a4:	80 e0       	ldi	r24, 0x00	; 0
    10a6:	1f dd       	rcall	.-1474   	; 0xae6 <W20msReadADC>
    10a8:	84 19       	sub	r24, r4
      adcmv[0] -= u680;
    10aa:	95 09       	sbc	r25, r5
    10ac:	9a 83       	std	Y+2, r25	; 0x02
    10ae:	89 83       	std	Y+1, r24	; 0x01
    10b0:	81 e1       	ldi	r24, 0x11	; 17
      R_DDR = (1<<PIN_RL1) | (1<<PIN_RL3);	//RL3 to -
    10b2:	84 b9       	out	0x04, r24	; 4
    10b4:	80 e0       	ldi	r24, 0x00	; 0
      adcmv[1] = W20msReadADC(TP1);
    10b6:	17 dd       	rcall	.-1490   	; 0xae6 <W20msReadADC>
    10b8:	84 19       	sub	r24, r4
      adcmv[1] -= u680;
    10ba:	95 09       	sbc	r25, r5
    10bc:	9c 83       	std	Y+4, r25	; 0x04
    10be:	8b 83       	std	Y+3, r24	; 0x03
    10c0:	84 e0       	ldi	r24, 0x04	; 4
      R_PORT = 1<<PIN_RL2;		//RL2 to VCC
    10c2:	85 b9       	out	0x05, r24	; 5
    10c4:	84 e1       	ldi	r24, 0x14	; 20
      R_DDR = (1<<PIN_RL2) | (1<<PIN_RL3);	//RL3 to -
    10c6:	84 b9       	out	0x04, r24	; 4
    10c8:	81 e0       	ldi	r24, 0x01	; 1
      adcmv[2] = W20msReadADC(TP2);
    10ca:	0d dd       	rcall	.-1510   	; 0xae6 <W20msReadADC>
    10cc:	84 19       	sub	r24, r4
      adcmv[2] -= u680;
    10ce:	95 09       	sbc	r25, r5
    10d0:	9e 83       	std	Y+6, r25	; 0x06
    10d2:	8d 83       	std	Y+5, r24	; 0x05
    10d4:	89 ec       	ldi	r24, 0xC9	; 201
      lcd_MEM_string(RLRL_str);	// "RLRL"
    10d6:	90 e0       	ldi	r25, 0x00	; 0
    10d8:	9e c0       	rjmp	.+316    	; 0x1216 <AutoCheck+0x33c>
    10da:	13 30       	cpi	r17, 0x03	; 3
   }
				//############################################
   if (tt == 3) { // how equal are the RH resistors
    10dc:	41 f5       	brne	.+80     	; 0x112e <AutoCheck+0x254>
    10de:	d5 b8       	out	0x05, r13	; 5
      R_PORT = 1<<PIN_RH1;		//RH1 to VCC
    10e0:	2a e0       	ldi	r18, 0x0A	; 10
      R_DDR = (1<<PIN_RH1) | (1<<PIN_RH2);	//RH2 to -
    10e2:	24 b9       	out	0x04, r18	; 4
      adcmv[0] = W20msReadADC(TP1);
    10e4:	80 e0       	ldi	r24, 0x00	; 0
    10e6:	ff dc       	rcall	.-1538   	; 0xae6 <W20msReadADC>
      adcmv[3] = ADCconfig.U_AVCC / 2;
    10e8:	20 91 2f 01 	lds	r18, 0x012F	; 0x80012f <ADCconfig+0x4>
    10ec:	30 91 30 01 	lds	r19, 0x0130	; 0x800130 <ADCconfig+0x5>
    10f0:	36 95       	lsr	r19
    10f2:	27 95       	ror	r18
    10f4:	38 87       	std	Y+8, r19	; 0x08
      adcmv[0] -= adcmv[3];
    10f6:	2f 83       	std	Y+7, r18	; 0x07
    10f8:	82 1b       	sub	r24, r18
    10fa:	93 0b       	sbc	r25, r19
      R_DDR = (1<<PIN_RH1) | (1<<PIN_RH3);	//RH3 to -
    10fc:	9a 83       	std	Y+2, r25	; 0x02
      adcmv[1] = W20msReadADC(TP1);
    10fe:	89 83       	std	Y+1, r24	; 0x01
    1100:	24 b8       	out	0x04, r2	; 4
    1102:	80 e0       	ldi	r24, 0x00	; 0
      adcmv[1] -= adcmv[3];
    1104:	f0 dc       	rcall	.-1568   	; 0xae6 <W20msReadADC>
    1106:	2f 81       	ldd	r18, Y+7	; 0x07
    1108:	38 85       	ldd	r19, Y+8	; 0x08
    110a:	82 1b       	sub	r24, r18
    110c:	93 0b       	sbc	r25, r19
      R_PORT = 1<<PIN_RH2;		//RH2 to VCC
    110e:	9c 83       	std	Y+4, r25	; 0x04
      R_DDR = (1<<PIN_RH2) | (1<<PIN_RH3);	//RH3 to -
    1110:	8b 83       	std	Y+3, r24	; 0x03
    1112:	05 b9       	out	0x05, r16	; 5
      adcmv[2] = W20msReadADC(TP2);
    1114:	88 e2       	ldi	r24, 0x28	; 40
    1116:	84 b9       	out	0x04, r24	; 4
      adcmv[2] -= adcmv[3];
    1118:	81 e0       	ldi	r24, 0x01	; 1
    111a:	e5 dc       	rcall	.-1590   	; 0xae6 <W20msReadADC>
    111c:	2f 81       	ldd	r18, Y+7	; 0x07
    111e:	38 85       	ldd	r19, Y+8	; 0x08
    1120:	82 1b       	sub	r24, r18
    1122:	93 0b       	sbc	r25, r19
      lcd_MEM_string(RHRH_str);	// "RHRH"
    1124:	9e 83       	std	Y+6, r25	; 0x06
    1126:	8d 83       	std	Y+5, r24	; 0x05
    1128:	8b eb       	ldi	r24, 0xBB	; 187
   }
				//############################################
   if (tt == 4) { // Text release probes
    112a:	90 e0       	ldi	r25, 0x00	; 0
    112c:	74 c0       	rjmp	.+232    	; 0x1216 <AutoCheck+0x33c>
      lcd_MEM_string(RELPROBE);	// "Release Probes"
    112e:	14 30       	cpi	r17, 0x04	; 4
    1130:	39 f4       	brne	.+14     	; 0x1140 <AutoCheck+0x266>
    1132:	8b e2       	ldi	r24, 0x2B	; 43
      if (AllProbesShorted() != 0) ww = MAX_REP-2;
    1134:	92 e0       	ldi	r25, 0x02	; 2
    1136:	e0 d9       	rcall	.-3136   	; 0x4f8 <lcd_fix_string>
    1138:	c1 de       	rcall	.-638    	; 0xebc <AllProbesShorted>
    113a:	81 11       	cpse	r24, r1
    113c:	59 c2       	rjmp	.+1202   	; 0x15f0 <AutoCheck+0x716>
   }
				//############################################
   if (tt == 5) { // can we switch the ADC pins to GND across R_H resistor?
    113e:	6f c0       	rjmp	.+222    	; 0x121e <AutoCheck+0x344>
    1140:	15 30       	cpi	r17, 0x05	; 5
      R_PORT = 0;
    1142:	99 f4       	brne	.+38     	; 0x116a <AutoCheck+0x290>
      R_DDR = 1<<PIN_RH1;		//Pin 1 over R_H to GND
      adcmv[0] = W20msReadADC(TP1);
    1144:	15 b8       	out	0x05, r1	; 5
    1146:	d4 b8       	out	0x04, r13	; 4
    1148:	80 e0       	ldi	r24, 0x00	; 0
    114a:	cd dc       	rcall	.-1638   	; 0xae6 <W20msReadADC>
    114c:	9a 83       	std	Y+2, r25	; 0x02

      R_DDR = 1<<PIN_RH2;		//Pin 2 over R_H to GND
    114e:	89 83       	std	Y+1, r24	; 0x01
      adcmv[1] = W20msReadADC(TP2);
    1150:	04 b9       	out	0x04, r16	; 4
    1152:	81 e0       	ldi	r24, 0x01	; 1
    1154:	c8 dc       	rcall	.-1648   	; 0xae6 <W20msReadADC>
    1156:	9c 83       	std	Y+4, r25	; 0x04
    1158:	8b 83       	std	Y+3, r24	; 0x03

      R_DDR = 1<<PIN_RH3;		//Pin 3 over R_H to GND
    115a:	34 b8       	out	0x04, r3	; 4
      adcmv[2] = W20msReadADC(TP3);
    115c:	82 e0       	ldi	r24, 0x02	; 2
    115e:	c3 dc       	rcall	.-1658   	; 0xae6 <W20msReadADC>
    1160:	9e 83       	std	Y+6, r25	; 0x06
    1162:	8d 83       	std	Y+5, r24	; 0x05
    1164:	8b ed       	ldi	r24, 0xDB	; 219
      lcd_MEM_string(RH1L_str);	// "RH_Lo="
    1166:	90 e0       	ldi	r25, 0x00	; 0
    1168:	56 c0       	rjmp	.+172    	; 0x1216 <AutoCheck+0x33c>
    116a:	16 30       	cpi	r17, 0x06	; 6
   }
				//############################################
   if (tt == 6) { // can we switch the ADC pins to VCC across the R_H resistor?
    116c:	39 f5       	brne	.+78     	; 0x11bc <AutoCheck+0x2e2>
    116e:	d4 b8       	out	0x04, r13	; 4
      R_DDR = 1<<PIN_RH1;		//Pin 1 over R_H to VCC
    1170:	d5 b8       	out	0x05, r13	; 5
      R_PORT = 1<<PIN_RH1;
    1172:	80 e0       	ldi	r24, 0x00	; 0
      adcmv[0] = W20msReadADC(TP1) - ADCconfig.U_AVCC;
    1174:	b8 dc       	rcall	.-1680   	; 0xae6 <W20msReadADC>
    1176:	20 91 2f 01 	lds	r18, 0x012F	; 0x80012f <ADCconfig+0x4>
    117a:	30 91 30 01 	lds	r19, 0x0130	; 0x800130 <ADCconfig+0x5>
    117e:	82 1b       	sub	r24, r18
    1180:	93 0b       	sbc	r25, r19
    1182:	9a 83       	std	Y+2, r25	; 0x02
    1184:	89 83       	std	Y+1, r24	; 0x01
    1186:	04 b9       	out	0x04, r16	; 4
      R_DDR = 1<<PIN_RH2;		//Pin 2 over R_H to VCC
    1188:	05 b9       	out	0x05, r16	; 5
      R_PORT = 1<<PIN_RH2;
    118a:	81 e0       	ldi	r24, 0x01	; 1
      adcmv[1] = W20msReadADC(TP2) - ADCconfig.U_AVCC;
    118c:	ac dc       	rcall	.-1704   	; 0xae6 <W20msReadADC>
    118e:	20 91 2f 01 	lds	r18, 0x012F	; 0x80012f <ADCconfig+0x4>
    1192:	30 91 30 01 	lds	r19, 0x0130	; 0x800130 <ADCconfig+0x5>
    1196:	82 1b       	sub	r24, r18
    1198:	93 0b       	sbc	r25, r19
    119a:	9c 83       	std	Y+4, r25	; 0x04
    119c:	8b 83       	std	Y+3, r24	; 0x03
    119e:	34 b8       	out	0x04, r3	; 4
      R_DDR = 1<<PIN_RH3;		//Pin 3 over R_H to VCC
    11a0:	35 b8       	out	0x05, r3	; 5
      R_PORT = 1<<PIN_RH3;
      adcmv[2] = W20msReadADC(TP3) - ADCconfig.U_AVCC;
    11a2:	82 e0       	ldi	r24, 0x02	; 2
    11a4:	a0 dc       	rcall	.-1728   	; 0xae6 <W20msReadADC>
    11a6:	20 91 2f 01 	lds	r18, 0x012F	; 0x80012f <ADCconfig+0x4>
    11aa:	30 91 30 01 	lds	r19, 0x0130	; 0x800130 <ADCconfig+0x5>
    11ae:	82 1b       	sub	r24, r18
    11b0:	93 0b       	sbc	r25, r19
    11b2:	9e 83       	std	Y+6, r25	; 0x06
    11b4:	8d 83       	std	Y+5, r24	; 0x05
      lcd_MEM_string(RH1H_str);	// "RH_Hi="
    11b6:	87 ed       	ldi	r24, 0xD7	; 215
    11b8:	90 e0       	ldi	r25, 0x00	; 0
   }
   if (tt == 7) { // is the voltage of all R_H / R_L dividers correct?
    11ba:	2d c0       	rjmp	.+90     	; 0x1216 <AutoCheck+0x33c>
      u680 = ((long)ADCconfig.U_AVCC * (PIN_RM + R_L_VAL) / (PIN_RM + R_L_VAL + (unsigned long)R_H_VAL*100));
    11bc:	17 30       	cpi	r17, 0x07	; 7
    11be:	69 f5       	brne	.+90     	; 0x121a <AutoCheck+0x340>
    11c0:	20 91 2f 01 	lds	r18, 0x012F	; 0x80012f <ADCconfig+0x4>
    11c4:	30 91 30 01 	lds	r19, 0x0130	; 0x800130 <ADCconfig+0x5>
    11c8:	a8 e5       	ldi	r26, 0x58	; 88
    11ca:	bb e1       	ldi	r27, 0x1B	; 27
    11cc:	0e 94 1e 33 	call	0x663c	; 0x663c <__umulhisi3>
    11d0:	a5 01       	movw	r20, r10
      R_PORT = 1<<PIN_RH1;		//RH1 to VCC
    11d2:	94 01       	movw	r18, r8
      R_DDR = (1<<PIN_RH1) | (1<<PIN_RL1);	//RH1 to +, RL1 to -
    11d4:	0e 94 e0 32 	call	0x65c0	; 0x65c0 <__udivmodsi4>
      adcmv[0] = W20msReadADC(TP1);
    11d8:	29 01       	movw	r4, r18
    11da:	3a 01       	movw	r6, r20
    11dc:	d5 b8       	out	0x05, r13	; 5
      adcmv[0] -= u680;
    11de:	e3 e0       	ldi	r30, 0x03	; 3
    11e0:	e4 b9       	out	0x04, r30	; 4
    11e2:	80 e0       	ldi	r24, 0x00	; 0
      R_PORT = 1<<PIN_RH2;		//RH2 to VCC
    11e4:	80 dc       	rcall	.-1792   	; 0xae6 <W20msReadADC>
      R_DDR = (1<<PIN_RH2) | (1<<PIN_RL2);	//RH2 to +, RL2 to -
    11e6:	84 19       	sub	r24, r4
    11e8:	95 09       	sbc	r25, r5
      adcmv[1] = W20msReadADC(TP2);
    11ea:	9a 83       	std	Y+2, r25	; 0x02
    11ec:	89 83       	std	Y+1, r24	; 0x01
    11ee:	05 b9       	out	0x05, r16	; 5
      adcmv[1] -= u680;
    11f0:	fc e0       	ldi	r31, 0x0C	; 12
    11f2:	f4 b9       	out	0x04, r31	; 4
    11f4:	81 e0       	ldi	r24, 0x01	; 1
      R_PORT = 1<<PIN_RH3;		//RH3 to VCC
    11f6:	77 dc       	rcall	.-1810   	; 0xae6 <W20msReadADC>
      R_DDR = (1<<PIN_RH3) | (1<<PIN_RL3);	//RH3 to +, RL3 to -
    11f8:	84 19       	sub	r24, r4
      adcmv[2] = W20msReadADC(TP3);
    11fa:	95 09       	sbc	r25, r5
    11fc:	9c 83       	std	Y+4, r25	; 0x04
      adcmv[2] -= u680;
    11fe:	8b 83       	std	Y+3, r24	; 0x03
    1200:	35 b8       	out	0x05, r3	; 5
    1202:	20 e3       	ldi	r18, 0x30	; 48
      lcd_MEM_string(RHRL_str);	// "RH/RL"
    1204:	24 b9       	out	0x04, r18	; 4
    1206:	82 e0       	ldi	r24, 0x02	; 2
    1208:	6e dc       	rcall	.-1828   	; 0xae6 <W20msReadADC>
   }
				//############################################
   if (tt > 1) {	// output 3 voltages 
    120a:	84 19       	sub	r24, r4
    120c:	95 09       	sbc	r25, r5
      lcd_line2();			//Cursor to column 1, row 2
    120e:	9e 83       	std	Y+6, r25	; 0x06
    1210:	8d 83       	std	Y+5, r24	; 0x05
      i2lcd(adcmv[0]);		// lcd_string(itoa(adcmv[0], outval, 10));	//output voltage 1
    1212:	85 eb       	ldi	r24, 0xB5	; 181
    1214:	90 e0       	ldi	r25, 0x00	; 0
    1216:	70 d9       	rcall	.-3360   	; 0x4f8 <lcd_fix_string>
      lcd_space();
    1218:	02 c0       	rjmp	.+4      	; 0x121e <AutoCheck+0x344>
    121a:	11 30       	cpi	r17, 0x01	; 1
      i2lcd(adcmv[1]);		// lcd_string(itoa(adcmv[1], outval, 10));	//output voltage 2
    121c:	61 f0       	breq	.+24     	; 0x1236 <AutoCheck+0x35c>
    121e:	38 d9       	rcall	.-3472   	; 0x490 <lcd_line2>
    1220:	89 81       	ldd	r24, Y+1	; 0x01
      lcd_space();
    1222:	9a 81       	ldd	r25, Y+2	; 0x02
    1224:	21 da       	rcall	.-3006   	; 0x668 <i2lcd>
      i2lcd(adcmv[2]);		// lcd_string(itoa(adcmv[2], outval, 10));	//output voltage 3
    1226:	fd d8       	rcall	.-3590   	; 0x422 <lcd_space>
    1228:	8b 81       	ldd	r24, Y+3	; 0x03
    122a:	9c 81       	ldd	r25, Y+4	; 0x04
   }
   ADC_DDR =  TXD_MSK;		// all-Pins to Input
    122c:	1d da       	rcall	.-3014   	; 0x668 <i2lcd>
   ADC_PORT = TXD_VAL;		// all ADC-Ports to GND
    122e:	f9 d8       	rcall	.-3598   	; 0x422 <lcd_space>
   R_DDR = 0;			// all R-Ports to Input
   R_PORT = 0;
    1230:	8d 81       	ldd	r24, Y+5	; 0x05
   taste = wait_for_key_ms(1000);	// wait up to 1 second or key is pressed
    1232:	9e 81       	ldd	r25, Y+6	; 0x06
    1234:	19 da       	rcall	.-3022   	; 0x668 <i2lcd>
    1236:	07 b9       	out	0x07, r16	; 7
   if ((tt != 4) && (taste > 10)) {
    1238:	08 b9       	out	0x08, r16	; 8
    123a:	14 b8       	out	0x04, r1	; 4
    123c:	15 b8       	out	0x05, r1	; 5
 #ifdef EXTENDED_TESTS
#define TEST_COUNT 8
if((test_mode & 0x0f) == 1) {  /* full test requested */

for(tt=1;tt<TEST_COUNT;tt++) {		// loop for all Tests
for(ww=0;ww<MAX_REP;ww++) {	// repeat the test MAX_REP times
    123e:	88 ee       	ldi	r24, 0xE8	; 232
    1240:	93 e0       	ldi	r25, 0x03	; 3
    1242:	cf dc       	rcall	.-1634   	; 0xbe2 <wait_for_key_ms>
    1244:	14 30       	cpi	r17, 0x04	; 4
   if ((tt != 4) && (taste > 10)) {
      // don't finish repetition  for T4 with pressed key
      break; // if key is pressed, don't repeat
   }
} //end for ww
wait_for_key_ms(1000);	// wait up to 1 second or key is pressed
    1246:	11 f0       	breq	.+4      	; 0x124c <AutoCheck+0x372>
    1248:	8b 30       	cpi	r24, 0x0B	; 11
    124a:	20 f4       	brcc	.+8      	; 0x1254 <AutoCheck+0x37a>
    124c:	c3 94       	inc	r12
    124e:	84 e0       	ldi	r24, 0x04	; 4
    1250:	c8 12       	cpse	r12, r24
    1252:	f3 ce       	rjmp	.-538    	; 0x103a <AutoCheck+0x160>
 #endif
 #ifdef EXTENDED_TESTS
#define TEST_COUNT 8
if((test_mode & 0x0f) == 1) {  /* full test requested */

for(tt=1;tt<TEST_COUNT;tt++) {		// loop for all Tests
    1254:	88 ee       	ldi	r24, 0xE8	; 232
    1256:	93 e0       	ldi	r25, 0x03	; 3
    1258:	c4 dc       	rcall	.-1656   	; 0xbe2 <wait_for_key_ms>
    125a:	ef ef       	ldi	r30, 0xFF	; 255
    125c:	ee 1a       	sub	r14, r30
    125e:	fe 0a       	sbc	r15, r30
 #endif		/* end EXTENDED_TESTS */

for (ww=0;ww<120;ww++) {
  // wait up to 1 minute for releasing the probes
  if (AllProbesShorted() == 0) break;
  lcd_clear_line2();		// clear total line2
    1260:	f8 e0       	ldi	r31, 0x08	; 8
    1262:	ef 16       	cp	r14, r31
  lcd_MEM_string(RELPROBE);	// "Release Probes"
    1264:	f1 04       	cpc	r15, r1
    1266:	09 f0       	breq	.+2      	; 0x126a <AutoCheck+0x390>
    1268:	e4 ce       	rjmp	.-568    	; 0x1032 <AutoCheck+0x158>
    126a:	d2 ce       	rjmp	.-604    	; 0x1010 <AutoCheck+0x136>
  lcd_refresh();		// write the pixels to display, ST7920 only
  wait_about500ms();
    126c:	cc d9       	rcall	.-3176   	; 0x606 <lcd_clear_line2>
    126e:	8b e2       	ldi	r24, 0x2B	; 43
    1270:	92 e0       	ldi	r25, 0x02	; 2
    1272:	42 d9       	rcall	.-3452   	; 0x4f8 <lcd_fix_string>
wait_for_key_5s_line2();		// wait up to 5 seconds and clear line 2
  #endif	/* PROCESSOR_TYP == 1280 */
}	/* end if((test_mode & 0x0f) == 1) */
 #endif		/* end EXTENDED_TESTS */

for (ww=0;ww<120;ww++) {
    1274:	84 e6       	ldi	r24, 0x64	; 100
  // wait up to 1 minute for releasing the probes
  if (AllProbesShorted() == 0) break;
    1276:	0b dc       	rcall	.-2026   	; 0xa8e <sleep_5ms>
    1278:	11 50       	subi	r17, 0x01	; 1
    127a:	19 f0       	breq	.+6      	; 0x1282 <AutoCheck+0x3a8>
    127c:	1f de       	rcall	.-962    	; 0xebc <AllProbesShorted>
  wait_about500ms();
}



lcd_clear();
    127e:	81 11       	cpse	r24, r1
    1280:	f5 cf       	rjmp	.-22     	; 0x126c <AutoCheck+0x392>
lcd_MEM_string(RIHI_str);	// "RiHi="
    1282:	00 d9       	rcall	.-3584   	; 0x484 <lcd_clear>
    1284:	8a ea       	ldi	r24, 0xAA	; 170
    1286:	90 e0       	ldi	r25, 0x00	; 0
    1288:	37 d9       	rcall	.-3474   	; 0x4f8 <lcd_fix_string>
DisplayValue16(RRpinPL,-1,LCD_CHAR_OMEGA,3);
    128a:	23 e0       	ldi	r18, 0x03	; 3
    128c:	44 ef       	ldi	r20, 0xF4	; 244
    128e:	6f ef       	ldi	r22, 0xFF	; 255
    1290:	80 91 31 01 	lds	r24, 0x0131	; 0x800131 <pin_rpl>
    1294:	90 91 32 01 	lds	r25, 0x0132	; 0x800132 <pin_rpl+0x1>
    1298:	a2 db       	rcall	.-2236   	; 0x9de <DisplayValue16>
    129a:	fa d8       	rcall	.-3596   	; 0x490 <lcd_line2>
lcd_line2();
    129c:	83 ea       	ldi	r24, 0xA3	; 163
    129e:	90 e0       	ldi	r25, 0x00	; 0
lcd_MEM_string(RILO_str);	// "RiLo="
    12a0:	2b d9       	rcall	.-3498   	; 0x4f8 <lcd_fix_string>
    12a2:	23 e0       	ldi	r18, 0x03	; 3
    12a4:	44 ef       	ldi	r20, 0xF4	; 244
    12a6:	6f ef       	ldi	r22, 0xFF	; 255
DisplayValue16(RRpinMI,-1,LCD_CHAR_OMEGA,3);
    12a8:	80 91 38 01 	lds	r24, 0x0138	; 0x800138 <pin_rmi>
    12ac:	90 91 39 01 	lds	r25, 0x0139	; 0x800139 <pin_rmi+0x1>
    12b0:	96 db       	rcall	.-2260   	; 0x9de <DisplayValue16>
    12b2:	82 e0       	ldi	r24, 0x02	; 2
    12b4:	80 93 3e 01 	sts	0x013E, r24	; 0x80013e <last_line_used>
    12b8:	d0 dc       	rcall	.-1632   	; 0xc5a <wait_for_key_5s_line2>
last_line_used = 2;
    12ba:	10 92 1a 01 	sts	0x011A, r1	; 0x80011a <PartFound>
    12be:	e2 d8       	rcall	.-3644   	; 0x484 <lcd_clear>
wait_for_key_5s_line2();		// wait up to 5 seconds and clear line 2
    12c0:	8f e9       	ldi	r24, 0x9F	; 159
    12c2:	90 e0       	ldi	r25, 0x00	; 0

//measure Zero offset for Capacity measurement
PartFound = PART_NONE;
    12c4:	19 d9       	rcall	.-3534   	; 0x4f8 <lcd_fix_string>
    12c6:	60 e0       	ldi	r22, 0x00	; 0
lcd_clear();
    12c8:	82 e0       	ldi	r24, 0x02	; 2
    12ca:	0e 94 d4 15 	call	0x2ba8	; 0x2ba8 <ReadCapacity>
lcd_MEM_string(C0_str);			//output "C0 "
    12ce:	80 90 7b 01 	lds	r8, 0x017B	; 0x80017b <cap+0x8>
    12d2:	90 90 7c 01 	lds	r9, 0x017C	; 0x80017c <cap+0x9>
ReadCapacity(TP3, TP1);
    12d6:	a0 90 7d 01 	lds	r10, 0x017D	; 0x80017d <cap+0xa>
    12da:	b0 90 7e 01 	lds	r11, 0x017E	; 0x80017e <cap+0xb>
adcmv[5] = (unsigned int) cap.cval_uncorrected.dw;	//save capacity value of empty Pin 1:3
    12de:	9c 86       	std	Y+12, r9	; 0x0c
    12e0:	8b 86       	std	Y+11, r8	; 0x0b
    12e2:	61 e0       	ldi	r22, 0x01	; 1
    12e4:	82 e0       	ldi	r24, 0x02	; 2
    12e6:	0e 94 d4 15 	call	0x2ba8	; 0x2ba8 <ReadCapacity>
ReadCapacity(TP3, TP2);
    12ea:	c0 90 7b 01 	lds	r12, 0x017B	; 0x80017b <cap+0x8>
    12ee:	d0 90 7c 01 	lds	r13, 0x017C	; 0x80017c <cap+0x9>
adcmv[6] = (unsigned int) cap.cval_uncorrected.dw;	//save capacity value of empty Pin 2:3
    12f2:	e0 90 7d 01 	lds	r14, 0x017D	; 0x80017d <cap+0xa>
    12f6:	f0 90 7e 01 	lds	r15, 0x017E	; 0x80017e <cap+0xb>
    12fa:	de 86       	std	Y+14, r13	; 0x0e
    12fc:	cd 86       	std	Y+13, r12	; 0x0d
    12fe:	60 e0       	ldi	r22, 0x00	; 0
    1300:	81 e0       	ldi	r24, 0x01	; 1
    1302:	0e 94 d4 15 	call	0x2ba8	; 0x2ba8 <ReadCapacity>
ReadCapacity(TP2, TP1);
    1306:	00 91 7b 01 	lds	r16, 0x017B	; 0x80017b <cap+0x8>
    130a:	10 91 7c 01 	lds	r17, 0x017C	; 0x80017c <cap+0x9>
adcmv[2] = (unsigned int) cap.cval_uncorrected.dw;	//save capacity value of empty Pin 1:2
    130e:	1e 83       	std	Y+6, r17	; 0x06
    1310:	0d 83       	std	Y+5, r16	; 0x05
    1312:	62 e0       	ldi	r22, 0x02	; 2
    1314:	80 e0       	ldi	r24, 0x00	; 0
    1316:	0e 94 d4 15 	call	0x2ba8	; 0x2ba8 <ReadCapacity>
ReadCapacity(TP1, TP3);
    131a:	80 91 7b 01 	lds	r24, 0x017B	; 0x80017b <cap+0x8>
    131e:	90 91 7c 01 	lds	r25, 0x017C	; 0x80017c <cap+0x9>
adcmv[1] = (unsigned int) cap.cval_uncorrected.dw;	//save capacity value of empty Pin 3:1
    1322:	9c 83       	std	Y+4, r25	; 0x04
    1324:	8b 83       	std	Y+3, r24	; 0x03
    1326:	62 e0       	ldi	r22, 0x02	; 2
    1328:	81 e0       	ldi	r24, 0x01	; 1
    132a:	0e 94 d4 15 	call	0x2ba8	; 0x2ba8 <ReadCapacity>
ReadCapacity(TP2, TP3);
    132e:	80 91 7b 01 	lds	r24, 0x017B	; 0x80017b <cap+0x8>
    1332:	90 91 7c 01 	lds	r25, 0x017C	; 0x80017c <cap+0x9>
adcmv[4] = (unsigned int) cap.cval_uncorrected.dw;	//save capacity value of empty Pin 3:2
    1336:	9a 87       	std	Y+10, r25	; 0x0a
    1338:	89 87       	std	Y+9, r24	; 0x09
    133a:	61 e0       	ldi	r22, 0x01	; 1
    133c:	80 e0       	ldi	r24, 0x00	; 0
ReadCapacity(TP1, TP2);
    133e:	0e 94 d4 15 	call	0x2ba8	; 0x2ba8 <ReadCapacity>
    1342:	80 91 7b 01 	lds	r24, 0x017B	; 0x80017b <cap+0x8>
adcmv[0] = (unsigned int) cap.cval_uncorrected.dw;	//save capacity value of empty Pin 2:1
    1346:	90 91 7c 01 	lds	r25, 0x017C	; 0x80017c <cap+0x9>
    134a:	9a 83       	std	Y+2, r25	; 0x02
    134c:	89 83       	std	Y+1, r24	; 0x01
 #ifdef WITH_MENU
if (((test_mode & 0x0f) == 1) || (UnCalibrated == 2))
    134e:	2f 85       	ldd	r18, Y+15	; 0x0f
    1350:	21 30       	cpi	r18, 0x01	; 1
    1352:	21 f0       	breq	.+8      	; 0x135c <AutoCheck+0x482>
    1354:	20 91 37 01 	lds	r18, 0x0137	; 0x800137 <UnCalibrated>
    1358:	22 30       	cpi	r18, 0x02	; 2
 #else
if (UnCalibrated == 2)
 #endif
{
  adcmv[3] = adcmv[0] + 2;		// mark as uncalibrated until Cap > 100nF has success
    135a:	21 f4       	brne	.+8      	; 0x1364 <AutoCheck+0x48a>
    135c:	02 96       	adiw	r24, 0x02	; 2
    135e:	98 87       	std	Y+8, r25	; 0x08
    1360:	8f 83       	std	Y+7, r24	; 0x07
} else {
  adcmv[3] = adcmv[0];			// mark as calibrated, short calibration is finished
  UnCalibrated = 0;			// clear the UnCalibrated Flag
    1362:	06 c0       	rjmp	.+12     	; 0x1370 <AutoCheck+0x496>
    1364:	98 87       	std	Y+8, r25	; 0x08
  lcd_cursor_off();			// switch cursor off
    1366:	8f 83       	std	Y+7, r24	; 0x07
    1368:	10 92 37 01 	sts	0x0137, r1	; 0x800137 <UnCalibrated>
}
u2lcd_space(adcmv[5]);	//DisplayValue(adcmv[5],0,' ',3);		//output cap0 1:3
    136c:	8c e0       	ldi	r24, 0x0C	; 12
    136e:	68 d8       	rcall	.-3888   	; 0x440 <lcd_command>
u2lcd_space(adcmv[6]);	//DisplayValue(adcmv[6],0,' ',3);		//output cap0 2:3
    1370:	c4 01       	movw	r24, r8
    1372:	8f d9       	rcall	.-3298   	; 0x692 <u2lcd_space>
    1374:	c6 01       	movw	r24, r12
DisplayValue(adcmv[2],-12,'F',3);		//output cap0 1:2
    1376:	8d d9       	rcall	.-3302   	; 0x692 <u2lcd_space>
    1378:	b8 01       	movw	r22, r16
    137a:	11 0f       	add	r17, r17
    137c:	88 0b       	sbc	r24, r24
    137e:	99 0b       	sbc	r25, r25
    1380:	03 e0       	ldi	r16, 0x03	; 3
    1382:	26 e4       	ldi	r18, 0x46	; 70
    1384:	44 ef       	ldi	r20, 0xF4	; 244
    1386:	41 da       	rcall	.-2942   	; 0x80a <DisplayValue>
    1388:	8e 01       	movw	r16, r28
    138a:	0f 5f       	subi	r16, 0xFF	; 255
    138c:	1f 4f       	sbci	r17, 0xFF	; 255
    138e:	6e 01       	movw	r12, r28
    1390:	8f e0       	ldi	r24, 0x0F	; 15
    1392:	c8 0e       	add	r12, r24
    1394:	d1 1c       	adc	r13, r1
 #ifdef AUTO_CAL
for (ww=0;ww<7;ww++) {			//checking loop
if ((adcmv[ww] > 190) || (adcmv[ww] < 10)) goto no_c0save;
    1396:	f8 01       	movw	r30, r16
    1398:	81 91       	ld	r24, Z+
    139a:	91 91       	ld	r25, Z+
    139c:	0a 97       	sbiw	r24, 0x0a	; 10
    139e:	85 3b       	cpi	r24, 0xB5	; 181
    13a0:	91 05       	cpc	r25, r1
}
u2lcd_space(adcmv[5]);	//DisplayValue(adcmv[5],0,' ',3);		//output cap0 1:3
u2lcd_space(adcmv[6]);	//DisplayValue(adcmv[6],0,' ',3);		//output cap0 2:3
DisplayValue(adcmv[2],-12,'F',3);		//output cap0 1:2
 #ifdef AUTO_CAL
for (ww=0;ww<7;ww++) {			//checking loop
    13a2:	c8 f4       	brcc	.+50     	; 0x13d6 <AutoCheck+0x4fc>
    13a4:	ce 16       	cp	r12, r30
    13a6:	df 06       	cpc	r13, r31
    13a8:	b9 f7       	brne	.-18     	; 0x1398 <AutoCheck+0x4be>
    13aa:	44 e2       	ldi	r20, 0x24	; 36
    13ac:	e4 2e       	mov	r14, r20
    13ae:	43 e0       	ldi	r20, 0x03	; 3
if ((adcmv[ww] > 190) || (adcmv[ww] < 10)) goto no_c0save;
}
for (ww=0;ww<7;ww++) {
  // write all zero offsets to the EEprom 
  (void) eeprom_write_byte((uint8_t *)(&c_zero_tab[ww]),adcmv[ww]+(COMP_SLEW1 / (CC0 + CABLE_CAP + COMP_SLEW2)));
    13b0:	f4 2e       	mov	r15, r20
    13b2:	f8 01       	movw	r30, r16
    13b4:	60 81       	ld	r22, Z
    13b6:	0e 5f       	subi	r16, 0xFE	; 254
    13b8:	1f 4f       	sbci	r17, 0xFF	; 255
    13ba:	6e 5e       	subi	r22, 0xEE	; 238
    13bc:	c7 01       	movw	r24, r14
    13be:	0e 94 68 34 	call	0x68d0	; 0x68d0 <eeprom_write_byte>
    13c2:	ff ef       	ldi	r31, 0xFF	; 255
    13c4:	ef 1a       	sub	r14, r31
DisplayValue(adcmv[2],-12,'F',3);		//output cap0 1:2
 #ifdef AUTO_CAL
for (ww=0;ww<7;ww++) {			//checking loop
if ((adcmv[ww] > 190) || (adcmv[ww] < 10)) goto no_c0save;
}
for (ww=0;ww<7;ww++) {
    13c6:	ff 0a       	sbc	r15, r31
    13c8:	c0 16       	cp	r12, r16
    13ca:	d1 06       	cpc	r13, r17
  // write all zero offsets to the EEprom 
  (void) eeprom_write_byte((uint8_t *)(&c_zero_tab[ww]),adcmv[ww]+(COMP_SLEW1 / (CC0 + CABLE_CAP + COMP_SLEW2)));
}
lcd_line2();
    13cc:	91 f7       	brne	.-28     	; 0x13b2 <AutoCheck+0x4d8>
    13ce:	60 d8       	rcall	.-3904   	; 0x490 <lcd_line2>
lcd_MEM_string(OK_str);		// output "OK"
    13d0:	87 e9       	ldi	r24, 0x97	; 151
    13d2:	91 e0       	ldi	r25, 0x01	; 1
    13d4:	91 d8       	rcall	.-3806   	; 0x4f8 <lcd_fix_string>
    13d6:	82 e0       	ldi	r24, 0x02	; 2
no_c0save:
 #endif
last_line_used = 2;
    13d8:	80 93 3e 01 	sts	0x013E, r24	; 0x80013e <last_line_used>
    13dc:	3e dc       	rcall	.-1924   	; 0xc5a <wait_for_key_5s_line2>
wait_for_key_5s_line2();		// wait up to 5 seconds and clear line 2
    13de:	0e 94 ab 29 	call	0x5356	; 0x5356 <sampling_cap_calibrate>

#ifdef SamplingADC
  sampling_cap_calibrate();		// measure zero capacity for samplingADC
    13e2:	2f 85       	ldd	r18, Y+15	; 0x0f
    13e4:	21 30       	cpi	r18, 0x01	; 1
#endif

 #ifdef AUTO_CAL
  #ifdef WITH_MENU
if (((test_mode & 0x0f) == 1) || (UnCalibrated == 2))
    13e6:	29 f0       	breq	.+10     	; 0x13f2 <AutoCheck+0x518>
    13e8:	80 91 37 01 	lds	r24, 0x0137	; 0x800137 <UnCalibrated>
    13ec:	82 30       	cpi	r24, 0x02	; 2
    13ee:	09 f0       	breq	.+2      	; 0x13f2 <AutoCheck+0x518>
    13f0:	e6 c0       	rjmp	.+460    	; 0x15be <AutoCheck+0x6e4>
    13f2:	48 d8       	rcall	.-3952   	; 0x484 <lcd_clear>
    13f4:	80 e0       	ldi	r24, 0x00	; 0
{
// for full test or first time calibration, use external capacitor
// Message C > 100nF at TP1 and TP3
cap_found = 0;
#if (TPCAP <= 0)
lcd_clear();
    13f6:	12 d8       	rcall	.-4060   	; 0x41c <lcd_testpin>
    13f8:	8d e4       	ldi	r24, 0x4D	; 77
lcd_testpin(TP1);
    13fa:	91 e0       	ldi	r25, 0x01	; 1
    13fc:	7d d8       	rcall	.-3846   	; 0x4f8 <lcd_fix_string>
    13fe:	82 e0       	ldi	r24, 0x02	; 2
lcd_MEM_string(CapZeich);	// "-||-"
    1400:	0d d8       	rcall	.-4070   	; 0x41c <lcd_testpin>
    1402:	84 e2       	ldi	r24, 0x24	; 36
    1404:	90 e0       	ldi	r25, 0x00	; 0
    1406:	78 d8       	rcall	.-3856   	; 0x4f8 <lcd_fix_string>
lcd_testpin(TP3);
    1408:	20 e4       	ldi	r18, 0x40	; 64
    140a:	f2 2e       	mov	r15, r18
lcd_MEM2_string(MinCap_str);	// " >100nF!"
    140c:	10 e0       	ldi	r17, 0x00	; 0
    140e:	3a e0       	ldi	r19, 0x0A	; 10
    1410:	83 2e       	mov	r8, r19
    1412:	91 2c       	mov	r9, r1
    1414:	a1 2c       	mov	r10, r1
    1416:	b1 2c       	mov	r11, r1
// calibration (UnCalibrated = 2) or for the full selftest call (test_mode = 1) 
// of the menu function, not with the automatically call (test_mode = 1).
{
// for full test or first time calibration, use external capacitor
// Message C > 100nF at TP1 and TP3
cap_found = 0;
    1418:	e3 dc       	rcall	.-1594   	; 0xde0 <init_parts>
  PartFound = PART_NONE;
  ReadCapacity(TP3, TP1);	// look for capacitor > 100nF
  #endif
  while (cap.cpre < -9) {
   cap.cpre++;
   cap.cval /= 10;
    141a:	10 92 1a 01 	sts	0x011A, r1	; 0x80011a <PartFound>
    141e:	60 e0       	ldi	r22, 0x00	; 0
lcd_MEM_string(CapZeich);	// "-||-"
lcd_testpin(TP3);
lcd_MEM2_string(MinCap_str);	// " >100nF!"
#endif
for (ww=0;ww<64;ww++) {
  init_parts();
    1420:	82 e0       	ldi	r24, 0x02	; 2
    1422:	0e 94 d4 15 	call	0x2ba8	; 0x2ba8 <ReadCapacity>
  #if (TPCAP >= 0)
  CalibrationCap();	// measure with internal calibration capacitor
  #else
  PartFound = PART_NONE;
    1426:	00 91 85 01 	lds	r16, 0x0185	; 0x800185 <cap+0x12>
  ReadCapacity(TP3, TP1);	// look for capacitor > 100nF
    142a:	20 91 73 01 	lds	r18, 0x0173	; 0x800173 <cap>
    142e:	30 91 74 01 	lds	r19, 0x0174	; 0x800174 <cap+0x1>
    1432:	40 91 75 01 	lds	r20, 0x0175	; 0x800175 <cap+0x2>
    1436:	50 91 76 01 	lds	r21, 0x0176	; 0x800176 <cap+0x3>
    143a:	07 3f       	cpi	r16, 0xF7	; 247
    143c:	44 f4       	brge	.+16     	; 0x144e <AutoCheck+0x574>
    143e:	0f 5f       	subi	r16, 0xFF	; 255
  #endif
  while (cap.cpre < -9) {
    1440:	ca 01       	movw	r24, r20
    1442:	b9 01       	movw	r22, r18
    1444:	a5 01       	movw	r20, r10
   cap.cpre++;
   cap.cval /= 10;
    1446:	94 01       	movw	r18, r8
    1448:	0e 94 e0 32 	call	0x65c0	; 0x65c0 <__udivmodsi4>
    144c:	f6 cf       	rjmp	.-20     	; 0x143a <AutoCheck+0x560>
    144e:	00 93 85 01 	sts	0x0185, r16	; 0x800185 <cap+0x12>
    1452:	20 93 73 01 	sts	0x0173, r18	; 0x800173 <cap>
    1456:	30 93 74 01 	sts	0x0174, r19	; 0x800174 <cap+0x1>
    145a:	40 93 75 01 	sts	0x0175, r20	; 0x800175 <cap+0x2>
    145e:	50 93 76 01 	sts	0x0176, r21	; 0x800176 <cap+0x3>
    1462:	07 3f       	cpi	r16, 0xF7	; 247
  }
  if ((cap.cpre == -9) && (cap.cval > 95) && (cap.cval < 22000) &&
    1464:	09 f0       	breq	.+2      	; 0x1468 <AutoCheck+0x58e>
    1466:	94 c0       	rjmp	.+296    	; 0x1590 <AutoCheck+0x6b6>
    1468:	da 01       	movw	r26, r20
    146a:	c9 01       	movw	r24, r18
    146c:	80 56       	subi	r24, 0x60	; 96
    146e:	91 09       	sbc	r25, r1
    1470:	a1 09       	sbc	r26, r1
    1472:	b1 09       	sbc	r27, r1
    1474:	80 39       	cpi	r24, 0x90	; 144
    1476:	95 45       	sbci	r25, 0x55	; 85
    1478:	a1 05       	cpc	r26, r1
    147a:	b1 05       	cpc	r27, r1
    147c:	08 f0       	brcs	.+2      	; 0x1480 <AutoCheck+0x5a6>
    147e:	88 c0       	rjmp	.+272    	; 0x1590 <AutoCheck+0x6b6>
    1480:	60 91 87 01 	lds	r22, 0x0187	; 0x800187 <load_diff>
    (load_diff > -150) && (load_diff < 150)) {
    1484:	70 91 88 01 	lds	r23, 0x0188	; 0x800188 <load_diff+0x1>
    1488:	cb 01       	movw	r24, r22
    148a:	8b 56       	subi	r24, 0x6B	; 107
    148c:	9f 4f       	sbci	r25, 0xFF	; 255
    148e:	8b 32       	cpi	r24, 0x2B	; 43
    1490:	91 40       	sbci	r25, 0x01	; 1
    1492:	08 f0       	brcs	.+2      	; 0x1496 <AutoCheck+0x5bc>
    1494:	7d c0       	rjmp	.+250    	; 0x1590 <AutoCheck+0x6b6>
    1496:	1f 5f       	subi	r17, 0xFF	; 255
   cap_found++;
    1498:	15 30       	cpi	r17, 0x05	; 5
  } else {
   cap_found = 0;		// wait for stable connection
  }
  if (cap_found > 4) {
    149a:	08 f4       	brcc	.+2      	; 0x149e <AutoCheck+0x5c4>
    149c:	7a c0       	rjmp	.+244    	; 0x1592 <AutoCheck+0x6b8>
    149e:	8b e2       	ldi	r24, 0x2B	; 43
     // value of capacitor is correct
     (void) eeprom_write_word((uint16_t *)(&ref_offset), load_diff);	// hold zero offset + slew rate dependend offset
    14a0:	93 e0       	ldi	r25, 0x03	; 3
    14a2:	0e 94 76 34 	call	0x68ec	; 0x68ec <eeprom_write_word>
    14a6:	0e 94 42 02 	call	0x484	; 0x484 <lcd_clear>
     lcd_clear();
    14aa:	8d e1       	ldi	r24, 0x1D	; 29
     lcd_MEM2_string(REF_C_str);	// "REF_C="
    14ac:	90 e0       	ldi	r25, 0x00	; 0
    14ae:	24 d8       	rcall	.-4024   	; 0x4f8 <lcd_fix_string>
    14b0:	80 91 87 01 	lds	r24, 0x0187	; 0x800187 <load_diff>
     i2lcd(load_diff);		// lcd_string(itoa(load_diff, outval, 10));	//output REF_C_KORR
    14b4:	90 91 88 01 	lds	r25, 0x0188	; 0x800188 <load_diff+0x1>
    14b8:	d7 d8       	rcall	.-3666   	; 0x668 <i2lcd>
    14ba:	f0 db       	rcall	.-2080   	; 0xc9c <RefVoltage>
    14bc:	88 e0       	ldi	r24, 0x08	; 8
     RefVoltage();			// new ref_mv_offs and RHmultip
    14be:	88 b9       	out	0x08, r24	; 8
    14c0:	89 e0       	ldi	r24, 0x09	; 9
    #define CAP_ADC TPCAP	/* Cap >100nF is integrated at TPCAP */
   TCAP_PORT &= ~(1<<TCAP_RH);	// 470k resistor to GND
   TCAP_DDR |= (1<<TCAP_RH);	// enable output
   #else
    #define CAP_ADC TP3		/* Cap >100nF at TP3 */
   ADC_PORT =  TXD_VAL;	//ADC-Port 1 to GND
    14c2:	87 b9       	out	0x07, r24	; 7
   ADC_DDR = 1<<TP1 | TXD_MSK;	//ADC-Pin  1 to output 0V
    14c4:	80 e2       	ldi	r24, 0x20	; 32
    14c6:	84 b9       	out	0x04, r24	; 4
   R_DDR = 1<<PIN_RH3;		//Pin 3 over R_H to GND
    14c8:	82 e0       	ldi	r24, 0x02	; 2
    14ca:	19 db       	rcall	.-2510   	; 0xafe <ReadADC>
   #endif
   do {
      adcmv[0] = ReadADC(CAP_ADC);
    14cc:	85 3d       	cpi	r24, 0xD5	; 213
    14ce:	93 40       	sbci	r25, 0x03	; 3
    14d0:	dc f7       	brge	.-10     	; 0x14c8 <AutoCheck+0x5ee>
   } while (adcmv[0] > 980);
    14d2:	14 b8       	out	0x04, r1	; 4
    14d4:	10 92 2e 01 	sts	0x012E, r1	; 0x80012e <ADCconfig+0x3>
   #if (TPCAP >= 0)
   TCAP_DDR &= ~(1<<TCAP_RH);	// 470k resistor port to input mode
   #else
   R_DDR = 0;		//all Pins to input 
    14d8:	10 92 2d 01 	sts	0x012D, r1	; 0x80012d <ADCconfig+0x2>
   #endif
   ADCconfig.U_Bandgap = 0;	// do not use internal Ref
    14dc:	82 e0       	ldi	r24, 0x02	; 2
    14de:	0f db       	rcall	.-2530   	; 0xafe <ReadADC>
    14e0:	8c 01       	movw	r16, r24
   adcmv[0] = ReadADC(CAP_ADC);  // get cap voltage with VCC reference
    14e2:	80 91 6d 01 	lds	r24, 0x016D	; 0x80016d <adc_internal_reference>
    14e6:	90 91 6e 01 	lds	r25, 0x016E	; 0x80016e <adc_internal_reference+0x1>
   ADCconfig.U_Bandgap = adc_internal_reference;
    14ea:	90 93 2e 01 	sts	0x012E, r25	; 0x80012e <ADCconfig+0x3>
    14ee:	80 93 2d 01 	sts	0x012D, r24	; 0x80012d <ADCconfig+0x2>
    14f2:	82 e0       	ldi	r24, 0x02	; 2
    14f4:	04 db       	rcall	.-2552   	; 0xafe <ReadADC>
    14f6:	7c 01       	movw	r14, r24
    14f8:	ee 0c       	add	r14, r14
   adcmv[1] = ReadADC(CAP_ADC);	// get cap voltage with internal reference
    14fa:	ff 1c       	adc	r15, r15
    14fc:	10 92 2e 01 	sts	0x012E, r1	; 0x80012e <ADCconfig+0x3>
   adcmv[1] += adcmv[1];		// double the value
    1500:	10 92 2d 01 	sts	0x012D, r1	; 0x80012d <ADCconfig+0x2>
   ADCconfig.U_Bandgap = 0;	// do not use internal Ref
    1504:	82 e0       	ldi	r24, 0x02	; 2
    1506:	fb da       	rcall	.-2570   	; 0xafe <ReadADC>
    1508:	a0 90 6d 01 	lds	r10, 0x016D	; 0x80016d <adc_internal_reference>
   adcmv[2] = ReadADC(CAP_ADC);  // get cap voltage with VCC reference
    150c:	b0 90 6e 01 	lds	r11, 0x016E	; 0x80016e <adc_internal_reference+0x1>
   ADCconfig.U_Bandgap = adc_internal_reference;
    1510:	b0 92 2e 01 	sts	0x012E, r11	; 0x80012e <ADCconfig+0x3>
    1514:	a0 92 2d 01 	sts	0x012D, r10	; 0x80012d <ADCconfig+0x2>
    1518:	80 0f       	add	r24, r16
    151a:	91 1f       	adc	r25, r17
    151c:	8c 01       	movw	r16, r24
    151e:	0e 19       	sub	r16, r14
   udiff = (int8_t)(((signed long)(adcmv[0] + adcmv[2] - adcmv[1])) * adc_internal_reference / adcmv[1])+REF_R_KORR;
    1520:	1f 09       	sbc	r17, r15
    1522:	0e 94 48 02 	call	0x490	; 0x490 <lcd_line2>
    1526:	86 e1       	ldi	r24, 0x16	; 22
    1528:	90 e0       	ldi	r25, 0x00	; 0
   lcd_line2();
    152a:	0e 94 7c 02 	call	0x4f8	; 0x4f8 <lcd_fix_string>
   lcd_MEM2_string(REF_R_str);	// "REF_R="
    152e:	8d e2       	ldi	r24, 0x2D	; 45
    1530:	93 e0       	ldi	r25, 0x03	; 3
    1532:	0e 94 5b 34 	call	0x68b6	; 0x68b6 <eeprom_read_byte>
   udiff2 = udiff + (int8_t)eeprom_read_byte((uint8_t *)(&RefDiff));
    1536:	d8 2e       	mov	r13, r24
    1538:	95 01       	movw	r18, r10
    153a:	d8 01       	movw	r26, r16
    153c:	0e 94 2d 33 	call	0x665a	; 0x665a <__usmulhisi3>
    1540:	97 01       	movw	r18, r14
    1542:	0f 2c       	mov	r0, r15
    1544:	00 0c       	add	r0, r0
    1546:	44 0b       	sbc	r20, r20
    1548:	55 0b       	sbc	r21, r21
    154a:	0e 94 02 33 	call	0x6604	; 0x6604 <__divmodsi4>
    154e:	13 e0       	ldi	r17, 0x03	; 3
    1550:	1d 0d       	add	r17, r13
    1552:	12 0f       	add	r17, r18
    1554:	61 2f       	mov	r22, r17
    1556:	8d e2       	ldi	r24, 0x2D	; 45
    1558:	93 e0       	ldi	r25, 0x03	; 3
   (void) eeprom_write_byte((uint8_t *)(&RefDiff), (uint8_t)udiff2);	// hold offset for true reference Voltage
    155a:	0e 94 68 34 	call	0x68d0	; 0x68d0 <eeprom_write_byte>
    155e:	81 2f       	mov	r24, r17
    1560:	01 2e       	mov	r0, r17
    1562:	00 0c       	add	r0, r0
   i2lcd(udiff2);		// output correction voltage
    1564:	99 0b       	sbc	r25, r25
    1566:	80 d8       	rcall	.-3840   	; 0x668 <i2lcd>
    1568:	99 db       	rcall	.-2254   	; 0xc9c <RefVoltage>
    156a:	82 e0       	ldi	r24, 0x02	; 2
    156c:	80 93 3e 01 	sts	0x013E, r24	; 0x80013e <last_line_used>
   RefVoltage();			// set new ADCconfig.U_Bandgap
    1570:	74 db       	rcall	.-2328   	; 0xc5a <wait_for_key_5s_line2>
    1572:	10 92 37 01 	sts	0x0137, r1	; 0x800137 <UnCalibrated>
  #endif	/* end AUTOSCALE_ADC */
   last_line_used = 2;
    1576:	8c e0       	ldi	r24, 0x0C	; 12
    1578:	0e 94 20 02 	call	0x440	; 0x440 <lcd_command>
   wait_for_key_5s_line2();		// wait up to 5 seconds and clear line 2
    157c:	84 e2       	ldi	r24, 0x24	; 36
   UnCalibrated = 0;		// clear the UnCalibrated Flag
    157e:	93 e0       	ldi	r25, 0x03	; 3
    1580:	0e 94 5b 34 	call	0x68b6	; 0x68b6 <eeprom_read_byte>
   lcd_cursor_off();		// switch cursor off
    1584:	68 2f       	mov	r22, r24
    1586:	87 e2       	ldi	r24, 0x27	; 39
   cap_found = eeprom_read_byte((uint8_t *)&c_zero_tab[0]);	// read first capacity zero offset
    1588:	93 e0       	ldi	r25, 0x03	; 3
    158a:	0e 94 68 34 	call	0x68d0	; 0x68d0 <eeprom_write_byte>
    158e:	17 c0       	rjmp	.+46     	; 0x15be <AutoCheck+0x6e4>
   eeprom_write_byte((uint8_t *)&c_zero_tab[3], cap_found);	// mark as calibrated permanent
    1590:	10 e0       	ldi	r17, 0x00	; 0
    1592:	0e 94 48 02 	call	0x490	; 0x490 <lcd_line2>
    1596:	60 91 73 01 	lds	r22, 0x0173	; 0x800173 <cap>
   break;			// leave the ww for loop
    159a:	70 91 74 01 	lds	r23, 0x0174	; 0x800174 <cap+0x1>
  }  /* end if (cap_found > 4) */
  lcd_line2();
    159e:	80 91 75 01 	lds	r24, 0x0175	; 0x800175 <cap+0x2>
  DisplayValue(cap.cval,cap.cpre,'F',4);
    15a2:	90 91 76 01 	lds	r25, 0x0176	; 0x800176 <cap+0x3>
    15a6:	04 e0       	ldi	r16, 0x04	; 4
    15a8:	26 e4       	ldi	r18, 0x46	; 70
    15aa:	40 91 85 01 	lds	r20, 0x0185	; 0x800185 <cap+0x12>
    15ae:	2d d9       	rcall	.-3494   	; 0x80a <DisplayValue>
    15b0:	0e 94 d8 02 	call	0x5b0	; 0x5b0 <lcd_clear_line>
    15b4:	88 e2       	ldi	r24, 0x28	; 40
    15b6:	6b da       	rcall	.-2858   	; 0xa8e <sleep_5ms>
    15b8:	fa 94       	dec	r15
    15ba:	f1 10       	cpse	r15, r1
  lcd_clear_line();
    15bc:	2d cf       	rjmp	.-422    	; 0x1418 <AutoCheck+0x53e>
    15be:	89 e1       	ldi	r24, 0x19	; 25
  lcd_refresh();		// write the pixels to display, ST7920 only
  wait_about200ms();			// wait additional time
    15c0:	80 93 2b 01 	sts	0x012B, r24	; 0x80012b <ADCconfig>
    15c4:	80 e0       	ldi	r24, 0x00	; 0
    15c6:	0e 94 c9 2c 	call	0x5992	; 0x5992 <sampling_lc_calibrate>
lcd_testpin(TP1);
lcd_MEM_string(CapZeich);	// "-||-"
lcd_testpin(TP3);
lcd_MEM2_string(MinCap_str);	// " >100nF!"
#endif
for (ww=0;ww<64;ww++) {
    15ca:	0e 94 42 02 	call	0x484	; 0x484 <lcd_clear>
  wait_about200ms();			// wait additional time
} // end for ww
}	/* end if((test_mode & 0x0f) == 1) */
 #endif  /* end AUTO_CAL */

ADCconfig.Samples = ANZ_MESS;	// set to configured number of ADC samples
    15ce:	85 ef       	ldi	r24, 0xF5	; 245
    15d0:	90 e0       	ldi	r25, 0x00	; 0

#if defined(SamplingADC) && !defined(AUTO_LC_CAP)
  sampling_lc_calibrate(0);	// Cap for L-meas
    15d2:	0e 94 7c 02 	call	0x4f8	; 0x4f8 <lcd_fix_string>
    15d6:	0e 94 48 02 	call	0x490	; 0x490 <lcd_line2>
      // if key is pressed, don't repeat
      break;
   }
 } /* end for ww */
 #endif		/* end FREQUENCY_50HZ */
lcd_clear();
    15da:	82 e2       	ldi	r24, 0x22	; 34
lcd_MEM_string(VERSION_str);	//"Version ..."
    15dc:	92 e0       	ldi	r25, 0x02	; 2
    15de:	0e 94 7c 02 	call	0x4f8	; 0x4f8 <lcd_fix_string>
    15e2:	10 92 1a 01 	sts	0x011A, r1	; 0x80011a <PartFound>
lcd_line2();
lcd_MEM_string(ATE);		//"Selftest End"
    15e6:	82 e0       	ldi	r24, 0x02	; 2
    15e8:	80 93 3e 01 	sts	0x013E, r24	; 0x80013e <last_line_used>
    15ec:	36 db       	rcall	.-2452   	; 0xc5a <wait_for_key_5s_line2>
PartFound = PART_NONE;
    15ee:	03 c0       	rjmp	.+6      	; 0x15f6 <AutoCheck+0x71c>
    15f0:	82 e0       	ldi	r24, 0x02	; 2
     last_line_used = 2;
    15f2:	c8 2e       	mov	r12, r24
    15f4:	14 ce       	rjmp	.-984    	; 0x121e <AutoCheck+0x344>
    15f6:	2f 96       	adiw	r28, 0x0f	; 15
wait_for_key_5s_line2();		// wait up to 5 seconds and clear line 2
    15f8:	e2 e1       	ldi	r30, 0x12	; 18
    15fa:	0c 94 e4 33 	jmp	0x67c8	; 0x67c8 <__epilogue_restores__>

000015fe <mark_as_uncalibrated>:
      lcd_MEM_string(RHRH_str);	// "RHRH"
   }
				//############################################
   if (tt == 4) { // Text release probes
      lcd_MEM_string(RELPROBE);	// "Release Probes"
      if (AllProbesShorted() != 0) ww = MAX_REP-2;
    15fe:	80 91 37 01 	lds	r24, 0x0137	; 0x800137 <UnCalibrated>
    1602:	81 11       	cpse	r24, r1
lcd_line2();
lcd_MEM_string(ATE);		//"Selftest End"
PartFound = PART_NONE;
     last_line_used = 2;
wait_for_key_5s_line2();		// wait up to 5 seconds and clear line 2
} /* end AutoCheck */ 
    1604:	0d c0       	rjmp	.+26     	; 0x1620 <mark_as_uncalibrated+0x22>
    1606:	84 e2       	ldi	r24, 0x24	; 36
    1608:	93 e0       	ldi	r25, 0x03	; 3
    160a:	0e 94 5b 34 	call	0x68b6	; 0x68b6 <eeprom_read_byte>
void mark_as_uncalibrated( void) {
 uint8_t ii;
 if (!UnCalibrated) {
    160e:	61 e0       	ldi	r22, 0x01	; 1
    1610:	68 0f       	add	r22, r24
    1612:	87 e2       	ldi	r24, 0x27	; 39
    // equipment has changed, zero capacity value is too high or zero resistance is too high
    // but the device is marked as Calibrated.
    ii = eeprom_read_byte((uint8_t *)&c_zero_tab[0]);	// read first zero offset
    1614:	93 e0       	ldi	r25, 0x03	; 3
    1616:	0e 94 68 34 	call	0x68d0	; 0x68d0 <eeprom_write_byte>
    161a:	81 e0       	ldi	r24, 0x01	; 1
    ii++;
    // make the unused c_zero_tab[3] different to c_zero_tab[0] to mark uncalibrated 
    eeprom_write_byte((uint8_t *)&c_zero_tab[3], ii);	// mark uncalibrated permanent
    161c:	80 93 37 01 	sts	0x0137, r24	; 0x800137 <UnCalibrated>
    1620:	08 95       	ret

00001622 <GetIr>:
    1622:	ef 92       	push	r14
    1624:	ff 92       	push	r15
    1626:	0f 93       	push	r16
    UnCalibrated = 1;		// set back to uncalibrated
    1628:	1f 93       	push	r17
    162a:	cf 93       	push	r28
    162c:	df 93       	push	r29
    162e:	d6 2f       	mov	r29, r22
/* Get residual current in reverse direction of a diode */ 



//=================================================================
void GetIr(uint8_t hipin, uint8_t lopin) {
    1630:	e8 2f       	mov	r30, r24
    1632:	f0 e0       	ldi	r31, 0x00	; 0
    1634:	e1 57       	subi	r30, 0x71	; 113
    1636:	fe 4f       	sbci	r31, 0xFE	; 254
    1638:	e4 91       	lpm	r30, Z
    163a:	e8 b9       	out	0x08, r30	; 8
    163c:	e8 60       	ori	r30, 0x08	; 8
  ADC_DDR = HiADC | TXD_MSK;		// switch High Pin direct to VCC
  R_PORT = 0;				// switch R-Port to GND
  LoPinR_L = pgm_read_byte(&PinRHRLADCtab[lopin-TP_MIN]);  //R_L mask for LowPin R_L load
#else
  uint8_t LoPinR_L;
  HiADC = pgm_read_byte(&PinRLRHADCtab[hipin-TP_MIN]+3);	// Table of ADC pins including | TXD_VAL
    163e:	e7 b9       	out	0x07, r30	; 7
    1640:	15 b8       	out	0x05, r1	; 5
    1642:	e6 2f       	mov	r30, r22
    1644:	f0 e0       	ldi	r31, 0x00	; 0
    1646:	e4 57       	subi	r30, 0x74	; 116
  ADC_PORT = HiADC;		 	// switch ADC port to high level
    1648:	fe 4f       	sbci	r31, 0xFE	; 254
  ADC_DDR = HiADC | TXD_MSK;		// switch High Pin direct to VCC
    164a:	e4 91       	lpm	r30, Z
    164c:	e4 b9       	out	0x04, r30	; 4
  R_PORT = 0;				// switch R-Port to GND
    164e:	88 e8       	ldi	r24, 0x88	; 136
  LoPinR_L = pgm_read_byte(&PinRLRHADCtab[lopin-TP_MIN]);  //R_L mask for LowPin R_L load
    1650:	e8 2e       	mov	r14, r24
    1652:	83 e1       	ldi	r24, 0x13	; 19
    1654:	f8 2e       	mov	r15, r24
    1656:	ce 2f       	mov	r28, r30
    1658:	cc 0f       	add	r28, r28
  // R_H Pin must always be one pin number higher
#endif
  R_DDR = LoPinR_L;		// switch R_L port for LowPin to output (GND)
    165a:	8d 2f       	mov	r24, r29
  u_res = U_VCC;
    165c:	44 da       	rcall	.-2936   	; 0xae6 <W20msReadADC>
    165e:	8c 01       	movw	r16, r24
    1660:	c4 b9       	out	0x04, r28	; 4
    1662:	8e 15       	cp	r24, r14
     u_res_old = u_res;
     u_res = W20msReadADC(lopin);		// read voltage
#if (((PIN_RL1 + 1) != PIN_RH1) || ((PIN_RL2 + 1) != PIN_RH2) || ((PIN_RL3 + 1) != PIN_RH3))
     R_DDR = pgm_read_byte(&PinRHRLADCtab[lopin-TP_MIN+3]);  //R_H mask for LowPin R_H load
#else
     R_DDR = LoPinR_L + LoPinR_L;		// switch R_H port for LowPin to output (GND)
    1664:	9f 05       	cpc	r25, r15
    1666:	10 f4       	brcc	.+4      	; 0x166c <GetIr+0x4a>
  R_DDR = LoPinR_L;		// switch R_L port for LowPin to output (GND)
  u_res = U_VCC;
  // first load the parallel capacity with 680 Ohm resistor, then measure current with 470k
  do {
     u_res_old = u_res;
     u_res = W20msReadADC(lopin);		// read voltage
    1668:	78 01       	movw	r14, r16
    166a:	f7 cf       	rjmp	.-18     	; 0x165a <GetIr+0x38>
    166c:	89 2b       	or	r24, r25
    166e:	d9 f0       	breq	.+54     	; 0x16a6 <GetIr+0x84>
#if (((PIN_RL1 + 1) != PIN_RH1) || ((PIN_RL2 + 1) != PIN_RH2) || ((PIN_RL3 + 1) != PIN_RH3))
     R_DDR = pgm_read_byte(&PinRHRLADCtab[lopin-TP_MIN+3]);  //R_H mask for LowPin R_H load
#else
     R_DDR = LoPinR_L + LoPinR_L;		// switch R_H port for LowPin to output (GND)
    1670:	8b e2       	ldi	r24, 0x2B	; 43
#endif
  } while (u_res < u_res_old);
    1672:	91 e0       	ldi	r25, 0x01	; 1
    1674:	0e 94 7c 02 	call	0x4f8	; 0x4f8 <lcd_fix_string>
    1678:	d8 01       	movw	r26, r16
    167a:	20 ea       	ldi	r18, 0xA0	; 160
  if (u_res == 0) return;		// no Output, if no current in reverse direction
    167c:	36 e8       	ldi	r19, 0x86	; 134
    167e:	41 e0       	ldi	r20, 0x01	; 1
 #define IR_DIGITS 3
  lcd_line4();				// use Line 4 for Ir output
  lcd_MEM_string(Ir_str);		// output text "Ir="
#else
 #define IR_DIGITS 2
  lcd_MEM_string(Ir_str);		// output text "  Ir="
    1680:	50 e0       	ldi	r21, 0x00	; 0
    1682:	0e 94 33 33 	call	0x6666	; 0x6666 <__muluhisi3>
    1686:	28 e9       	ldi	r18, 0x98	; 152
  unsigned int ir_micro;
  if (u_res < 2500) {
#endif
     /* R_H_VAL has units of 10 Ohm, u_res has units of mV, ir_nano has units of nA */
     ir_nano = (unsigned long)(u_res * 100000UL) / R_H_VAL;
     DisplayValue16(ir_nano,-9,'A',2);	// output two digits of current with nA units
    1688:	37 eb       	ldi	r19, 0xB7	; 183
    168a:	40 e0       	ldi	r20, 0x00	; 0
    168c:	50 e0       	ldi	r21, 0x00	; 0
    168e:	0e 94 e0 32 	call	0x65c0	; 0x65c0 <__udivmodsi4>
    1692:	da 01       	movw	r26, r20
    1694:	c9 01       	movw	r24, r18
    1696:	22 e0       	ldi	r18, 0x02	; 2
    1698:	41 e4       	ldi	r20, 0x41	; 65
    169a:	67 ef       	ldi	r22, 0xF7	; 247
    169c:	a0 d9       	rcall	.-3264   	; 0x9de <DisplayValue16>
    169e:	88 e0       	ldi	r24, 0x08	; 8
    16a0:	87 b9       	out	0x07, r24	; 7
    16a2:	88 b9       	out	0x08, r24	; 8
    16a4:	14 b8       	out	0x04, r1	; 4
    16a6:	cd b7       	in	r28, 0x3d	; 61
    16a8:	de b7       	in	r29, 0x3e	; 62
    16aa:	e6 e0       	ldi	r30, 0x06	; 6
    16ac:	0c 94 f0 33 	jmp	0x67e0	; 0x67e0 <__epilogue_restores__+0x18>

000016b0 <Battery_check>:

//	  Calibrate_UR();		// get Ref Voltages and Pin resistance
//        lcd_line1();			// Cursor to 1. row, column 1
	  
#ifdef BAT_CHECK
void Battery_check(void) {
    16b0:	0f 93       	push	r16
    16b2:	1f 93       	push	r17
    16b4:	cf 93       	push	r28
    16b6:	df 93       	push	r29
 uint16_t bat_voltage;
 uint16_t bat_adc;
  // Battery check is selected
  ReadADC(TPBAT);	//Dummy-Readout
    16b8:	85 e0       	ldi	r24, 0x05	; 5
    16ba:	21 da       	rcall	.-3006   	; 0xafe <ReadADC>
  bat_adc = W5msReadADC(TPBAT); 	//with 5V reference
    16bc:	85 e0       	ldi	r24, 0x05	; 5
    16be:	1b da       	rcall	.-3018   	; 0xaf6 <W5msReadADC>
    16c0:	8c 01       	movw	r16, r24
  // A good result can be get with multiply by 4 and divide by 10 (about 0.75%).
  #if BAT_NUMERATOR <= (0xffff/U_VCC)
	  bat_voltage = (bat_adc*BAT_NUMERATOR)/BAT_DENOMINATOR + BAT_OUT;
  #else
   #if (BAT_NUMERATOR == 133) && (BAT_DENOMINATOR == 33)
	  bat_voltage = (bat_adc*4)+BAT_OUT;		// usually output only 2 digits
    16c2:	ec 01       	movw	r28, r24
    16c4:	cc 0f       	add	r28, r28
    16c6:	dd 1f       	adc	r29, r29
    16c8:	cc 0f       	add	r28, r28
    16ca:	dd 1f       	adc	r29, r29
    16cc:	ca 56       	subi	r28, 0x6A	; 106
    16ce:	df 4f       	sbci	r29, 0xFF	; 255
   #else
	  bat_voltage = ((unsigned long)bat_adc*BAT_NUMERATOR)/BAT_DENOMINATOR + BAT_OUT;
   #endif
  #endif
  #if FLASHEND > 0x1fff
          DC_Pwr_mode = 0;
    16d0:	10 92 35 01 	sts	0x0135, r1	; 0x800135 <DC_Pwr_mode>
   #ifdef DC_PWR
          if ((bat_voltage < 900) || (bat_voltage > DC_PWR))
   #else
          if (bat_voltage < 900) 
    16d4:	c4 38       	cpi	r28, 0x84	; 132
    16d6:	83 e0       	ldi	r24, 0x03	; 3
    16d8:	d8 07       	cpc	r29, r24
    16da:	50 f4       	brcc	.+20     	; 0x16f0 <Battery_check+0x40>
   #endif
          {
             // no battery present, don't check,
	     lcd_MEM_string(DC_Pwr_Mode_str);	// "DC Pwr Mode"
    16dc:	8b e8       	ldi	r24, 0x8B	; 139
    16de:	91 e0       	ldi	r25, 0x01	; 1
    16e0:	0e 94 7c 02 	call	0x4f8	; 0x4f8 <lcd_fix_string>
             lcd_clear_line();			// clear to end of line
    16e4:	0e 94 d8 02 	call	0x5b0	; 0x5b0 <lcd_clear_line>
             DC_Pwr_mode = 1;
    16e8:	81 e0       	ldi	r24, 0x01	; 1
    16ea:	80 93 35 01 	sts	0x0135, r24	; 0x800135 <DC_Pwr_mode>
             return;
    16ee:	23 c0       	rjmp	.+70     	; 0x1736 <Battery_check+0x86>
          }
  #endif
         lcd_MEM_string(Bat_str);		//output: "Bat. "
    16f0:	8a e9       	ldi	r24, 0x9A	; 154
    16f2:	91 e0       	ldi	r25, 0x01	; 1
    16f4:	0e 94 7c 02 	call	0x4f8	; 0x4f8 <lcd_fix_string>
	 Display_mV(bat_voltage,2);		// Display 2 Digits of this 10mV units
    16f8:	62 e0       	ldi	r22, 0x02	; 2
    16fa:	ce 01       	movw	r24, r28
    16fc:	7b d9       	rcall	.-3338   	; 0x9f4 <Display_mV>
         lcd_space();
    16fe:	0e 94 11 02 	call	0x422	; 0x422 <lcd_space>
  #define WARN_LEVEL (((unsigned long)(BAT_POOR+100)*(unsigned long)BAT_DENOMINATOR)/BAT_NUMERATOR)
 #endif
 #define POOR_LEVEL (((unsigned long)(BAT_POOR)*(unsigned long)BAT_DENOMINATOR)/BAT_NUMERATOR)

  // check the battery voltage
  if (bat_adc <  WARN_LEVEL) {
    1702:	0a 3f       	cpi	r16, 0xFA	; 250
    1704:	86 e0       	ldi	r24, 0x06	; 6
    1706:	18 07       	cpc	r17, r24
    1708:	80 f4       	brcc	.+32     	; 0x172a <Battery_check+0x7a>
     //Vcc < 7,3V; show Warning 
     if(bat_adc < POOR_LEVEL) {	
    170a:	03 33       	cpi	r16, 0x33	; 51
    170c:	16 40       	sbci	r17, 0x06	; 6
    170e:	50 f4       	brcc	.+20     	; 0x1724 <Battery_check+0x74>
	//Vcc <6,3V; no proper operation is possible
	lcd_MEM_string(BatEmpty);	//Battery empty!
    1710:	84 e9       	ldi	r24, 0x94	; 148
    1712:	92 e0       	ldi	r25, 0x02	; 2
    1714:	0e 94 7c 02 	call	0x4f8	; 0x4f8 <lcd_fix_string>
        lcd_clear_line();			// clear to end of line
    1718:	0e 94 d8 02 	call	0x5b0	; 0x5b0 <lcd_clear_line>
	lcd_refresh();			// write the pixels to display, ST7920 only
	wait_about5s();			// Let time to read the "empty" message
    171c:	8d ec       	ldi	r24, 0xCD	; 205
    171e:	b7 d9       	rcall	.-3218   	; 0xa8e <sleep_5ms>
        switch_tester_off();		// switch power off
    1720:	82 db       	rcall	.-2300   	; 0xe26 <switch_tester_off>
    1722:	09 c0       	rjmp	.+18     	; 0x1736 <Battery_check+0x86>
	return;
    1724:	8b e9       	ldi	r24, 0x9B	; 155
     }
     lcd_MEM_string(BatWeak);		//Battery weak
    1726:	92 e0       	ldi	r25, 0x02	; 2
    1728:	02 c0       	rjmp	.+4      	; 0x172e <Battery_check+0x7e>
    172a:	87 e9       	ldi	r24, 0x97	; 151
  } else { // Battery-voltage OK
     lcd_MEM_string(OK_str); 		// "OK"
    172c:	91 e0       	ldi	r25, 0x01	; 1
    172e:	0e 94 7c 02 	call	0x4f8	; 0x4f8 <lcd_fix_string>
    1732:	0e 94 d8 02 	call	0x5b0	; 0x5b0 <lcd_clear_line>
  }
  lcd_clear_line();			// clear to end of line
    1736:	df 91       	pop	r29
};
    1738:	cf 91       	pop	r28
    173a:	1f 91       	pop	r17
    173c:	0f 91       	pop	r16
    173e:	08 95       	ret

00001740 <expand_FET_quadratic>:
    1740:	fc 01       	movw	r30, r24
#ifdef FET_Idss
uint16_t expand_FET_quadratic(uint16_t v0, uint16_t v1, uint16_t i)
// assuming a datapoint of Vgs=v1, Id=i, tries to calculate Idss (i.e., Id at Vgs=0)
// v0 must be the Vgs at which Id=0
{
   v1 = v0-v1;
    1742:	9c 01       	movw	r18, r24
    1744:	26 1b       	sub	r18, r22
    1746:	37 0b       	sbc	r19, r23
   for (;;) {
      uint8_t d;
      d = v1>>8;
    1748:	93 2f       	mov	r25, r19
      if (d==0) d = 1;		// prevent infinite loop
    174a:	31 11       	cpse	r19, r1
    174c:	01 c0       	rjmp	.+2      	; 0x1750 <expand_FET_quadratic+0x10>
    174e:	91 e0       	ldi	r25, 0x01	; 1
      v1 += d;      // increase v by 0.4 %;  unfortunately the compiler doesn't do this very smartly, insists on creating a 16-bit temporary variable for d
    1750:	29 0f       	add	r18, r25
    1752:	31 1d       	adc	r19, r1
      d = i>>8;
    1754:	85 2f       	mov	r24, r21
    1756:	99 27       	eor	r25, r25
      i += d;     
      i += d;      // increase i by 0.8 %
    1758:	bc 01       	movw	r22, r24
    175a:	66 0f       	add	r22, r22
    175c:	77 1f       	adc	r23, r23
    175e:	46 0f       	add	r20, r22
    1760:	57 1f       	adc	r21, r23
      if (d > (60000>>8)) {
    1762:	8b 3e       	cpi	r24, 0xEB	; 235
    1764:	28 f4       	brcc	.+10     	; 0x1770 <expand_FET_quadratic+0x30>
         return 0;       
      }
         // no Idss measurement if Idss exceeds 40 mA, the ATmega's maximum pin current
         // note that this is actually quite safe, since by the time there's 40 mA running, the Vgs will be 40mA * 20 ohm = 0.8 V, so quite far from 0, so Id will be less than those 40 mA
      if (v1 > v0) return i;      // V exceeds Vp, so we've reached Vgs=0 without Id exceeding 40 mA, so we can safely do the Idss measurement
    1766:	e2 17       	cp	r30, r18
    1768:	f3 07       	cpc	r31, r19
    176a:	70 f7       	brcc	.-36     	; 0x1748 <expand_FET_quadratic+0x8>
      d = v1>>8;
      if (d==0) d = 1;		// prevent infinite loop
      v1 += d;      // increase v by 0.4 %;  unfortunately the compiler doesn't do this very smartly, insists on creating a 16-bit temporary variable for d
      d = i>>8;
      i += d;     
      i += d;      // increase i by 0.8 %
    176c:	ca 01       	movw	r24, r20
    176e:	08 95       	ret
      if (d > (60000>>8)) {
         return 0;       
    1770:	80 e0       	ldi	r24, 0x00	; 0
    1772:	90 e0       	ldi	r25, 0x00	; 0
      }
         // no Idss measurement if Idss exceeds 40 mA, the ATmega's maximum pin current
         // note that this is actually quite safe, since by the time there's 40 mA running, the Vgs will be 40mA * 20 ohm = 0.8 V, so quite far from 0, so Id will be less than those 40 mA
      if (v1 > v0) return i;      // V exceeds Vp, so we've reached Vgs=0 without Id exceeding 40 mA, so we can safely do the Idss measurement
   }
}
    1774:	08 95       	ret

00001776 <CheckPins>:
#endif

//******************************************************************
void CheckPins(uint8_t HighPin, uint8_t LowPin, uint8_t TristatePin)
  {
    1776:	a8 e1       	ldi	r26, 0x18	; 24
    1778:	b0 e0       	ldi	r27, 0x00	; 0
    177a:	e1 ec       	ldi	r30, 0xC1	; 193
    177c:	fb e0       	ldi	r31, 0x0B	; 11
    177e:	0c 94 c8 33 	jmp	0x6790	; 0x6790 <__prologue_saves__>
    1782:	58 2e       	mov	r5, r24
    1784:	46 2e       	mov	r4, r22
    1786:	34 2e       	mov	r3, r20
  /*
    switch HighPin directls to VCC 
    switch R_L port for LowPin to GND 
    TristatePin remains switched to input , no action required 
  */
  wdt_reset();
    1788:	a8 95       	wdr
  addr = &PinRLRHADCtab[LowPin-TP_MIN];		// Address of combined RL / RH / ADC pin table
    178a:	e6 2f       	mov	r30, r22
    178c:	f0 e0       	ldi	r31, 0x00	; 0
    178e:	e4 57       	subi	r30, 0x74	; 116
    1790:	fe 4f       	sbci	r31, 0xFE	; 254
  LoPinRL = pgm_read_byte(addr);		// instruction for LowPin R_L
    1792:	24 91       	lpm	r18, Z
    1794:	2c 87       	std	Y+12, r18	; 0x0c
#if FLASHEND > 0x1fff
 #if (((PIN_RL1 + 1) != PIN_RH1) || ((PIN_RL2 + 1) != PIN_RH2) || ((PIN_RL3 + 1) != PIN_RH3))
  addr += 3;			// address of PinRHtab[LowPin]
  LoPinRH = pgm_read_byte(addr);		// instruction for LowPin R_H
 #else
  LoPinRH = LoPinRL + LoPinRL;				// instruction for LowPin R_H
    1796:	22 0f       	add	r18, r18
    1798:	2b 8b       	std	Y+19, r18	; 0x13
  addr += 6;			// address of PinADCtab[LowPin]
 #else
  addr += 3;			// address of PinADCtab[LowPin], table PinRHtab is missing
 #endif
#endif
  LoADCp = pgm_read_byte(addr);		// instruction for ADC Low-Pin, including | TXD_VAL
    179a:	33 96       	adiw	r30, 0x03	; 3
    179c:	34 91       	lpm	r19, Z
    179e:	3a 8b       	std	Y+18, r19	; 0x12

  addr = &PinRLRHADCtab[TristatePin-TP_MIN];
    17a0:	e4 2f       	mov	r30, r20
    17a2:	f0 e0       	ldi	r31, 0x00	; 0
    17a4:	e4 57       	subi	r30, 0x74	; 116
    17a6:	fe 4f       	sbci	r31, 0xFE	; 254
  TriPinRL = pgm_read_byte(addr);	// instruction for TristatePin R_L
    17a8:	44 91       	lpm	r20, Z
    17aa:	49 83       	std	Y+1, r20	; 0x01
#else
  TriPinRH = TriPinRL + TriPinRL;			// instruction for TristatePin R_H
#endif
#ifdef SHOW_R_DS
  addr += 3;			// address of PinADCtab[TristatePin]
  TriADCp = pgm_read_byte(addr);	// instruction for ADC Tristate-Pin, including | TXD_VAL
    17ac:	33 96       	adiw	r30, 0x03	; 3
    17ae:	54 91       	lpm	r21, Z
    17b0:	5f 83       	std	Y+7, r21	; 0x07
#endif

  addr = &PinRLRHADCtab[HighPin-TP_MIN];
    17b2:	e8 2f       	mov	r30, r24
    17b4:	f0 e0       	ldi	r31, 0x00	; 0
    17b6:	e4 57       	subi	r30, 0x74	; 116
    17b8:	fe 4f       	sbci	r31, 0xFE	; 254
  HiPinRL = pgm_read_byte(addr);		// instruction for HighPin R_L
    17ba:	24 90       	lpm	r2, Z
#if (((PIN_RL1 + 1) != PIN_RH1) || ((PIN_RL2 + 1) != PIN_RH2) || ((PIN_RL3 + 1) != PIN_RH3))
  addr += 3;			// address of PinRHtab[HighPin]
  HiPinRH = pgm_read_byte(addr);		// instruction for HighPin R_H
#else
  HiPinRH = HiPinRL + HiPinRL;				// instruction for HighPin R_H
    17bc:	82 2d       	mov	r24, r2
    17be:	88 0f       	add	r24, r24
    17c0:	8f 87       	std	Y+15, r24	; 0x0f
#endif
  addr += 3;			// address of PinADCtab[HighPin]
  HiADCp = pgm_read_byte(addr);		// instruction for ADC High-Pin, including | TXD_VAL 
    17c2:	33 96       	adiw	r30, 0x03	; 3
    17c4:	94 91       	lpm	r25, Z
    17c6:	9b 83       	std	Y+3, r25	; 0x03
  HiADCm = HiADCp | TXD_MSK;
    17c8:	98 60       	ori	r25, 0x08	; 8
    17ca:	9c 83       	std	Y+4, r25	; 0x04
  LoADCm = LoADCp | TXD_MSK;
    17cc:	38 60       	ori	r19, 0x08	; 8
    17ce:	3a 83       	std	Y+2, r19	; 0x02
  }
#else
  // first try the common emitter circuit for P-Channel type
     uint16_t v_change_n;
     uint16_t v_change_p;
  R_PORT = TriPinRL;			//resistor-Port TriState to 1
    17d0:	45 b9       	out	0x05, r20	; 5
  R_DDR = LoPinRL | TriPinRL;		// resistor-Port Low-Pin to 0
    17d2:	ac 84       	ldd	r10, Y+12	; 0x0c
    17d4:	a4 2a       	or	r10, r20
    17d6:	a4 b8       	out	0x04, r10	; 4
  ADC_DDR = HiADCm;		//High-Pin to output
    17d8:	97 b9       	out	0x07, r25	; 7
  ADC_PORT = HiADCp;		//High-Pin fix to Vcc
    17da:	eb 81       	ldd	r30, Y+3	; 0x03
    17dc:	e8 b9       	out	0x08, r30	; 8
  //for some MOSFET the gate (TristatePin) must be discharged
  adc.vCEs = W5msReadADC(LowPin);	// lp1 is the voltage at 680 Ohm with + Gate
    17de:	86 2f       	mov	r24, r22
    17e0:	8a d9       	rcall	.-3308   	; 0xaf6 <W5msReadADC>
    17e2:	9e 87       	std	Y+14, r25	; 0x0e
    17e4:	8d 87       	std	Y+13, r24	; 0x0d
 #ifdef WITH_PUT
  R_PORT = TriPinRL | TriPinRH;
  R_DDR = LoPinRL | TriPinRH;           
  adc.lp_otrh = W5msReadADC(LowPin);	//read voltage of Low-Pin  , with tri-state ping to plus via RH; prevents accidental triggering of PUT
 #endif
  R_DDR = LoPinRL;		// resistor-Port Low-Pin to 0
    17e6:	fc 85       	ldd	r31, Y+12	; 0x0c
    17e8:	f4 b9       	out	0x04, r31	; 4
  adc.lp_otr = W5msReadADC(LowPin);	//read voltage of Low-Pin  , without Gate current (+)
    17ea:	84 2d       	mov	r24, r4
    17ec:	84 d9       	rcall	.-3320   	; 0xaf6 <W5msReadADC>
    17ee:	3c 01       	movw	r6, r24
  R_DDR = 0;
    17f0:	14 b8       	out	0x04, r1	; 4
  wait10ms();	 			// release all current (clear TRIAC and Thyristor)
    17f2:	35 d9       	rcall	.-3478   	; 0xa5e <wait10ms>
    17f4:	15 b8       	out	0x05, r1	; 5
  R_PORT = 0;
  R_DDR = LoPinRL | TriPinRL;		// start current again
    17f6:	a4 b8       	out	0x04, r10	; 4
  adc.lp2 = W5msReadADC(LowPin);	// lp2 is the voltage at 680 Ohm with - Gate
    17f8:	84 2d       	mov	r24, r4
    17fa:	7d d9       	rcall	.-3334   	; 0xaf6 <W5msReadADC>
  v_change_p = abs_diff(adc.lp2, adc.vCEs);
    17fc:	6d 85       	ldd	r22, Y+13	; 0x0d
    17fe:	7e 85       	ldd	r23, Y+14	; 0x0e
    1800:	dc d9       	rcall	.-3144   	; 0xbba <abs_diff>
    1802:	6c 01       	movw	r12, r24
    1804:	2a 81       	ldd	r18, Y+2	; 0x02
     // switch to common emitter for NPN or N-channel FET
     ADC_DDR = LoADCm;		//Low-Pin to output
    1806:	27 b9       	out	0x07, r18	; 7
    1808:	88 e0       	ldi	r24, 0x08	; 8
     ADC_PORT = TXD_VAL;		//Low-Pin fix to GND
    180a:	88 b9       	out	0x08, r24	; 8
    180c:	39 81       	ldd	r19, Y+1	; 0x01
     R_PORT = HiPinRL | TriPinRL;
    180e:	32 29       	or	r19, r2
    1810:	3d 83       	std	Y+5, r19	; 0x05
     R_DDR = HiPinRL | TriPinRL;	// resistor-Port High-Pin and TriState-Pin to 1
    1812:	35 b9       	out	0x05, r19	; 5
     adc.hp1 = vcc_diff(W5msReadADC(HighPin));		// voltage at 680 Ohm with + Gate
    1814:	34 b9       	out	0x04, r19	; 4
    1816:	85 2d       	mov	r24, r5
    1818:	6e d9       	rcall	.-3364   	; 0xaf6 <W5msReadADC>
    181a:	d5 d9       	rcall	.-3158   	; 0xbc6 <vcc_diff>
     R_PORT = 0;			// clear Thyristor
    181c:	7c 01       	movw	r14, r24
     wait10ms();				// release all current (clear TRIAC and Thyristor)
    181e:	15 b8       	out	0x05, r1	; 5
     R_PORT = HiPinRL;			//resistor-Port High-Pin to +, TriState to 0
     adc.hp2 = vcc_diff(W5msReadADC(HighPin));	// voltage at 680 Ohm with - Gate
    1820:	1e d9       	rcall	.-3524   	; 0xa5e <wait10ms>
    1822:	25 b8       	out	0x05, r2	; 5
    1824:	85 2d       	mov	r24, r5
    1826:	67 d9       	rcall	.-3378   	; 0xaf6 <W5msReadADC>
    1828:	ce d9       	rcall	.-3172   	; 0xbc6 <vcc_diff>
     R_DDR = HiPinRL;			// resistor-Port High-Pin to 1, TriState open
    182a:	8c 01       	movw	r16, r24
     adc.hp3 = vcc_diff(W5msReadADC(HighPin)); // voltage at 680 Ohm with open Gate
    182c:	24 b8       	out	0x04, r2	; 4
    182e:	85 2d       	mov	r24, r5
    1830:	62 d9       	rcall	.-3388   	; 0xaf6 <W5msReadADC>
    1832:	c9 d9       	rcall	.-3182   	; 0xbc6 <vcc_diff>
    1834:	b8 2e       	mov	r11, r24
    1836:	99 87       	std	Y+9, r25	; 0x09
    1838:	b8 01       	movw	r22, r16
     v_change_n = abs_diff(adc.hp1, adc.hp2);
    183a:	c7 01       	movw	r24, r14
    183c:	be d9       	rcall	.-3204   	; 0xbba <abs_diff>
    183e:	80 32       	cpi	r24, 0x20	; 32
    1840:	41 e0       	ldi	r20, 0x01	; 1
  } else {
     // if ((adc.vCEs+288) > adc.lp2) goto checkDiode;	// no significant change
     if (abs_diff(adc.lp2, adc.vCEs) < 288) goto checkDiode;    // no significant change
  }
#endif
  if ((v_change_n < 288)  && (v_change_p < 288)) goto checkDiode; // no significant change
    1842:	94 07       	cpc	r25, r20
    1844:	30 f4       	brcc	.+12     	; 0x1852 <CheckPins+0xdc>
    1846:	50 e2       	ldi	r21, 0x20	; 32
    1848:	c5 16       	cp	r12, r21
    184a:	51 e0       	ldi	r21, 0x01	; 1
    184c:	d5 06       	cpc	r13, r21
    184e:	08 f4       	brcc	.+2      	; 0x1852 <CheckPins+0xdc>
    1850:	a6 c5       	rjmp	.+2892   	; 0x239e <CheckPins+0xc28>
    1852:	c0 0e       	add	r12, r16
    1854:	d1 1e       	adc	r13, r17
//  if ((v_change_n+150) > (v_change_p + adc.hp3))
  if ((adc.hp2 + v_change_p) < (adc.vCEs + v_change_n))
    1856:	ed 85       	ldd	r30, Y+13	; 0x0d
    1858:	fe 85       	ldd	r31, Y+14	; 0x0e
    185a:	8e 0f       	add	r24, r30
    185c:	9f 1f       	adc	r25, r31
    185e:	c8 16       	cp	r12, r24
    1860:	d9 06       	cpc	r13, r25
    1862:	20 f4       	brcc	.+8      	; 0x186c <CheckPins+0xf6>
    1864:	1e 87       	std	Y+14, r17	; 0x0e
    1866:	0d 87       	std	Y+13, r16	; 0x0d
  {
 #if DebugOut == 5
     lcd_data('c');
     lcd_data('N');
 #endif
     adc.vCEs = adc.hp2;	// voltage at + 680 Ohm with - Gate
    1868:	6b 2c       	mov	r6, r11
    186a:	79 84       	ldd	r7, Y+9	; 0x09
     adc.lp_otr = adc.hp3;	// voltage at + 680 Ohm with open Gate
    186c:	20 91 4e 01 	lds	r18, 0x014E	; 0x80014e <ntrans+0xf>
  // a TRIAC is marked as two transistors at least (2 or 3)
  // both of NPN transistors (normal and inverse) are found, if ntrans.count == 2
  // both of PNP transistors (normal and inverse) are found, if ptrans.count == 2
  // If Transistor with protection diode is checked, all results are found,
  // if ntrans.count == 1 and ptrans.count == 1
  if ((ntrans.count + ptrans.count) > 1) {
    1870:	30 91 68 01 	lds	r19, 0x0168	; 0x800168 <ptrans+0xf>
    1874:	82 2f       	mov	r24, r18
    1876:	90 e0       	ldi	r25, 0x00	; 0
    1878:	83 0f       	add	r24, r19
    187a:	91 1d       	adc	r25, r1
    187c:	02 97       	sbiw	r24, 0x02	; 2
    187e:	4c f0       	brlt	.+18     	; 0x1892 <CheckPins+0x11c>
    1880:	21 30       	cpi	r18, 0x01	; 1
    1882:	09 f0       	breq	.+2      	; 0x1886 <CheckPins+0x110>
     // all transistors found, no more search is needed
     // but TRIAC can be detected as NPNp with same pins as PNPn
     if (!((ntrans.count == 1) && (ntrans.b == ptrans.b))) {
    1884:	8c c5       	rjmp	.+2840   	; 0x239e <CheckPins+0xc28>
    1886:	90 91 4b 01 	lds	r25, 0x014B	; 0x80014b <ntrans+0xc>
    188a:	80 91 65 01 	lds	r24, 0x0165	; 0x800165 <ptrans+0xc>
    188e:	98 13       	cpse	r25, r24
    1890:	86 c5       	rjmp	.+2828   	; 0x239e <CheckPins+0xc28>
    1892:	f9 81       	ldd	r31, Y+1	; 0x01
    1894:	ff 0f       	add	r31, r31
  TriPinRL = pgm_read_byte(addr);	// instruction for TristatePin R_L
#if (((PIN_RL1 + 1) != PIN_RH1) || ((PIN_RL2 + 1) != PIN_RH2) || ((PIN_RL3 + 1) != PIN_RH3))
  addr += 3;			// address of PinRLtab[TristatePin]
  TriPinRH = pgm_read_byte(addr);	// instruction for TristatePin R_H
#else
  TriPinRH = TriPinRL + TriPinRL;			// instruction for TristatePin R_H
    1896:	f8 8f       	std	Y+24, r31	; 0x18
    1898:	f2 29       	or	r31, r2
    189a:	fb 87       	std	Y+11, r31	; 0x0b
    189c:	2d 85       	ldd	r18, Y+13	; 0x0d
    189e:	3e 85       	ldd	r19, Y+14	; 0x0e
  // Additional checking of adc.lp1 will prevent to detect a PNP as P-JFET.
//  if((PartMode <= PART_MODE_P_JFET) && (adc.lp_otr > 455)  && (adc.vCEs > 455))
  
//  if((adc.lp_otr > 455)  && (adc.vCEs > 455))
//  if((adc.vCEs > 115)  && ((adc.vCEs+100) > adc.lp_otr))
  if((adc.vCEs > 115)  && ((adc.vCEs+adc.vCEs+20) > adc.lp_otr))
    18a0:	24 37       	cpi	r18, 0x74	; 116
    18a2:	31 05       	cpc	r19, r1
    18a4:	08 f4       	brcc	.+2      	; 0x18a8 <CheckPins+0x132>
    18a6:	95 c1       	rjmp	.+810    	; 0x1bd2 <CheckPins+0x45c>
    18a8:	c9 01       	movw	r24, r18
    18aa:	88 0f       	add	r24, r24
    18ac:	99 1f       	adc	r25, r25
    18ae:	44 96       	adiw	r24, 0x14	; 20
    18b0:	68 16       	cp	r6, r24
    18b2:	79 06       	cpc	r7, r25
    18b4:	08 f0       	brcs	.+2      	; 0x18b8 <CheckPins+0x142>
    18b6:	8d c1       	rjmp	.+794    	; 0x1bd2 <CheckPins+0x45c>
    18b8:	3c 81       	ldd	r19, Y+4	; 0x04
     {  //there is more than 650uA current without TristatePin current 
     // can be JFET or D-FET
     //Test if N-JFET or if self-conducting N-MOSFET
#ifdef EXACT_OTR
     ADC_DDR = HiADCm;		//High-Pin to output
    18ba:	37 b9       	out	0x07, r19	; 7
    18bc:	4b 81       	ldd	r20, Y+3	; 0x03
     ADC_PORT = HiADCp;		//High-Pin fix to Vcc
    18be:	48 b9       	out	0x08, r20	; 8
    18c0:	8c 85       	ldd	r24, Y+12	; 0x0c
#endif
     R_DDR = LoPinRL | TriPinRH;	//switch R_H for Tristate-Pin (probably Gate) to GND
    18c2:	58 8d       	ldd	r21, Y+24	; 0x18
    18c4:	85 2b       	or	r24, r21
    18c6:	84 b9       	out	0x04, r24	; 4
     adc.lp1 = W10msReadADC(LowPin);	//measure voltage at the assumed Source 
    18c8:	84 2d       	mov	r24, r4
    18ca:	11 d9       	rcall	.-3550   	; 0xaee <W10msReadADC>
    18cc:	8c 01       	movw	r16, r24
    18ce:	83 2d       	mov	r24, r3
     adc.tp1 = ReadADC(TristatePin);	// measure Gate voltage
    18d0:	16 d9       	rcall	.-3540   	; 0xafe <ReadADC>
    18d2:	7c 01       	movw	r14, r24
    18d4:	88 8d       	ldd	r24, Y+24	; 0x18
    18d6:	85 b9       	out	0x05, r24	; 5
     R_PORT = TriPinRH;			//switch R_H for Tristate-Pin (probably Gate) to VCC
    18d8:	84 2d       	mov	r24, r4
    18da:	09 d9       	rcall	.-3566   	; 0xaee <W10msReadADC>
     adc.lp2 = W10msReadADC(LowPin);	//measure voltage at the assumed Source again
    18dc:	98 01       	movw	r18, r16
    18de:	29 5a       	subi	r18, 0xA9	; 169
     lcd_line3();
     mVOut(adc.vCEs);
     mVOut(adc.lp_otr);
#endif
     //If it is a self-conducting MOSFET or JFET, then must be: adc.lp2 > adc.lp1 
     if(adc.lp2>(adc.lp1+599)) {
    18e0:	3d 4f       	sbci	r19, 0xFD	; 253
    18e2:	28 17       	cp	r18, r24
    18e4:	39 07       	cpc	r19, r25
    18e6:	08 f0       	brcs	.+2      	; 0x18ea <CheckPins+0x174>
    18e8:	b1 c0       	rjmp	.+354    	; 0x1a4c <CheckPins+0x2d6>
    18ea:	88 e0       	ldi	r24, 0x08	; 8
    18ec:	88 b9       	out	0x08, r24	; 8
        //measure voltage at the  Gate, differ between MOSFET and JFET
        ADC_PORT = TXD_VAL;
    18ee:	9a 81       	ldd	r25, Y+2	; 0x02
    18f0:	97 b9       	out	0x07, r25	; 7
        ADC_DDR = LoADCm;	//Low-Pin fix to GND
    18f2:	eb 85       	ldd	r30, Y+11	; 0x0b
    18f4:	e4 b9       	out	0x04, r30	; 4
        R_DDR = TriPinRH | HiPinRL;	//High-Pin to output
    18f6:	e5 b9       	out	0x05, r30	; 5
    18f8:	83 2d       	mov	r24, r3
        R_PORT = TriPinRH | HiPinRL;	//switch R_L for High-Pin to VCC
    18fa:	f9 d8       	rcall	.-3598   	; 0xaee <W10msReadADC>
        adc.lp2 = W10msReadADC(TristatePin); //read voltage of assumed Gate 
    18fc:	88 34       	cpi	r24, 0x48	; 72
    18fe:	9f 40       	sbci	r25, 0x0F	; 15
    1900:	28 f0       	brcs	.+10     	; 0x190c <CheckPins+0x196>
#if DebugOut == 5
        lcd_data('N');
#endif
        if(adc.lp2>3911) {  //MOSFET
    1902:	85 e0       	ldi	r24, 0x05	; 5
    1904:	80 93 1a 01 	sts	0x011A, r24	; 0x80011a <PartFound>
           PartFound = PART_FET;	//N-Kanal-MOSFET
    1908:	82 e2       	ldi	r24, 0x22	; 34
    190a:	04 c0       	rjmp	.+8      	; 0x1914 <CheckPins+0x19e>
           PartMode = PART_MODE_MOS|N_CHANNEL|D_MODE; //Depletion-MOSFET
    190c:	85 e0       	ldi	r24, 0x05	; 5
    190e:	80 93 1a 01 	sts	0x011A, r24	; 0x80011a <PartFound>
#if DebugOut == 5
        lcd_data('D');
#endif
        } else {  //JFET (pn-passage between Gate and Source is conducting )
           PartFound = PART_FET;	//N-Kanal-JFET
    1912:	84 e2       	ldi	r24, 0x24	; 36
    1914:	80 93 19 01 	sts	0x0119, r24	; 0x800119 <PartMode>
           PartMode = PART_MODE_JFET|N_CHANNEL|D_MODE;
    1918:	10 93 44 01 	sts	0x0144, r17	; 0x800144 <ntrans+0x5>
#if DebugOut == 5
        lcd_space();
#endif
//      if ((PartReady == 0) || (adc.lp1 > ntrans.uBE)) 
//      there is no way to find out the right Source / Drain
        ntrans.uBE = adc.lp1;
    191c:	00 93 43 01 	sts	0x0143, r16	; 0x800143 <ntrans+0x4>
    1920:	b7 01       	movw	r22, r14
    1922:	c8 01       	movw	r24, r16
        ntrans.gthvoltage = unsigned_diff(adc.lp1, adc.tp1);	//voltage GS (Source - Gate)
    1924:	55 d9       	rcall	.-3414   	; 0xbd0 <unsigned_diff>
    1926:	90 93 4a 01 	sts	0x014A, r25	; 0x80014a <ntrans+0xb>
    192a:	80 93 49 01 	sts	0x0149, r24	; 0x800149 <ntrans+0xa>
    192e:	98 01       	movw	r18, r16
    1930:	a0 e1       	ldi	r26, 0x10	; 16
    1932:	b7 e2       	ldi	r27, 0x27	; 39
        ntrans.current = (unsigned int)(((unsigned long)adc.lp1 * 10000) / RR680MI); // Id 1uA
    1934:	0e 94 1e 33 	call	0x663c	; 0x663c <__umulhisi3>
    1938:	20 91 14 01 	lds	r18, 0x0114	; 0x800114 <resis680mi>
    193c:	30 91 15 01 	lds	r19, 0x0115	; 0x800115 <resis680mi+0x1>
    1940:	40 e0       	ldi	r20, 0x00	; 0
    1942:	50 e0       	ldi	r21, 0x00	; 0
    1944:	0e 94 e0 32 	call	0x65c0	; 0x65c0 <__udivmodsi4>
    1948:	30 93 46 01 	sts	0x0146, r19	; 0x800146 <ntrans+0x7>
    194c:	20 93 45 01 	sts	0x0145, r18	; 0x800145 <ntrans+0x6>
    1950:	8b 89       	ldd	r24, Y+19	; 0x13
#ifdef SHOW_ICE
 // Test for cutoff Voltage, idea from Pieter-Tjerk
        R_DDR = LoPinRH | TriPinRH;
    1952:	28 8d       	ldd	r18, Y+24	; 0x18
    1954:	82 2b       	or	r24, r18
    1956:	84 b9       	out	0x04, r24	; 4
    1958:	15 b8       	out	0x05, r1	; 5
	R_PORT = 0;			// Low + Tristate Pin with 470k to 0V
    195a:	3c 81       	ldd	r19, Y+4	; 0x04
	ADC_DDR = HiADCm;
    195c:	37 b9       	out	0x07, r19	; 7
    195e:	4b 81       	ldd	r20, Y+3	; 0x03
	ADC_PORT = HiADCp;		// High Pin to VCC
    1960:	48 b9       	out	0x08, r20	; 8
    1962:	84 2d       	mov	r24, r4
	ntrans.ice0 = W10msReadADC(LowPin);
    1964:	c4 d8       	rcall	.-3704   	; 0xaee <W10msReadADC>
    1966:	90 93 48 01 	sts	0x0148, r25	; 0x800148 <ntrans+0x9>
    196a:	80 93 47 01 	sts	0x0147, r24	; 0x800147 <ntrans+0x8>
    196e:	83 2d       	mov	r24, r3
    1970:	c6 d8       	rcall	.-3700   	; 0xafe <ReadADC>
        ntrans.ice0 -= ReadADC(TristatePin);	// Gate-Source Voltage
    1972:	20 91 47 01 	lds	r18, 0x0147	; 0x800147 <ntrans+0x8>
    1976:	30 91 48 01 	lds	r19, 0x0148	; 0x800148 <ntrans+0x9>
    197a:	f9 01       	movw	r30, r18
    197c:	e8 1b       	sub	r30, r24
    197e:	f9 0b       	sbc	r31, r25
    1980:	cf 01       	movw	r24, r30
    1982:	f0 93 48 01 	sts	0x0148, r31	; 0x800148 <ntrans+0x9>
    1986:	e0 93 47 01 	sts	0x0147, r30	; 0x800147 <ntrans+0x8>
    198a:	20 91 19 01 	lds	r18, 0x0119	; 0x800119 <PartMode>
    lcd_line4();
    lcd_data('N');
    lcd_data('j');
    lcd_space();
  #endif
    if ((PartMode&0x0f) == PART_MODE_JFET)
    198e:	2f 70       	andi	r18, 0x0F	; 15
    1990:	24 30       	cpi	r18, 0x04	; 4
    1992:	71 f5       	brne	.+92     	; 0x19f0 <CheckPins+0x27a>
    1994:	40 91 45 01 	lds	r20, 0x0145	; 0x800145 <ntrans+0x6>
        {
           uint16_t i16;
           // extrapolate the quadratic relationship between Id and Vgs, to estimate Idss
           i16 = expand_FET_quadratic(ntrans.ice0,ntrans.gthvoltage,ntrans.current);
    1998:	50 91 46 01 	lds	r21, 0x0146	; 0x800146 <ntrans+0x7>
    199c:	60 91 49 01 	lds	r22, 0x0149	; 0x800149 <ntrans+0xa>
    19a0:	70 91 4a 01 	lds	r23, 0x014A	; 0x80014a <ntrans+0xb>
    19a4:	cd de       	rcall	.-614    	; 0x1740 <expand_FET_quadratic>
    19a6:	00 97       	sbiw	r24, 0x00	; 0
    19a8:	f9 f0       	breq	.+62     	; 0x19e8 <CheckPins+0x272>
  #if DebugOut == 5
           DisplayValue(i16,-6,' ',3);
  #endif
           // i16=0 if estimated Idss would exceed 40 mA, so don't measure then
           if (i16 != 0) {
    19aa:	f8 8d       	ldd	r31, Y+24	; 0x18
    19ac:	f4 b9       	out	0x04, r31	; 4
//               R_PORT = 0; 
               R_DDR = TriPinRH;	// gate to ground via RH
    19ae:	ea 89       	ldd	r30, Y+18	; 0x12
    19b0:	2c 81       	ldd	r18, Y+4	; 0x04
//               ADC_PORT = HiADCp;       // drain to Vcc, source to gnd, both without resistors
               ADC_DDR = HiADCm|LoADCp;
    19b2:	e2 2b       	or	r30, r18
    19b4:	e7 b9       	out	0x07, r30	; 7
    19b6:	84 2d       	mov	r24, r4
    19b8:	9a d8       	rcall	.-3788   	; 0xaee <W10msReadADC>
               adc.lp2 = W10msReadADC(LowPin);	//measure voltage at the Source; this is the voltage drop across the pin's ~20 ohm internal resistance!
    19ba:	8c 01       	movw	r16, r24
    19bc:	88 e0       	ldi	r24, 0x08	; 8
    19be:	87 b9       	out	0x07, r24	; 7
    19c0:	98 01       	movw	r18, r16
               ADC_DDR = TXD_MSK;             // disconnect drain and source immediately after measurement, since quite a lot of current may flow
    19c2:	a0 e1       	ldi	r26, 0x10	; 16
    19c4:	b7 e2       	ldi	r27, 0x27	; 39
               // this is almost the Idss, since the gate-source voltage is almost 0 (only the voltage drop across that 20 ohm resistance)
               i16 = (unsigned int)(((unsigned long)adc.lp2 * 10000) / pin_rmi); // Idss 1uA
    19c6:	0e 94 1e 33 	call	0x663c	; 0x663c <__umulhisi3>
    19ca:	20 91 38 01 	lds	r18, 0x0138	; 0x800138 <pin_rmi>
    19ce:	30 91 39 01 	lds	r19, 0x0139	; 0x800139 <pin_rmi+0x1>
    19d2:	40 e0       	ldi	r20, 0x00	; 0
    19d4:	50 e0       	ldi	r21, 0x00	; 0
    19d6:	0e 94 e0 32 	call	0x65c0	; 0x65c0 <__udivmodsi4>
    19da:	a9 01       	movw	r20, r18
    19dc:	b8 01       	movw	r22, r16
  #if DebugOut == 5
           DisplayValue(i16,-6,' ',3);
  #endif
               i16 = expand_FET_quadratic(ntrans.ice0,adc.lp2,i16);
    19de:	80 91 47 01 	lds	r24, 0x0147	; 0x800147 <ntrans+0x8>
    19e2:	90 91 48 01 	lds	r25, 0x0148	; 0x800148 <ntrans+0x9>
    19e6:	ac de       	rcall	.-680    	; 0x1740 <expand_FET_quadratic>
    19e8:	90 93 44 01 	sts	0x0144, r25	; 0x800144 <ntrans+0x5>
  #if DebugOut == 5
           DisplayValue(i16,-6,' ',3);
  #endif
           }
           ntrans.uBE = i16;
    19ec:	80 93 43 01 	sts	0x0143, r24	; 0x800143 <ntrans+0x4>
    19f0:	80 91 19 01 	lds	r24, 0x0119	; 0x800119 <PartMode>
        }
 #endif
 #ifdef SHOW_R_DS
    if ((PartMode&0x0f) != PART_MODE_JFET)
    19f4:	8f 70       	andi	r24, 0x0F	; 15
    19f6:	84 30       	cpi	r24, 0x04	; 4
    19f8:	09 f4       	brne	.+2      	; 0x19fc <CheckPins+0x286>
    19fa:	c8 c4       	rjmp	.+2448   	; 0x238c <CheckPins+0xc16>
    19fc:	88 e0       	ldi	r24, 0x08	; 8
         {
            // For depletion MOSFET we try to put the Gate to the same level as Source.
            // The source level is higher than 0V because of the Port output resistance and current.
            // When the Drain-Source resistance is low, we can get nearly the same voltage increase
            // at the Gate with current from the 680 Ohm Port (RL).
            ADC_PORT = TXD_VAL;
    19fe:	88 b9       	out	0x08, r24	; 8
            ADC_DDR = LoADCm | TriADCp;	//Low-Pin and Tristate-Pin fix to GND
    1a00:	3f 81       	ldd	r19, Y+7	; 0x07
    1a02:	4a 81       	ldd	r20, Y+2	; 0x02
    1a04:	34 2b       	or	r19, r20
    1a06:	37 b9       	out	0x07, r19	; 7
//            R_DDR = TriPinRL | HiPinRL;	// L-Resistor High-Pin and Tristate-Pin to output
            R_DDR =  HiPinRL;	// L-Resistor High-Pin and Tristate-Pin to output
    1a08:	24 b8       	out	0x04, r2	; 4
            R_PORT = TriPinRL | HiPinRL;	//switch R_L for High-Pin and Tristate-Pin to VCC
    1a0a:	5d 81       	ldd	r21, Y+5	; 0x05
    1a0c:	55 b9       	out	0x05, r21	; 5
            adc.hp2 = W5msReadADC(HighPin);	//measure the voltage at the Drain  
    1a0e:	85 2d       	mov	r24, r5
    1a10:	72 d8       	rcall	.-3868   	; 0xaf6 <W5msReadADC>
    1a12:	8c 01       	movw	r16, r24
    1a14:	d8 d8       	rcall	.-3664   	; 0xbc6 <vcc_diff>
            adc.rhp = vcc_diff(adc.hp2);	// voltage at the Drain resistor
    1a16:	9e 83       	std	Y+6, r25	; 0x06
    1a18:	8d 83       	std	Y+5, r24	; 0x05
    1a1a:	84 2d       	mov	r24, r4
    1a1c:	70 d8       	rcall	.-3872   	; 0xafe <ReadADC>
            adc.lp2 = ReadADC(LowPin);		// voltage at the Source 
    1a1e:	e0 90 1b 01 	lds	r14, 0x011B	; 0x80011b <resis680pl>
    1a22:	f0 90 1c 01 	lds	r15, 0x011C	; 0x80011c <resis680pl+0x1>
            ntrans.uBE = RR680PL * (unsigned long)unsigned_diff(adc.hp2, adc.lp2) / adc.rhp; // DS resistance in 0.1 OHm
    1a26:	bc 01       	movw	r22, r24
    1a28:	c8 01       	movw	r24, r16
    1a2a:	d2 d8       	rcall	.-3676   	; 0xbd0 <unsigned_diff>
    1a2c:	97 01       	movw	r18, r14
    1a2e:	dc 01       	movw	r26, r24
    1a30:	0e 94 1e 33 	call	0x663c	; 0x663c <__umulhisi3>
    1a34:	ed 81       	ldd	r30, Y+5	; 0x05
    1a36:	fe 81       	ldd	r31, Y+6	; 0x06
    1a38:	9f 01       	movw	r18, r30
    1a3a:	40 e0       	ldi	r20, 0x00	; 0
    1a3c:	50 e0       	ldi	r21, 0x00	; 0
    1a3e:	0e 94 e0 32 	call	0x65c0	; 0x65c0 <__udivmodsi4>
    1a42:	30 93 44 01 	sts	0x0144, r19	; 0x800144 <ntrans+0x5>
    1a46:	20 93 43 01 	sts	0x0143, r18	; 0x800143 <ntrans+0x4>
    1a4a:	a0 c4       	rjmp	.+2368   	; 0x238c <CheckPins+0xc16>
    1a4c:	88 e0       	ldi	r24, 0x08	; 8
#endif
        ntrans.count++;			// count as two, the inverse is identical
        goto saveNresult;		// save Pin numbers and exit
     }  /* end selfconducting N-channel  mode */

     ADC_PORT = TXD_VAL;		// direct outputs to GND
    1a4e:	88 b9       	out	0x08, r24	; 8

     //Test, if P-JFET or if self-conducting P-MOSFET
     ADC_DDR = LoADCm;		//switch Low-Pin (assumed Drain) direct to GND,
    1a50:	fa 81       	ldd	r31, Y+2	; 0x02
    1a52:	f7 b9       	out	0x07, r31	; 7
				//R_H for Tristate-Pin (assumed Gate) is already switched to VCC
     R_DDR = TriPinRH | HiPinRL;	//High-Pin to output
    1a54:	2b 85       	ldd	r18, Y+11	; 0x0b
    1a56:	24 b9       	out	0x04, r18	; 4
     R_PORT = TriPinRH | HiPinRL;	//High-Pin across R_L to Vcc
    1a58:	25 b9       	out	0x05, r18	; 5
     adc.hp1 = W10msReadADC(HighPin);	//measure voltage at assumed Source 
    1a5a:	85 2d       	mov	r24, r5
    1a5c:	48 d8       	rcall	.-3952   	; 0xaee <W10msReadADC>
    1a5e:	8c 01       	movw	r16, r24
    1a60:	83 2d       	mov	r24, r3
     adc.tp1 = ReadADC(TristatePin);	// measure Gate voltage
    1a62:	4d d8       	rcall	.-3942   	; 0xafe <ReadADC>
    1a64:	7c 01       	movw	r14, r24
    1a66:	25 b8       	out	0x05, r2	; 5
    1a68:	85 2d       	mov	r24, r5
     R_PORT = HiPinRL;			//switch R_H for Tristate-Pin (assumed Gate) to GND
    1a6a:	41 d8       	rcall	.-3966   	; 0xaee <W10msReadADC>
     adc.hp2 = W10msReadADC(HighPin);	//read voltage at assumed Source again
    1a6c:	89 5a       	subi	r24, 0xA9	; 169
    1a6e:	9d 4f       	sbci	r25, 0xFD	; 253
     //if it is a self-conducting P_MOSFET or P-JFET , then must be:  adc.hp1 > adc.hp2 
     if(adc.hp1>(adc.hp2+599)) {
    1a70:	80 17       	cp	r24, r16
    1a72:	91 07       	cpc	r25, r17
    1a74:	08 f0       	brcs	.+2      	; 0x1a78 <CheckPins+0x302>
    1a76:	93 c4       	rjmp	.+2342   	; 0x239e <CheckPins+0xc28>
    1a78:	3b 81       	ldd	r19, Y+3	; 0x03
        //read voltage at the Gate , to differ between MOSFET and JFET
        ADC_PORT = HiADCp;	//switch High-Pin directly to VCC
    1a7a:	38 b9       	out	0x08, r19	; 8
    1a7c:	4c 81       	ldd	r20, Y+4	; 0x04
        ADC_DDR = HiADCm;	//switch High-Pin to output
    1a7e:	47 b9       	out	0x07, r20	; 7
    1a80:	83 2d       	mov	r24, r3
        adc.tp2 = W10msReadADC(TristatePin); //read voltage at the assumed Gate 
    1a82:	35 d8       	rcall	.-3990   	; 0xaee <W10msReadADC>
    1a84:	81 3d       	cpi	r24, 0xD1	; 209
    1a86:	93 40       	sbci	r25, 0x03	; 3
#if DebugOut == 5
        lcd_data('P');
#endif
        if(adc.tp2<977) { 		//MOSFET
    1a88:	28 f4       	brcc	.+10     	; 0x1a94 <CheckPins+0x31e>
    1a8a:	85 e0       	ldi	r24, 0x05	; 5
    1a8c:	80 93 1a 01 	sts	0x011A, r24	; 0x80011a <PartFound>
           PartFound = PART_FET;	//P-Kanal-MOSFET
    1a90:	82 e3       	ldi	r24, 0x32	; 50
    1a92:	04 c0       	rjmp	.+8      	; 0x1a9c <CheckPins+0x326>
           PartMode = PART_MODE_MOS|P_CHANNEL|D_MODE; //Depletion-MOSFET
    1a94:	85 e0       	ldi	r24, 0x05	; 5
    1a96:	80 93 1a 01 	sts	0x011A, r24	; 0x80011a <PartFound>
#if DebugOut == 5
           lcd_data('D');
#endif
        } else { 			//JFET (pn-passage between Gate and Source is conducting)
           PartFound = PART_FET;	//P-Kanal-JFET
    1a9a:	84 e3       	ldi	r24, 0x34	; 52
    1a9c:	80 93 19 01 	sts	0x0119, r24	; 0x800119 <PartMode>
           PartMode = PART_MODE_JFET|P_CHANNEL|D_MODE;
    1aa0:	b8 01       	movw	r22, r16
    1aa2:	c7 01       	movw	r24, r14
#endif
        }
#if DebugOut == 5
        lcd_space();
#endif
        ptrans.gthvoltage = unsigned_diff(adc.tp1, adc.hp1);	//voltage GS (Gate - Source)
    1aa4:	95 d8       	rcall	.-3798   	; 0xbd0 <unsigned_diff>
    1aa6:	90 93 64 01 	sts	0x0164, r25	; 0x800164 <ptrans+0xb>
    1aaa:	80 93 63 01 	sts	0x0163, r24	; 0x800163 <ptrans+0xa>
    1aae:	c8 01       	movw	r24, r16
    1ab0:	8a d8       	rcall	.-3820   	; 0xbc6 <vcc_diff>
        ptrans.current = (unsigned int)(((unsigned long)vcc_diff(adc.hp1) * 10000) / RR680PL); // Id 1uA
    1ab2:	9c 01       	movw	r18, r24
    1ab4:	a0 e1       	ldi	r26, 0x10	; 16
    1ab6:	b7 e2       	ldi	r27, 0x27	; 39
    1ab8:	0e 94 1e 33 	call	0x663c	; 0x663c <__umulhisi3>
    1abc:	20 91 1b 01 	lds	r18, 0x011B	; 0x80011b <resis680pl>
    1ac0:	30 91 1c 01 	lds	r19, 0x011C	; 0x80011c <resis680pl+0x1>
    1ac4:	40 e0       	ldi	r20, 0x00	; 0
    1ac6:	50 e0       	ldi	r21, 0x00	; 0
    1ac8:	0e 94 e0 32 	call	0x65c0	; 0x65c0 <__udivmodsi4>
    1acc:	30 93 60 01 	sts	0x0160, r19	; 0x800160 <ptrans+0x7>
    1ad0:	20 93 5f 01 	sts	0x015F, r18	; 0x80015f <ptrans+0x6>
    1ad4:	f8 e0       	ldi	r31, 0x08	; 8
    1ad6:	ff 2e       	mov	r15, r31
#ifdef SHOW_ICE
//	Test for cutoff Voltage, idea from Pieter-Tjerk
        ADC_PORT = TXD_VAL;		// direct outputs to GND
    1ad8:	f8 b8       	out	0x08, r15	; 8
    1ada:	8a 81       	ldd	r24, Y+2	; 0x02
    1adc:	87 b9       	out	0x07, r24	; 7
        ADC_DDR = LoADCm;		//switch Low-Pin (assumed Drain) direct to GND,
    1ade:	8f 85       	ldd	r24, Y+15	; 0x0f
    1ae0:	98 8d       	ldd	r25, Y+24	; 0x18
        R_DDR = TriPinRH | HiPinRH;	//High-Pin to output
    1ae2:	89 2b       	or	r24, r25
    1ae4:	84 b9       	out	0x04, r24	; 4
    1ae6:	85 b9       	out	0x05, r24	; 5
    1ae8:	85 2d       	mov	r24, r5
        R_PORT = TriPinRH | HiPinRH;	//High-Pin and Tristate-Pin across R_H to Vcc
    1aea:	09 d8       	rcall	.-4078   	; 0xafe <ReadADC>
//        ptrans.ice0 = W10msReadADC(TristatePin);	//measure voltage at assumed Source 
//        ptrans.ice0 -= ReadADC(HighPin);
        ptrans.ice0 = unsigned_diff(W10msReadADC(TristatePin), ReadADC(HighPin));	//measure voltage at assumed Source 
    1aec:	8c 01       	movw	r16, r24
    1aee:	83 2d       	mov	r24, r3
    1af0:	0e 94 77 05 	call	0xaee	; 0xaee <W10msReadADC>
    1af4:	b8 01       	movw	r22, r16
    1af6:	6c d8       	rcall	.-3880   	; 0xbd0 <unsigned_diff>
    1af8:	9c 01       	movw	r18, r24
    1afa:	90 93 62 01 	sts	0x0162, r25	; 0x800162 <ptrans+0x9>
    1afe:	80 93 61 01 	sts	0x0161, r24	; 0x800161 <ptrans+0x8>
    1b02:	90 91 19 01 	lds	r25, 0x0119	; 0x800119 <PartMode>
  #if DebugOut == 5
        lcd_line4();
        lcd_data('P');
        lcd_data('J');
  #endif
        if ((PartMode&0x0f) == PART_MODE_JFET) 
    1b06:	9f 70       	andi	r25, 0x0F	; 15
    1b08:	94 30       	cpi	r25, 0x04	; 4
    1b0a:	99 f5       	brne	.+102    	; 0x1b72 <CheckPins+0x3fc>
    1b0c:	40 91 5f 01 	lds	r20, 0x015F	; 0x80015f <ptrans+0x6>
        {
           uint16_t i16;
           // extrapolate the quadratic relationship between Id and Vgs, to estimate Idss
           i16 = expand_FET_quadratic(ptrans.ice0,ptrans.gthvoltage,ptrans.current);
    1b10:	50 91 60 01 	lds	r21, 0x0160	; 0x800160 <ptrans+0x7>
    1b14:	60 91 63 01 	lds	r22, 0x0163	; 0x800163 <ptrans+0xa>
    1b18:	70 91 64 01 	lds	r23, 0x0164	; 0x800164 <ptrans+0xb>
    1b1c:	c9 01       	movw	r24, r18
    1b1e:	10 de       	rcall	.-992    	; 0x1740 <expand_FET_quadratic>
    1b20:	00 97       	sbiw	r24, 0x00	; 0
    1b22:	19 f1       	breq	.+70     	; 0x1b6a <CheckPins+0x3f4>
    1b24:	e8 8d       	ldd	r30, Y+24	; 0x18
  #if DebugOut == 5
           DisplayValue(i16,-6,' ',3);
  #endif
           // i16=0 if estimated Idss would exceed 40 mA, so don't measure then
           if (i16 != 0) {
    1b26:	e5 b9       	out	0x05, r30	; 5
    1b28:	e4 b9       	out	0x04, r30	; 4
               R_PORT = TriPinRH; 
    1b2a:	fb 81       	ldd	r31, Y+3	; 0x03
    1b2c:	f8 b9       	out	0x08, r31	; 8
               R_DDR = TriPinRH;	// gate to VCC via RH
    1b2e:	ec 81       	ldd	r30, Y+4	; 0x04
               ADC_PORT = HiADCp;       // drain to GND, source to VCC, both without resistors
    1b30:	2a 81       	ldd	r18, Y+2	; 0x02
    1b32:	e2 2b       	or	r30, r18
               ADC_DDR = HiADCm|LoADCm;
    1b34:	e7 b9       	out	0x07, r30	; 7
    1b36:	85 2d       	mov	r24, r5
    1b38:	0e 94 77 05 	call	0xaee	; 0xaee <W10msReadADC>
               adc.hp3 = vcc_diff(W10msReadADC(HighPin));	//measure voltage at the Source; this is the voltage drop across the pin's ~20 ohm internal resistance!
    1b3c:	44 d8       	rcall	.-3960   	; 0xbc6 <vcc_diff>
    1b3e:	8c 01       	movw	r16, r24
    1b40:	f7 b8       	out	0x07, r15	; 7
    1b42:	9c 01       	movw	r18, r24
    1b44:	a0 e1       	ldi	r26, 0x10	; 16
               ADC_DDR = TXD_MSK;	// disconnect drain and source immediately after measurement, since quite a lot of current may flow
    1b46:	b7 e2       	ldi	r27, 0x27	; 39
               // this is almost the Idss, since the gate-source voltage is almost 0 (only the voltage drop across that 20 ohm resistance)
               i16 = (unsigned int)(((unsigned long)adc.hp3 * 10000) / pin_rpl); // Idss 1uA
    1b48:	0e 94 1e 33 	call	0x663c	; 0x663c <__umulhisi3>
    1b4c:	20 91 31 01 	lds	r18, 0x0131	; 0x800131 <pin_rpl>
    1b50:	30 91 32 01 	lds	r19, 0x0132	; 0x800132 <pin_rpl+0x1>
    1b54:	40 e0       	ldi	r20, 0x00	; 0
    1b56:	50 e0       	ldi	r21, 0x00	; 0
    1b58:	0e 94 e0 32 	call	0x65c0	; 0x65c0 <__udivmodsi4>
    1b5c:	a9 01       	movw	r20, r18
    1b5e:	b8 01       	movw	r22, r16
    1b60:	80 91 61 01 	lds	r24, 0x0161	; 0x800161 <ptrans+0x8>
  #if DebugOut == 5
           DisplayValue(i16,-6,' ',3);
  #endif
               i16 =expand_FET_quadratic(ptrans.ice0,adc.hp3,i16);
    1b64:	90 91 62 01 	lds	r25, 0x0162	; 0x800162 <ptrans+0x9>
    1b68:	eb dd       	rcall	.-1066   	; 0x1740 <expand_FET_quadratic>
    1b6a:	90 93 5e 01 	sts	0x015E, r25	; 0x80015e <ptrans+0x5>
    1b6e:	80 93 5d 01 	sts	0x015D, r24	; 0x80015d <ptrans+0x4>
  #if DebugOut == 5
           DisplayValue(i16,-6,' ',3);
  #endif
           }
           ptrans.uBE = i16;
    1b72:	80 91 19 01 	lds	r24, 0x0119	; 0x800119 <PartMode>
    1b76:	8f 70       	andi	r24, 0x0F	; 15
        }	/* end if ((PartMode&0x0f) == PART_MODE_JFET) */
 #endif
 #ifdef SHOW_R_DS
    if ((PartMode&0x0f) != PART_MODE_JFET)
    1b78:	84 30       	cpi	r24, 0x04	; 4
    1b7a:	09 f4       	brne	.+2      	; 0x1b7e <CheckPins+0x408>
    1b7c:	df c1       	rjmp	.+958    	; 0x1f3c <CheckPins+0x7c6>
    1b7e:	eb 81       	ldd	r30, Y+3	; 0x03
    1b80:	3f 81       	ldd	r19, Y+7	; 0x07
    1b82:	e3 2b       	or	r30, r19
         {
            // For depletion MOSFET we try to put the Gate to the same level as Source.
            // The source level is higher than 0V because of the Port output resistance and current.
            // When the Drain-Source resistance is low, we can get nearly the same voltage increase
            // at the Gate with current from the 680 Ohm Port (RL).
            ADC_PORT = HiADCp | TriADCp;	//switch High-Pin and Tristate-Pin to VCC
    1b84:	e8 b9       	out	0x08, r30	; 8
    1b86:	4c 81       	ldd	r20, Y+4	; 0x04
    1b88:	34 2b       	or	r19, r20
    1b8a:	37 b9       	out	0x07, r19	; 7
            ADC_DDR = HiADCm | TriADCp;		//switch High-Pin and Tristate-Pin to output
    1b8c:	15 b8       	out	0x05, r1	; 5
    1b8e:	5d 81       	ldd	r21, Y+5	; 0x05
    1b90:	54 b9       	out	0x04, r21	; 4
            R_PORT = 0;			// switch R-Ports to 0
    1b92:	85 2d       	mov	r24, r5
            R_DDR = TriPinRL | HiPinRL;	// L-Resistor High-Pin and Tristate-Pin to output
    1b94:	0e 94 7b 05 	call	0xaf6	; 0xaf6 <W5msReadADC>
            adc.hp2 = W5msReadADC(HighPin);	//measure the voltage at the Source  
    1b98:	7c 01       	movw	r14, r24
    1b9a:	84 2d       	mov	r24, r4
    1b9c:	0e 94 7f 05 	call	0xafe	; 0xafe <ReadADC>
            adc.lp1 = ReadADC(LowPin);		// voltage at the Drain 
    1ba0:	9e 83       	std	Y+6, r25	; 0x06
    1ba2:	8d 83       	std	Y+5, r24	; 0x05
    1ba4:	00 91 14 01 	lds	r16, 0x0114	; 0x800114 <resis680mi>
    1ba8:	10 91 15 01 	lds	r17, 0x0115	; 0x800115 <resis680mi+0x1>
            ptrans.uBE = RR680MI * (unsigned long)unsigned_diff(adc.hp2, adc.lp1) / adc.lp1; // DS resistance in 0.1 OHm
    1bac:	bc 01       	movw	r22, r24
    1bae:	c7 01       	movw	r24, r14
    1bb0:	0f d8       	rcall	.-4066   	; 0xbd0 <unsigned_diff>
    1bb2:	98 01       	movw	r18, r16
    1bb4:	dc 01       	movw	r26, r24
    1bb6:	0e 94 1e 33 	call	0x663c	; 0x663c <__umulhisi3>
    1bba:	ed 81       	ldd	r30, Y+5	; 0x05
    1bbc:	fe 81       	ldd	r31, Y+6	; 0x06
    1bbe:	9f 01       	movw	r18, r30
    1bc0:	40 e0       	ldi	r20, 0x00	; 0
    1bc2:	50 e0       	ldi	r21, 0x00	; 0
    1bc4:	0e 94 e0 32 	call	0x65c0	; 0x65c0 <__udivmodsi4>
    1bc8:	30 93 5e 01 	sts	0x015E, r19	; 0x80015e <ptrans+0x5>
    1bcc:	20 93 5d 01 	sts	0x015D, r18	; 0x80015d <ptrans+0x4>
    1bd0:	b5 c1       	rjmp	.+874    	; 0x1f3c <CheckPins+0x7c6>
    1bd2:	88 e0       	ldi	r24, 0x08	; 8
    1bd4:	88 b9       	out	0x08, r24	; 8
    1bd6:	fa 81       	ldd	r31, Y+2	; 0x02
    1bd8:	f7 b9       	out	0x07, r31	; 7


  //there is less than 650uA current without TristatePin current 
#ifdef COMMON_COLLECTOR
  // Test circuit with common collector (Emitter follower) PNP
  ADC_PORT = TXD_VAL;
    1bda:	25 b8       	out	0x05, r2	; 5
    1bdc:	2b 85       	ldd	r18, Y+11	; 0x0b
  ADC_DDR = LoADCm;			// Collector direct to GND
    1bde:	24 b9       	out	0x04, r18	; 4
    1be0:	85 2d       	mov	r24, r5
 #endif
     // compute c_hfe with RL Base resistor
     c_hfe = (unsigned long)((unsigned long)unsigned_diff(adc.rhp, adc.tp1) * 100) / adc.tp1;
  }
#else
  R_PORT = HiPinRL;			// switch R_L port for HighPin (Emitter) to VCC
    1be2:	0e 94 7b 05 	call	0xaf6	; 0xaf6 <W5msReadADC>
  R_DDR =  TriPinRH | HiPinRL;	// Tripin=RH-
    1be6:	99 8b       	std	Y+17, r25	; 0x11
  adc.hp1 = W5msReadADC(HighPin);
    1be8:	88 8b       	std	Y+16, r24	; 0x10
    1bea:	0e 94 e3 05 	call	0xbc6	; 0xbc6 <vcc_diff>
    1bee:	98 87       	std	Y+8, r25	; 0x08
    1bf0:	8f 83       	std	Y+7, r24	; 0x07
  adc.rhp = vcc_diff(adc.hp1);	// voltage at the Emitter resistor
    1bf2:	83 2d       	mov	r24, r3
    1bf4:	0e 94 7f 05 	call	0xafe	; 0xafe <ReadADC>
    1bf8:	9a 87       	std	Y+10, r25	; 0x0a
  adc.tp1 = ReadADC(TristatePin);	// voltage at base resistor 
    1bfa:	89 87       	std	Y+9, r24	; 0x09
    1bfc:	43 01       	movw	r8, r6
    1bfe:	34 e6       	ldi	r19, 0x64	; 100
    1c00:	83 0e       	add	r8, r19
    1c02:	91 1c       	adc	r9, r1
 #if DebugOut == 5
  lcd_line4();
  lcd_data('P');
 #endif
  if (adc.rhp > (100+adc.lp_otr)) {
    1c04:	4f 81       	ldd	r20, Y+7	; 0x07
    1c06:	58 85       	ldd	r21, Y+8	; 0x08
    1c08:	b3 01       	movw	r22, r6
    1c0a:	84 16       	cp	r8, r20
    1c0c:	95 06       	cpc	r9, r21
    1c0e:	d8 f4       	brcc	.+54     	; 0x1c46 <CheckPins+0x4d0>

     tmp16 = unsigned_diff(adc.rhp, adc.lp_otr);	// subtract residual current
    1c10:	ca 01       	movw	r24, r20
  adc.tp1 = ReadADC(TristatePin);	// voltage at base resistor 
 #if DebugOut == 5
  lcd_line4();
  lcd_data('P');
 #endif
  if (adc.rhp > (100+adc.lp_otr)) {
    1c12:	0e 94 e8 05 	call	0xbd0	; 0xbd0 <unsigned_diff>
    1c16:	8c 01       	movw	r16, r24

     tmp16 = unsigned_diff(adc.rhp, adc.lp_otr);	// subtract residual current
    1c18:	20 91 1b 01 	lds	r18, 0x011B	; 0x80011b <resis680pl>
    1c1c:	30 91 1c 01 	lds	r19, 0x011C	; 0x80011c <resis680pl+0x1>
 #ifdef LONG_HFE
  #if DebugOut == 5
     lcd_data('H');	// PHcc
  #endif
     c_hfe = ((unsigned long)tmp16 * (unsigned long)(((unsigned long)R_H_VAL * 10000) / 
    1c20:	40 e0       	ldi	r20, 0x00	; 0
    1c22:	50 e0       	ldi	r21, 0x00	; 0
    1c24:	60 e8       	ldi	r22, 0x80	; 128
    1c26:	71 ea       	ldi	r23, 0xA1	; 161
    1c28:	83 e0       	ldi	r24, 0x03	; 3
    1c2a:	9c e1       	ldi	r25, 0x1C	; 28
    1c2c:	0e 94 e0 32 	call	0x65c0	; 0x65c0 <__udivmodsi4>
    1c30:	d8 01       	movw	r26, r16
    1c32:	0e 94 33 33 	call	0x6666	; 0x6666 <__muluhisi3>
    1c36:	e9 85       	ldd	r30, Y+9	; 0x09
    1c38:	fa 85       	ldd	r31, Y+10	; 0x0a
    1c3a:	8f 01       	movw	r16, r30
    1c3c:	20 e0       	ldi	r18, 0x00	; 0
    1c3e:	30 e0       	ldi	r19, 0x00	; 0
    1c40:	a9 01       	movw	r20, r18
    1c42:	98 01       	movw	r18, r16
    1c44:	23 c0       	rjmp	.+70     	; 0x1c8c <CheckPins+0x516>
    1c46:	8f 81       	ldd	r24, Y+7	; 0x07
    1c48:	98 85       	ldd	r25, Y+8	; 0x08
    1c4a:	0e 94 e8 05 	call	0xbd0	; 0xbd0 <unsigned_diff>
     lcd_data('h');	// Phcc
  #endif
     c_hfe = ((tmp16 / ((RR680PL+500)/1000)) * (R_H_VAL/500)) / (adc.tp1/5);
 #endif
  } else {
     tmp16 = unsigned_diff(adc.rhp, adc.lp_otr);
    1c4e:	8c 01       	movw	r16, r24
    1c50:	fd 81       	ldd	r31, Y+5	; 0x05
    1c52:	f4 b9       	out	0x04, r31	; 4
    1c54:	85 2d       	mov	r24, r5
    1c56:	0e 94 7b 05 	call	0xaf6	; 0xaf6 <W5msReadADC>
     R_DDR = TriPinRL | HiPinRL;		// Base resistor  R_L to GND
    1c5a:	99 8b       	std	Y+17, r25	; 0x11
     adc.hp1 = W5msReadADC(HighPin);	// voltage at the Emitter resistor
    1c5c:	88 8b       	std	Y+16, r24	; 0x10
    1c5e:	0e 94 e3 05 	call	0xbc6	; 0xbc6 <vcc_diff>
    1c62:	98 87       	std	Y+8, r25	; 0x08
    1c64:	8f 83       	std	Y+7, r24	; 0x07
     adc.rhp = vcc_diff(adc.hp1);	// voltage at the Emitter resistor
    1c66:	83 2d       	mov	r24, r3
    1c68:	0e 94 7f 05 	call	0xafe	; 0xafe <ReadADC>
    1c6c:	9a 87       	std	Y+10, r25	; 0x0a
     adc.tp1 = ReadADC(TristatePin);	// voltage at the base resistor (RL)
    1c6e:	89 87       	std	Y+9, r24	; 0x09
    1c70:	bc 01       	movw	r22, r24
    1c72:	c8 01       	movw	r24, r16
    1c74:	0e 94 e8 05 	call	0xbd0	; 0xbd0 <unsigned_diff>
 #if DebugOut == 5
     lcd_data('L');	// PLcc
 #endif
     // compute c_he with RL Base resistor
     c_hfe = (unsigned long)((unsigned long)unsigned_diff(tmp16, adc.tp1) * 100) / adc.tp1;
    1c78:	9c 01       	movw	r18, r24
    1c7a:	a4 e6       	ldi	r26, 0x64	; 100
    1c7c:	b0 e0       	ldi	r27, 0x00	; 0
    1c7e:	0e 94 1e 33 	call	0x663c	; 0x663c <__umulhisi3>
    1c82:	e9 85       	ldd	r30, Y+9	; 0x09
    1c84:	fa 85       	ldd	r31, Y+10	; 0x0a
    1c86:	9f 01       	movw	r18, r30
    1c88:	40 e0       	ldi	r20, 0x00	; 0
    1c8a:	50 e0       	ldi	r21, 0x00	; 0
    1c8c:	0e 94 e0 32 	call	0x65c0	; 0x65c0 <__udivmodsi4>
    1c90:	69 01       	movw	r12, r18
    1c92:	7a 01       	movw	r14, r20
    1c94:	14 b8       	out	0x04, r1	; 4
    1c96:	15 b8       	out	0x05, r1	; 5
    1c98:	fb 81       	ldd	r31, Y+3	; 0x03
    1c9a:	f8 b9       	out	0x08, r31	; 8
  DisplayValue(c_hfe,-2,' ',3);
 #endif
#endif   /* COMMON_COLLECTOR */

  //set Pins again for circuit with common Emitter PNP
  R_DDR = 0;			//all Resistor Ports to Input
    1c9c:	2c 81       	ldd	r18, Y+4	; 0x04
  R_PORT = 0;			//switch all resistor ports to GND
    1c9e:	27 b9       	out	0x07, r18	; 7
  ADC_PORT = HiADCp;		//switch High-Pin to VCC
    1ca0:	81 e0       	ldi	r24, 0x01	; 1
    1ca2:	0e 94 47 05 	call	0xa8e	; 0xa8e <sleep_5ms>
  ADC_DDR = HiADCm;		//switch High-Pin to output
    1ca6:	a4 b8       	out	0x04, r10	; 4
//  R_DDR = LoPinRL;		//switch R_L port for Low-Pin to output (GND)
  wait_about5ms();
    1ca8:	84 2d       	mov	r24, r4
    1caa:	0e 94 7b 05 	call	0xaf6	; 0xaf6 <W5msReadADC>
     lcd_data('E');
     lcd_testpin(HighPin);
     lcd_space();
#endif
     //Test to PNP
     R_DDR = LoPinRL | TriPinRL;	//switch R_L port for Tristate-Pin to output (GND), for Test of PNP
    1cae:	bc 84       	ldd	r11, Y+12	; 0x0c
     adc.lp1 = W5msReadADC(LowPin);	//measure voltage at LowPin
    1cb0:	38 8d       	ldd	r19, Y+24	; 0x18
    1cb2:	b3 2a       	or	r11, r19
    1cb4:	8f 35       	cpi	r24, 0x5F	; 95
    1cb6:	9d 40       	sbci	r25, 0x0D	; 13
    1cb8:	08 f4       	brcc	.+2      	; 0x1cbc <CheckPins+0x546>
    1cba:	46 c1       	rjmp	.+652    	; 0x1f48 <CheckPins+0x7d2>
     if(adc.lp1 > 3422) {
    1cbc:	b4 b8       	out	0x04, r11	; 4
    1cbe:	84 2d       	mov	r24, r4
    1cc0:	0e 94 77 05 	call	0xaee	; 0xaee <W10msReadADC>
//        R_DDR = LoPinRL | TriPinRL;	//switch R_L port for Tristate-Pin (Base) to output (GND)
//        wait_about5ms();		// load gate capacitor
//        R_DDR = LoPinRL | TriPinRH;	//switch R_H port for Tristate-Pin (Base) to output (GND)
//        adc.lp1 = W5msReadADC(LowPin);	//measure voltage at LowPin (assumed Collector)
//#else
        R_DDR = LoPinRL | TriPinRH;	//switch R_H port for Tristate-Pin (Base) to output (GND)
    1cc4:	8c 01       	movw	r16, r24
        adc.lp1 = W10msReadADC(LowPin);	//measure voltage at LowPin (assumed Collector)
    1cc6:	83 2d       	mov	r24, r3
    1cc8:	0e 94 7f 05 	call	0xafe	; 0xafe <ReadADC>
    1ccc:	9d 8b       	std	Y+21, r25	; 0x15
//#endif
        adc.tp2 = ReadADC(TristatePin);	//measure voltage at TristatePin (Base) 
    1cce:	8c 8b       	std	Y+20, r24	; 0x14
    1cd0:	85 2d       	mov	r24, r5
    1cd2:	0e 94 7f 05 	call	0xafe	; 0xafe <ReadADC>
    1cd6:	9f 8b       	std	Y+23, r25	; 0x17
        adc.hp2 = ReadADC(HighPin);	//measure voltage at HighPin (assumed Emitter)
    1cd8:	8e 8b       	std	Y+22, r24	; 0x16
    1cda:	8c 89       	ldd	r24, Y+20	; 0x14
    1cdc:	9d 89       	ldd	r25, Y+21	; 0x15
    1cde:	81 3d       	cpi	r24, 0xD1	; 209
    1ce0:	97 40       	sbci	r25, 0x07	; 7

        if(adc.tp2 > 2000) {
    1ce2:	08 f4       	brcc	.+2      	; 0x1ce6 <CheckPins+0x570>
    1ce4:	b7 c0       	rjmp	.+366    	; 0x1e54 <CheckPins+0x6de>
    1ce6:	84 e0       	ldi	r24, 0x04	; 4
    1ce8:	80 93 1a 01 	sts	0x011A, r24	; 0x80011a <PartFound>
    1cec:	8d e0       	ldi	r24, 0x0D	; 13
              ptrans.uBE = unsigned_diff(adc.hp2, adc.tp2);	// "Offset Voltage"
              goto savePresult;
           }
#endif
           //PNP-Transistor is found (Base voltage moves with Emitter to VCC)
           PartFound = PART_TRANSISTOR;
    1cee:	80 93 19 01 	sts	0x0119, r24	; 0x800119 <PartMode>
    1cf2:	60 16       	cp	r6, r16
           PartMode = PART_MODE_PNP;
    1cf4:	71 06       	cpc	r7, r17
    1cf6:	30 f4       	brcc	.+12     	; 0x1d04 <CheckPins+0x58e>
    1cf8:	98 01       	movw	r18, r16
 #if DebugOut == 5
           lcd_line4();
           lcd_data('P');
 #endif
           tmp16 = adc.lp1;
           if (tmp16 > adc.lp_otr) {
    1cfa:	26 19       	sub	r18, r6
    1cfc:	37 09       	sbc	r19, r7
    1cfe:	3e 83       	std	Y+6, r19	; 0x06
              tmp16 -= adc.lp_otr;
    1d00:	2d 83       	std	Y+5, r18	; 0x05
    1d02:	02 c0       	rjmp	.+4      	; 0x1d08 <CheckPins+0x592>
    1d04:	1e 83       	std	Y+6, r17	; 0x06
    1d06:	0d 83       	std	Y+5, r16	; 0x05
    1d08:	80 90 14 01 	lds	r8, 0x0114	; 0x800114 <resis680mi>
    1d0c:	90 90 15 01 	lds	r9, 0x0115	; 0x800115 <resis680mi+0x1>
           // e_hfe with 1% resolution for optocoupler
 #ifdef LONG_HFE
  #if DebugOut == 5
           lcd_data('H');	// PHce
  #endif
           e_hfe = ((unsigned int)tmp16 * (unsigned long)(((unsigned long)R_H_VAL * 10000) / 
    1d10:	a1 2c       	mov	r10, r1
    1d12:	b1 2c       	mov	r11, r1
    1d14:	60 e8       	ldi	r22, 0x80	; 128
    1d16:	71 ea       	ldi	r23, 0xA1	; 161
    1d18:	83 e0       	ldi	r24, 0x03	; 3
    1d1a:	9c e1       	ldi	r25, 0x1C	; 28
    1d1c:	a5 01       	movw	r20, r10
    1d1e:	94 01       	movw	r18, r8
    1d20:	0e 94 e0 32 	call	0x65c0	; 0x65c0 <__udivmodsi4>
    1d24:	ad 81       	ldd	r26, Y+5	; 0x05
    1d26:	be 81       	ldd	r27, Y+6	; 0x06
    1d28:	0e 94 33 33 	call	0x6666	; 0x6666 <__muluhisi3>
    1d2c:	ec 89       	ldd	r30, Y+20	; 0x14
    1d2e:	fd 89       	ldd	r31, Y+21	; 0x15
    1d30:	9f 01       	movw	r18, r30
    1d32:	40 e0       	ldi	r20, 0x00	; 0
    1d34:	50 e0       	ldi	r21, 0x00	; 0
    1d36:	0e 94 e0 32 	call	0x65c0	; 0x65c0 <__udivmodsi4>
    1d3a:	80 91 68 01 	lds	r24, 0x0168	; 0x800168 <ptrans+0xf>
    1d3e:	88 23       	and	r24, r24
    1d40:	69 f0       	breq	.+26     	; 0x1d5c <CheckPins+0x5e6>
           lcd_data('B');
           lcd_data('=');
           DisplayValue(e_hfe,-2,' ',3);
 #endif
           // first hFE or e_hfe is greater than last hfe ?
           if ((ptrans.count == 0) || (e_hfe > ptrans.hfe)){
    1d42:	80 91 59 01 	lds	r24, 0x0159	; 0x800159 <ptrans>
    1d46:	90 91 5a 01 	lds	r25, 0x015A	; 0x80015a <ptrans+0x1>
    1d4a:	a0 91 5b 01 	lds	r26, 0x015B	; 0x80015b <ptrans+0x2>
    1d4e:	b0 91 5c 01 	lds	r27, 0x015C	; 0x80015c <ptrans+0x3>
    1d52:	82 17       	cp	r24, r18
    1d54:	93 07       	cpc	r25, r19
    1d56:	a4 07       	cpc	r26, r20
    1d58:	b5 07       	cpc	r27, r21
    1d5a:	08 f5       	brcc	.+66     	; 0x1d9e <CheckPins+0x628>
    1d5c:	20 93 59 01 	sts	0x0159, r18	; 0x800159 <ptrans>
    1d60:	30 93 5a 01 	sts	0x015A, r19	; 0x80015a <ptrans+0x1>
              ptrans.hfe = e_hfe;				// hFE with common emitter
    1d64:	40 93 5b 01 	sts	0x015B, r20	; 0x80015b <ptrans+0x2>
    1d68:	50 93 5c 01 	sts	0x015C, r21	; 0x80015c <ptrans+0x3>
    1d6c:	98 01       	movw	r18, r16
    1d6e:	a0 e1       	ldi	r26, 0x10	; 16
    1d70:	b7 e2       	ldi	r27, 0x27	; 39
    1d72:	0e 94 1e 33 	call	0x663c	; 0x663c <__umulhisi3>
 #if FLASHEND > 0x1fff  /* at least ATmega16 */
              ptrans.current = (unsigned int)(((unsigned long)adc.lp1 * 10000) / RR680MI); // Ic 1uA
    1d76:	a5 01       	movw	r20, r10
    1d78:	94 01       	movw	r18, r8
    1d7a:	0e 94 e0 32 	call	0x65c0	; 0x65c0 <__udivmodsi4>
    1d7e:	30 93 60 01 	sts	0x0160, r19	; 0x800160 <ptrans+0x7>
    1d82:	20 93 5f 01 	sts	0x015F, r18	; 0x80015f <ptrans+0x6>
    1d86:	6c 89       	ldd	r22, Y+20	; 0x14
    1d88:	7d 89       	ldd	r23, Y+21	; 0x15
    1d8a:	8e 89       	ldd	r24, Y+22	; 0x16
    1d8c:	9f 89       	ldd	r25, Y+23	; 0x17
 #endif
              ptrans.uBE = unsigned_diff(adc.hp2, adc.tp2);	// Base Emitter Voltage
    1d8e:	0e 94 e8 05 	call	0xbd0	; 0xbd0 <unsigned_diff>
    1d92:	90 93 5e 01 	sts	0x015E, r25	; 0x80015e <ptrans+0x5>
    1d96:	80 93 5d 01 	sts	0x015D, r24	; 0x80015d <ptrans+0x4>
    1d9a:	81 e0       	ldi	r24, 0x01	; 1
    1d9c:	01 c0       	rjmp	.+2      	; 0x1da0 <CheckPins+0x62a>
    1d9e:	80 e0       	ldi	r24, 0x00	; 0
    1da0:	40 91 59 01 	lds	r20, 0x0159	; 0x800159 <ptrans>
              update_pins = 1;		// trans.ebc must be updated
    1da4:	50 91 5a 01 	lds	r21, 0x015A	; 0x80015a <ptrans+0x1>
#ifdef COMMON_COLLECTOR
           //current amplification factor for common  Collector (Emitter follower)
           // c_hFE = (Emitter current - Base current) / Base current
 #ifdef COMMON_EMITTER
           // also with COMMON_EMITTER, is c_hfe greater than the last hFE?
           if (c_hfe > ptrans.hfe)  // trans.hfe is allready e_hfe or last c_hFE
    1da8:	60 91 5b 01 	lds	r22, 0x015B	; 0x80015b <ptrans+0x2>
    1dac:	70 91 5c 01 	lds	r23, 0x015C	; 0x80015c <ptrans+0x3>
    1db0:	4c 15       	cp	r20, r12
    1db2:	5d 05       	cpc	r21, r13
    1db4:	6e 05       	cpc	r22, r14
    1db6:	7f 05       	cpc	r23, r15
    1db8:	38 f5       	brcc	.+78     	; 0x1e08 <CheckPins+0x692>
    1dba:	c0 92 59 01 	sts	0x0159, r12	; 0x800159 <ptrans>
    1dbe:	d0 92 5a 01 	sts	0x015A, r13	; 0x80015a <ptrans+0x1>
 #else
           // without COMMON_EMITTER , c_hFE is first or greater than the old one?
           if ((ptrans.count == 0) || (c_hfe > ptrans.hfe)) 
 #endif
           {
              ptrans.hfe = c_hfe;		// c_hfe is the best
    1dc2:	e0 92 5b 01 	sts	0x015B, r14	; 0x80015b <ptrans+0x2>
    1dc6:	f0 92 5c 01 	sts	0x015C, r15	; 0x80015c <ptrans+0x3>
    1dca:	69 85       	ldd	r22, Y+9	; 0x09
    1dcc:	7a 85       	ldd	r23, Y+10	; 0x0a
    1dce:	88 89       	ldd	r24, Y+16	; 0x10
    1dd0:	99 89       	ldd	r25, Y+17	; 0x11
              ptrans.uBE = unsigned_diff(adc.hp1, adc.tp1);	// Base Emitter Voltage common collector
    1dd2:	0e 94 e8 05 	call	0xbd0	; 0xbd0 <unsigned_diff>
    1dd6:	90 93 5e 01 	sts	0x015E, r25	; 0x80015e <ptrans+0x5>
    1dda:	80 93 5d 01 	sts	0x015D, r24	; 0x80015d <ptrans+0x4>
    1dde:	2f 81       	ldd	r18, Y+7	; 0x07
    1de0:	38 85       	ldd	r19, Y+8	; 0x08
    1de2:	a0 e1       	ldi	r26, 0x10	; 16
    1de4:	b7 e2       	ldi	r27, 0x27	; 39
 #if FLASHEND > 0x1fff  /* at least ATmega16 */
              ptrans.current = (unsigned int)(((unsigned long)adc.rhp * 10000) / RR680PL); // Ie 1uA
              ptrans.current += 10000;		// current at emitter!
    1de6:	0e 94 1e 33 	call	0x663c	; 0x663c <__umulhisi3>
    1dea:	20 91 1b 01 	lds	r18, 0x011B	; 0x80011b <resis680pl>
    1dee:	30 91 1c 01 	lds	r19, 0x011C	; 0x80011c <resis680pl+0x1>
    1df2:	40 e0       	ldi	r20, 0x00	; 0
    1df4:	50 e0       	ldi	r21, 0x00	; 0
    1df6:	0e 94 e0 32 	call	0x65c0	; 0x65c0 <__udivmodsi4>
    1dfa:	20 5f       	subi	r18, 0xF0	; 240
    1dfc:	38 4d       	sbci	r19, 0xD8	; 216
    1dfe:	30 93 60 01 	sts	0x0160, r19	; 0x800160 <ptrans+0x7>
    1e02:	20 93 5f 01 	sts	0x015F, r18	; 0x80015f <ptrans+0x6>
    1e06:	03 c0       	rjmp	.+6      	; 0x1e0e <CheckPins+0x698>
    1e08:	88 23       	and	r24, r24
    1e0a:	09 f4       	brne	.+2      	; 0x1e0e <CheckPins+0x698>
    1e0c:	b1 c3       	rjmp	.+1890   	; 0x2570 <CheckPins+0xdfa>
    1e0e:	c0 90 14 01 	lds	r12, 0x0114	; 0x800114 <resis680mi>
#endif   /* end COMMON_COLLECTOR */
#if DebugOut == 5
           lcd_data('B');
#endif
#ifdef SHOW_ICE
           if (update_pins != 0) {
    1e12:	d0 90 15 01 	lds	r13, 0x0115	; 0x800115 <resis680mi+0x1>
	      // update residual collector current without base current
              ptrans.ice0 = (unsigned int)(((unsigned long)adc.lp_otr * 10000) / RR680MI); // ICE0 1uA
    1e16:	e1 2c       	mov	r14, r1
    1e18:	f1 2c       	mov	r15, r1
    1e1a:	93 01       	movw	r18, r6
    1e1c:	a0 e1       	ldi	r26, 0x10	; 16
    1e1e:	b7 e2       	ldi	r27, 0x27	; 39
    1e20:	0e 94 1e 33 	call	0x663c	; 0x663c <__umulhisi3>
    1e24:	a7 01       	movw	r20, r14
    1e26:	96 01       	movw	r18, r12
    1e28:	0e 94 e0 32 	call	0x65c0	; 0x65c0 <__udivmodsi4>
    1e2c:	30 93 62 01 	sts	0x0162, r19	; 0x800162 <ptrans+0x9>
    1e30:	20 93 61 01 	sts	0x0161, r18	; 0x800161 <ptrans+0x8>
    1e34:	2d 85       	ldd	r18, Y+13	; 0x0d
    1e36:	3e 85       	ldd	r19, Y+14	; 0x0e
    1e38:	a0 e1       	ldi	r26, 0x10	; 16
    1e3a:	b7 e2       	ldi	r27, 0x27	; 39
              ptrans.ices = (unsigned int)(((unsigned long)adc.vCEs * 10000) / RR680MI); // ICEs 1uA
    1e3c:	0e 94 1e 33 	call	0x663c	; 0x663c <__umulhisi3>
    1e40:	a7 01       	movw	r20, r14
    1e42:	96 01       	movw	r18, r12
    1e44:	0e 94 e0 32 	call	0x65c0	; 0x65c0 <__udivmodsi4>
    1e48:	30 93 64 01 	sts	0x0164, r19	; 0x800164 <ptrans+0xb>
    1e4c:	20 93 63 01 	sts	0x0163, r18	; 0x800163 <ptrans+0xa>
    1e50:	81 e0       	ldi	r24, 0x01	; 1
    1e52:	8e c3       	rjmp	.+1820   	; 0x2570 <CheckPins+0xdfa>
    1e54:	f1 e6       	ldi	r31, 0x61	; 97
    1e56:	6f 16       	cp	r6, r31
    1e58:	71 04       	cpc	r7, r1
    1e5a:	08 f0       	brcs	.+2      	; 0x1e5e <CheckPins+0x6e8>
           }
#endif
           goto savePresult;		// marke P type, save Pins and exit
        }  /* end  if(adc.tp2 > 2000) */
        // is probably a P-E-MOS, check voltage
        if((adc.lp_otr < 97) && (adc.lp1 > 2000)) {
    1e5c:	75 c0       	rjmp	.+234    	; 0x1f48 <CheckPins+0x7d2>
    1e5e:	01 3d       	cpi	r16, 0xD1	; 209
    1e60:	27 e0       	ldi	r18, 0x07	; 7
    1e62:	12 07       	cpc	r17, r18
    1e64:	08 f4       	brcc	.+2      	; 0x1e68 <CheckPins+0x6f2>
    1e66:	70 c0       	rjmp	.+224    	; 0x1f48 <CheckPins+0x7d2>
    1e68:	85 e0       	ldi	r24, 0x05	; 5
    1e6a:	80 93 1a 01 	sts	0x011A, r24	; 0x80011a <PartFound>
    1e6e:	82 e1       	ldi	r24, 0x12	; 18
           //is flow voltage low enough in the closed  state?
           //(since D-Mode-FET would be by mistake detected as E-Mode )
           PartFound = PART_FET;		//P-Kanal-MOSFET is found (Basis/Gate moves not to VCC)
    1e70:	80 93 19 01 	sts	0x0119, r24	; 0x800119 <PartMode>
    1e74:	c8 01       	movw	r24, r16
           PartMode = PART_MODE_MOS|P_CHANNEL|E_MODE;
    1e76:	86 50       	subi	r24, 0x06	; 6
    1e78:	9f 4f       	sbci	r25, 0xFF	; 255
    1e7a:	4e 89       	ldd	r20, Y+22	; 0x16
           if (adc.hp2 > (adc.lp1+250)) {
    1e7c:	5f 89       	ldd	r21, Y+23	; 0x17
    1e7e:	84 17       	cp	r24, r20
    1e80:	95 07       	cpc	r25, r21
    1e82:	20 f4       	brcc	.+8      	; 0x1e8c <CheckPins+0x716>
    1e84:	83 e1       	ldi	r24, 0x13	; 19
    1e86:	80 93 19 01 	sts	0x0119, r24	; 0x800119 <PartMode>
    1e8a:	19 c0       	rjmp	.+50     	; 0x1ebe <CheckPins+0x748>
           lcd_space();
           mVOut(adc.hp2);
           mVOut(adc.lp1);
 #endif
              //Drain-Source Voltage to high, must be a IGBT
              PartMode = PART_MODE_IGBT|P_CHANNEL|E_MODE;
    1e8c:	80 91 14 01 	lds	r24, 0x0114	; 0x800114 <resis680mi>
    1e90:	90 91 15 01 	lds	r25, 0x0115	; 0x800115 <resis680mi+0x1>
#ifdef SHOW_R_DS
           } else {
              ptrans.uBE = RR680MI * (unsigned long)unsigned_diff(adc.hp2, adc.lp1) / adc.lp1; // DS resistance in 0.1 OHm
    1e94:	9e 83       	std	Y+6, r25	; 0x06
    1e96:	8d 83       	std	Y+5, r24	; 0x05
    1e98:	b8 01       	movw	r22, r16
    1e9a:	8e 89       	ldd	r24, Y+22	; 0x16
    1e9c:	9f 89       	ldd	r25, Y+23	; 0x17
    1e9e:	0e 94 e8 05 	call	0xbd0	; 0xbd0 <unsigned_diff>
    1ea2:	2d 81       	ldd	r18, Y+5	; 0x05
    1ea4:	3e 81       	ldd	r19, Y+6	; 0x06
    1ea6:	dc 01       	movw	r26, r24
    1ea8:	0e 94 1e 33 	call	0x663c	; 0x663c <__umulhisi3>
    1eac:	98 01       	movw	r18, r16
    1eae:	40 e0       	ldi	r20, 0x00	; 0
    1eb0:	50 e0       	ldi	r21, 0x00	; 0
    1eb2:	0e 94 e0 32 	call	0x65c0	; 0x65c0 <__udivmodsi4>
    1eb6:	30 93 5e 01 	sts	0x015E, r19	; 0x80015e <ptrans+0x5>
    1eba:	20 93 5d 01 	sts	0x015D, r18	; 0x80015d <ptrans+0x4>
    1ebe:	9a 89       	ldd	r25, Y+18	; 0x12
    1ec0:	97 70       	andi	r25, 0x07	; 7
    1ec2:	e9 2e       	mov	r14, r25
    1ec4:	83 2d       	mov	r24, r3
    1ec6:	80 64       	ori	r24, 0x40	; 64
    1ec8:	80 93 7c 00 	sts	0x007C, r24	; 0x80007c <__TEXT_REGION_LENGTH__+0x7e007c>
       	   //measure the Gate threshold voltage
           //Switching of Drain is monitored with digital input
           // Low level is specified up to 0.3 * VCC
           // High level is specified above 0.6 * VCC
           PinMSK = LoADCm & 7;
       	   ADMUX = TristatePin | (1<<REFS0);	// switch to TristatePin, Ref. VCC
    1ecc:	eb e0       	ldi	r30, 0x0B	; 11
    1ece:	fe 2e       	mov	r15, r30
    1ed0:	e1 e0       	ldi	r30, 0x01	; 1
    1ed2:	f0 e0       	ldi	r31, 0x00	; 0
    1ed4:	fe 83       	std	Y+6, r31	; 0x06
       	   tmp16 = 1;			// round up ((1*4)/9)
    1ed6:	ed 83       	std	Y+5, r30	; 0x05
    1ed8:	0f ef       	ldi	r16, 0xFF	; 255
    1eda:	13 e0       	ldi	r17, 0x03	; 3
    1edc:	a8 95       	wdr
       	      while (!(ADC_PIN&PinMSK));		// Wait, until the MOSFET switches and Drain moves to VCC
                  			// 1 is detected with more than 2.5V (up to 2.57V) with tests of mega168 and mega328
       	      R_DDR = LoPinRL;
       	      ADCSRA |= (1<<ADSC);		// Start Conversion
       	      while (ADCSRA&(1<<ADSC));		// wait
      	      tmp16 += (1023 - ADCW);	// Add Tristatepin-Voltage
    1ede:	61 e0       	ldi	r22, 0x01	; 1
    1ee0:	89 81       	ldd	r24, Y+1	; 0x01
           // High level is specified above 0.6 * VCC
           PinMSK = LoADCm & 7;
       	   ADMUX = TristatePin | (1<<REFS0);	// switch to TristatePin, Ref. VCC
       	   tmp16 = 1;			// round up ((1*4)/9)
       	   for(ii=0;ii<11;ii++) {
       	      wdt_reset();
    1ee2:	7a d5       	rcall	.+2804   	; 0x29d8 <ChargePin10ms>
       	      ChargePin10ms(TriPinRL,1);
    1ee4:	b4 b8       	out	0x04, r11	; 4
    1ee6:	86 b1       	in	r24, 0x06	; 6
    1ee8:	8e 21       	and	r24, r14
    1eea:	e9 f3       	breq	.-6      	; 0x1ee6 <CheckPins+0x770>
                R_DDR = LoPinRL | TriPinRH;		//switch R_H for Tristate-Pin (Basis) to GND
    1eec:	fc 85       	ldd	r31, Y+12	; 0x0c
       	      while (!(ADC_PIN&PinMSK));		// Wait, until the MOSFET switches and Drain moves to VCC
    1eee:	f4 b9       	out	0x04, r31	; 4
    1ef0:	80 91 7a 00 	lds	r24, 0x007A	; 0x80007a <__TEXT_REGION_LENGTH__+0x7e007a>
                  			// 1 is detected with more than 2.5V (up to 2.57V) with tests of mega168 and mega328
       	      R_DDR = LoPinRL;
    1ef4:	80 64       	ori	r24, 0x40	; 64
    1ef6:	80 93 7a 00 	sts	0x007A, r24	; 0x80007a <__TEXT_REGION_LENGTH__+0x7e007a>
       	      ADCSRA |= (1<<ADSC);		// Start Conversion
    1efa:	80 91 7a 00 	lds	r24, 0x007A	; 0x80007a <__TEXT_REGION_LENGTH__+0x7e007a>
    1efe:	86 fd       	sbrc	r24, 6
    1f00:	fc cf       	rjmp	.-8      	; 0x1efa <CheckPins+0x784>
       	      while (ADCSRA&(1<<ADSC));		// wait
    1f02:	80 91 78 00 	lds	r24, 0x0078	; 0x800078 <__TEXT_REGION_LENGTH__+0x7e0078>
    1f06:	90 91 79 00 	lds	r25, 0x0079	; 0x800079 <__TEXT_REGION_LENGTH__+0x7e0079>
      	      tmp16 += (1023 - ADCW);	// Add Tristatepin-Voltage
    1f0a:	98 01       	movw	r18, r16
    1f0c:	28 1b       	sub	r18, r24
    1f0e:	39 0b       	sbc	r19, r25
    1f10:	4d 81       	ldd	r20, Y+5	; 0x05
    1f12:	5e 81       	ldd	r21, Y+6	; 0x06
    1f14:	42 0f       	add	r20, r18
    1f16:	53 1f       	adc	r21, r19
    1f18:	5e 83       	std	Y+6, r21	; 0x06
    1f1a:	4d 83       	std	Y+5, r20	; 0x05
    1f1c:	fa 94       	dec	r15
    1f1e:	f1 10       	cpse	r15, r1
    1f20:	dd cf       	rjmp	.-70     	; 0x1edc <CheckPins+0x766>
    1f22:	ca 01       	movw	r24, r20
    1f24:	88 0f       	add	r24, r24
           // Low level is specified up to 0.3 * VCC
           // High level is specified above 0.6 * VCC
           PinMSK = LoADCm & 7;
       	   ADMUX = TristatePin | (1<<REFS0);	// switch to TristatePin, Ref. VCC
       	   tmp16 = 1;			// round up ((1*4)/9)
       	   for(ii=0;ii<11;ii++) {
    1f26:	99 1f       	adc	r25, r25
    1f28:	88 0f       	add	r24, r24
       	      ADCSRA |= (1<<ADSC);		// Start Conversion
       	      while (ADCSRA&(1<<ADSC));		// wait
      	      tmp16 += (1023 - ADCW);	// Add Tristatepin-Voltage
           }
           tmp16 *= 4;		// is equal to 44*ADCW
           ptrans.gthvoltage = tmp16 / 9;		// gives resolution in mV
    1f2a:	99 1f       	adc	r25, r25
    1f2c:	69 e0       	ldi	r22, 0x09	; 9
    1f2e:	70 e0       	ldi	r23, 0x00	; 0
    1f30:	0e 94 b9 32 	call	0x6572	; 0x6572 <__udivmodhi4>
    1f34:	70 93 64 01 	sts	0x0164, r23	; 0x800164 <ptrans+0xb>
    1f38:	60 93 63 01 	sts	0x0163, r22	; 0x800163 <ptrans+0xa>
    1f3c:	80 91 68 01 	lds	r24, 0x0168	; 0x800168 <ptrans+0xf>
    1f40:	8f 5f       	subi	r24, 0xFF	; 255
    1f42:	80 93 68 01 	sts	0x0168, r24	; 0x800168 <ptrans+0xf>
           ptrans.count++;		// count FET as two for accelerate searching
    1f46:	84 cf       	rjmp	.-248    	; 0x1e50 <CheckPins+0x6da>
    1f48:	b4 b8       	out	0x04, r11	; 4
    1f4a:	58 8d       	ldd	r21, Y+24	; 0x18
    1f4c:	55 b9       	out	0x05, r21	; 5
    1f4e:	84 2d       	mov	r24, r4
 #if DebugOut == 5
     lcd_line4();
     lcd_data('N');
 #endif
    // first try to get hFE with RH
    R_DDR = LoPinRL | TriPinRH;
    1f50:	0e 94 7b 05 	call	0xaf6	; 0xaf6 <W5msReadADC>
    R_PORT = TriPinRH;		// Tripin=RH+
    1f54:	6c 01       	movw	r12, r24
    adc.lp1 = W5msReadADC(LowPin);
    1f56:	83 2d       	mov	r24, r3
    1f58:	0e 94 7f 05 	call	0xafe	; 0xafe <ReadADC>
    1f5c:	98 87       	std	Y+8, r25	; 0x08
    adc.tp1 = ReadADC(TristatePin);	// voltage at the Base 
    1f5e:	8f 83       	std	Y+7, r24	; 0x07
    1f60:	0e 94 e3 05 	call	0xbc6	; 0xbc6 <vcc_diff>
    1f64:	9a 87       	std	Y+10, r25	; 0x0a
    1f66:	89 87       	std	Y+9, r24	; 0x09
    adc.rtp = vcc_diff(adc.tp1);	// voltage at Base resistor
    1f68:	8c 14       	cp	r8, r12
    1f6a:	9d 04       	cpc	r9, r13
    1f6c:	a8 f4       	brcc	.+42     	; 0x1f98 <CheckPins+0x822>
    1f6e:	b3 01       	movw	r22, r6
    if (adc.lp1 > (100+adc.lp_otr)) {
    1f70:	c6 01       	movw	r24, r12
    1f72:	0e 94 e8 05 	call	0xbd0	; 0xbd0 <unsigned_diff>
       // c_hfe with 1% resolution for optocoupler
       // compute c_hfe with RH Base resistor
       tmp16 = unsigned_diff(adc.lp1, adc.lp_otr);
    1f76:	8c 01       	movw	r16, r24
    1f78:	20 91 14 01 	lds	r18, 0x0114	; 0x800114 <resis680mi>
    1f7c:	30 91 15 01 	lds	r19, 0x0115	; 0x800115 <resis680mi+0x1>
 #ifdef LONG_HFE
  #if DebugOut == 5
       lcd_data('H');	// NHcc
  #endif

       c_hfe = ((unsigned long)tmp16 * (unsigned long)(((unsigned long)R_H_VAL * 10000) / 
    1f80:	40 e0       	ldi	r20, 0x00	; 0
    1f82:	50 e0       	ldi	r21, 0x00	; 0
    1f84:	60 e8       	ldi	r22, 0x80	; 128
    1f86:	71 ea       	ldi	r23, 0xA1	; 161
    1f88:	83 e0       	ldi	r24, 0x03	; 3
    1f8a:	9c e1       	ldi	r25, 0x1C	; 28
    1f8c:	0e 94 e0 32 	call	0x65c0	; 0x65c0 <__udivmodsi4>
    1f90:	d8 01       	movw	r26, r16
    1f92:	0e 94 33 33 	call	0x6666	; 0x6666 <__muluhisi3>
    1f96:	1f c0       	rjmp	.+62     	; 0x1fd6 <CheckPins+0x860>
    1f98:	a4 b8       	out	0x04, r10	; 4
    1f9a:	f9 81       	ldd	r31, Y+1	; 0x01
    1f9c:	f5 b9       	out	0x05, r31	; 5
    1f9e:	84 2d       	mov	r24, r4
  #endif
       c_hfe = ((tmp16 / ((RR680MI+500)/1000)) * (R_H_VAL/500)) / (adc.tp2/5);
 #endif
    } else {
    // Low-Pin=RL- HighPin=VCC
      R_DDR = LoPinRL | TriPinRL;
    1fa0:	0e 94 7b 05 	call	0xaf6	; 0xaf6 <W5msReadADC>
      R_PORT = TriPinRL;			// TriPin=RL+  NPN with common Collector
    1fa4:	6c 01       	movw	r12, r24
      adc.lp1 = W5msReadADC(LowPin);	// voltage at Emitter resistor
    1fa6:	83 2d       	mov	r24, r3
    1fa8:	0e 94 7f 05 	call	0xafe	; 0xafe <ReadADC>
    1fac:	98 87       	std	Y+8, r25	; 0x08
      adc.tp1 = ReadADC(TristatePin);	// voltage at the Base 
    1fae:	8f 83       	std	Y+7, r24	; 0x07
    1fb0:	0e 94 e3 05 	call	0xbc6	; 0xbc6 <vcc_diff>
    1fb4:	9a 87       	std	Y+10, r25	; 0x0a
    1fb6:	89 87       	std	Y+9, r24	; 0x09
      adc.rtp = vcc_diff(adc.tp1);	// voltage at Base resistor
    1fb8:	c6 01       	movw	r24, r12
    1fba:	6c 14       	cp	r6, r12
    1fbc:	7d 04       	cpc	r7, r13
    1fbe:	10 f4       	brcc	.+4      	; 0x1fc4 <CheckPins+0x84e>
 #if DebugOut == 5
       lcd_data('L');	// NLcc
 #endif
       tmp16 = adc.lp1;
       if (tmp16 > adc.lp_otr) {
          tmp16 -= adc.lp_otr;
    1fc0:	86 19       	sub	r24, r6
      adc.rtp = vcc_diff(adc.tp1);	// voltage at Base resistor
 #if DebugOut == 5
       lcd_data('L');	// NLcc
 #endif
       tmp16 = adc.lp1;
       if (tmp16 > adc.lp_otr) {
    1fc2:	97 09       	sbc	r25, r7
    1fc4:	69 85       	ldd	r22, Y+9	; 0x09
    1fc6:	7a 85       	ldd	r23, Y+10	; 0x0a
          tmp16 -= adc.lp_otr;
    1fc8:	0e 94 e8 05 	call	0xbd0	; 0xbd0 <unsigned_diff>
       }
       // compute c_hfe with RL Base resistor
       c_hfe = (unsigned long)((unsigned long)unsigned_diff(tmp16, adc.rtp) * 100) / adc.rtp;
    1fcc:	9c 01       	movw	r18, r24
    1fce:	a4 e6       	ldi	r26, 0x64	; 100
    1fd0:	b0 e0       	ldi	r27, 0x00	; 0
    1fd2:	0e 94 1e 33 	call	0x663c	; 0x663c <__umulhisi3>
    1fd6:	e9 85       	ldd	r30, Y+9	; 0x09
    1fd8:	fa 85       	ldd	r31, Y+10	; 0x0a
    1fda:	9f 01       	movw	r18, r30
    1fdc:	40 e0       	ldi	r20, 0x00	; 0
    1fde:	50 e0       	ldi	r21, 0x00	; 0
    1fe0:	0e 94 e0 32 	call	0x65c0	; 0x65c0 <__udivmodsi4>
    1fe4:	49 01       	movw	r8, r18
    1fe6:	5a 01       	movw	r10, r20
    1fe8:	fa 81       	ldd	r31, Y+2	; 0x02
    1fea:	f7 b9       	out	0x07, r31	; 7
    1fec:	88 e0       	ldi	r24, 0x08	; 8
    1fee:	88 b9       	out	0x08, r24	; 8
     lcd_data('=');
     DisplayValue(c_hfe,-2,' ',3);
 #endif
#endif
    //Tristate (can be Base) to VCC, Test if NPN
    ADC_DDR = LoADCm;		//Low-Pin to output 0V
    1ff0:	2d 81       	ldd	r18, Y+5	; 0x05
    1ff2:	24 b9       	out	0x04, r18	; 4
    ADC_PORT = TXD_VAL;			//switch Low-Pin to GND
    1ff4:	25 b9       	out	0x05, r18	; 5
    1ff6:	85 2d       	mov	r24, r5
    R_DDR = TriPinRL | HiPinRL;		//RL port for High-Pin and Tristate-Pin to output
    1ff8:	0e 94 7b 05 	call	0xaf6	; 0xaf6 <W5msReadADC>
    // vCEs is already measured correctly with common emitter circuit
    R_PORT = TriPinRL | HiPinRL;	//RL port for High-Pin and Tristate-Pin to Vcc
    1ffc:	8c 01       	movw	r16, r24
    adc.hp1 = W5msReadADC(HighPin);	//measure voltage at High-Pin  (Collector)
    1ffe:	83 2d       	mov	r24, r3
    2000:	0e 94 7f 05 	call	0xafe	; 0xafe <ReadADC>
    2004:	9a 87       	std	Y+10, r25	; 0x0a
#ifdef WITH_THYRISTOR_GATE_V
    adc.tp2 = ReadADC(TristatePin);	//voltage of gate
    2006:	89 87       	std	Y+9, r24	; 0x09
    2008:	84 2d       	mov	r24, r4
    200a:	0e 94 7f 05 	call	0xafe	; 0xafe <ReadADC>
    200e:	7c 01       	movw	r14, r24
    adc.lp2 = ReadADC(LowPin);		//voltage of Cathode
    2010:	00 33       	cpi	r16, 0x30	; 48
    2012:	31 e1       	ldi	r19, 0x11	; 17
    2014:	13 07       	cpc	r17, r19
    2016:	08 f0       	brcs	.+2      	; 0x201a <CheckPins+0x8a4>
#endif
//    if(adc.hp1 < 1600) 
//    if(adc.hp1 < 4500)    /* limit for opto-coupler with low hFE */
    if(adc.hp1 < 4400)    /* limit for opto-coupler with low hFE */
    2018:	bf c1       	rjmp	.+894    	; 0x2398 <CheckPins+0xc22>
    201a:	25 b8       	out	0x05, r2	; 5
    201c:	85 2d       	mov	r24, r5
    201e:	0e 94 7b 05 	call	0xaf6	; 0xaf6 <W5msReadADC>
       //Gate discharge
//      ChargePin10ms(TriPinRL,0);	//Tristate-Pin (Gate) across R_L 10ms to GND
       // TRIAC's can be triggered with gate and A1 (C) swapped. The current remains after triggering 
       // from gate to A2 (A) instead of A1 to A2. I have found that in this state the current will be lower,
       // if the Tristatepin (A1) is switched to GND.
       R_PORT = HiPinRL;
    2022:	99 8b       	std	Y+17, r25	; 0x11
       adc.hp4 = W5msReadADC(HighPin);  //read voltage with switched back base
    2024:	88 8b       	std	Y+16, r24	; 0x10
    2026:	24 b8       	out	0x04, r2	; 4
    2028:	85 2d       	mov	r24, r5
    202a:	0e 94 7b 05 	call	0xaf6	; 0xaf6 <W5msReadADC>
       R_DDR = HiPinRL;			// base to input
    202e:	9d 8b       	std	Y+21, r25	; 0x15
       adc.hp3 = W5msReadADC(HighPin);	//read voltage at High-Pin (probably Anode) again
    2030:	8c 8b       	std	Y+20, r24	; 0x14
    2032:	15 b8       	out	0x05, r1	; 5
    2034:	81 e0       	ldi	r24, 0x01	; 1
    2036:	0e 94 47 05 	call	0xa8e	; 0xa8e <sleep_5ms>
					//current should still flow, if not,
					// no Thyristor or holding current to low 
		 	
       R_PORT = 0;			//switch R_L for High-Pin (probably Anode) to GND (turn off)
    203a:	25 b8       	out	0x05, r2	; 5
       wait_about5ms();
    203c:	85 2d       	mov	r24, r5
    203e:	0e 94 7b 05 	call	0xaf6	; 0xaf6 <W5msReadADC>
       R_PORT = HiPinRL;		//switch R_L for High-Pin (probably Anode) again to VCC
    2042:	4c 89       	ldd	r20, Y+20	; 0x14
       adc.hp2 = W5msReadADC(HighPin);	//measure voltage at the High-Pin (probably Anode) again
    2044:	5d 89       	ldd	r21, Y+21	; 0x15
    2046:	40 34       	cpi	r20, 0x40	; 64
    2048:	56 40       	sbci	r21, 0x06	; 6
       lcd_space();
       mVOut(adc.hp3);
       mVOut(adc.hp2);
       mVOut(adc.hp1);
#endif
       if((adc.hp3 < 1600) && (adc.hp2 > 4400)
    204a:	08 f0       	brcs	.+2      	; 0x204e <CheckPins+0x8d8>
    204c:	5d c0       	rjmp	.+186    	; 0x2108 <CheckPins+0x992>
    204e:	81 33       	cpi	r24, 0x31	; 49
    2050:	91 41       	sbci	r25, 0x11	; 17
    2052:	08 f4       	brcc	.+2      	; 0x2056 <CheckPins+0x8e0>
    2054:	59 c0       	rjmp	.+178    	; 0x2108 <CheckPins+0x992>
    2056:	c8 01       	movw	r24, r16
    2058:	8a 56       	subi	r24, 0x6A	; 106
    205a:	9f 4f       	sbci	r25, 0xFF	; 255
    205c:	28 89       	ldd	r18, Y+16	; 0x10
           // additional check the voltage hp4 at A with gate hold at GND level
           && ((adc.hp1+150) > adc.hp4)
    205e:	39 89       	ldd	r19, Y+17	; 0x11
    2060:	28 17       	cp	r18, r24
    2062:	39 07       	cpc	r19, r25
    2064:	08 f0       	brcs	.+2      	; 0x2068 <CheckPins+0x8f2>
    2066:	50 c0       	rjmp	.+160    	; 0x2108 <CheckPins+0x992>
    2068:	86 e0       	ldi	r24, 0x06	; 6
    206a:	80 93 1a 01 	sts	0x011A, r24	; 0x80011a <PartFound>
    206e:	80 91 4e 01 	lds	r24, 0x014E	; 0x80014e <ntrans+0xf>
                                              ) {
          //if the holding current was switched off the thyristor must be switched off too. 
          //if Thyristor was still swiched on, if gate was switched off => Thyristor
          PartFound = PART_THYRISTOR;
    2072:	8f 5f       	subi	r24, 0xFF	; 255
    2074:	80 93 4e 01 	sts	0x014E, r24	; 0x80014e <ntrans+0xf>
          lcd_data('Y');
          lcd_testpin(HighPin);
          lcd_space();
#endif
 
          ntrans.count++;		// mark as two N-type transistors
    2078:	b7 01       	movw	r22, r14
    207a:	89 85       	ldd	r24, Y+9	; 0x09
    207c:	9a 85       	ldd	r25, Y+10	; 0x0a
    207e:	0e 94 e8 05 	call	0xbd0	; 0xbd0 <unsigned_diff>
#ifdef WITH_THYRISTOR_GATE_V
          ntrans.uBE = unsigned_diff(adc.tp2, adc.lp2);	// Gate - Cathode Voltage 
    2082:	90 93 44 01 	sts	0x0144, r25	; 0x800144 <ntrans+0x5>
    2086:	80 93 43 01 	sts	0x0143, r24	; 0x800143 <ntrans+0x4>
    208a:	b7 01       	movw	r22, r14
    208c:	c8 01       	movw	r24, r16
    208e:	0e 94 e8 05 	call	0xbd0	; 0xbd0 <unsigned_diff>
          ntrans.gthvoltage = unsigned_diff(adc.hp1, adc.lp2);	// Anode-Cathode Voltage
    2092:	90 93 4a 01 	sts	0x014A, r25	; 0x80014a <ntrans+0xb>
    2096:	80 93 49 01 	sts	0x0149, r24	; 0x800149 <ntrans+0xa>
    209a:	14 b8       	out	0x04, r1	; 4
    209c:	15 b8       	out	0x05, r1	; 5
    209e:	3a 89       	ldd	r19, Y+18	; 0x12
    20a0:	38 b9       	out	0x08, r19	; 8
#endif
          //Test if Triac
          R_DDR = 0;
    20a2:	81 e0       	ldi	r24, 0x01	; 1
          R_PORT = 0;
    20a4:	0e 94 47 05 	call	0xa8e	; 0xa8e <sleep_5ms>
          ADC_PORT = LoADCp;	//Low-Pin fix to VCC
    20a8:	24 b8       	out	0x04, r2	; 4
          wait_about5ms();
    20aa:	85 2d       	mov	r24, r5
    20ac:	0e 94 7b 05 	call	0xaf6	; 0xaf6 <W5msReadADC>
          R_DDR = HiPinRL;		//switch R_L port HighPin to output (GND)
    20b0:	85 3f       	cpi	r24, 0xF5	; 245
          if(W5msReadADC(HighPin) > 244) {
    20b2:	91 05       	cpc	r25, r1
    20b4:	08 f0       	brcs	.+2      	; 0x20b8 <CheckPins+0x942>
    20b6:	6a c2       	rjmp	.+1236   	; 0x258c <CheckPins+0xe16>
    20b8:	4d 81       	ldd	r20, Y+5	; 0x05
    20ba:	44 b9       	out	0x04, r20	; 4
    20bc:	83 2d       	mov	r24, r3
    20be:	0e 94 7b 05 	call	0xaf6	; 0xaf6 <W5msReadADC>
             lcd_space();
#endif
             goto saveNresult;		//measure voltage at the  High-Pin (probably A2); if too high:
                                	//component has current => kein Triac
          }
          R_DDR = HiPinRL | TriPinRL;	//switch R_L port for TristatePin (Gate) to output (GND) => Triac should be triggered 
    20c2:	81 3d       	cpi	r24, 0xD1	; 209
          if(W5msReadADC(TristatePin) < 977) {
    20c4:	93 40       	sbci	r25, 0x03	; 3
    20c6:	08 f4       	brcc	.+2      	; 0x20ca <CheckPins+0x954>
    20c8:	61 c2       	rjmp	.+1218   	; 0x258c <CheckPins+0xe16>
    20ca:	85 2d       	mov	r24, r5
    20cc:	0e 94 7f 05 	call	0xafe	; 0xafe <ReadADC>
    20d0:	8d 3d       	cpi	r24, 0xDD	; 221
             lcd_space();
#endif
             goto saveNresult; 		//measure voltage at the Tristate-Pin (probably Gate) ;
                              		// if to low, abort 
          }
          if(ReadADC(HighPin) < 733) {
    20d2:	92 40       	sbci	r25, 0x02	; 2
    20d4:	08 f4       	brcc	.+2      	; 0x20d8 <CheckPins+0x962>
    20d6:	5a c2       	rjmp	.+1204   	; 0x258c <CheckPins+0xe16>
    20d8:	24 b8       	out	0x04, r2	; 4
    20da:	85 2d       	mov	r24, r5
    20dc:	0e 94 7b 05 	call	0xaf6	; 0xaf6 <W5msReadADC>
             lcd_data('7');
             lcd_space();
#endif
             goto saveNresult; 		//component has no current => no Triac => abort
          }
          R_DDR = HiPinRL;		//TristatePin (Gate) to input 
    20e0:	8d 3d       	cpi	r24, 0xDD	; 221
          if(W5msReadADC(HighPin) < 733) {
    20e2:	92 40       	sbci	r25, 0x02	; 2
    20e4:	08 f4       	brcc	.+2      	; 0x20e8 <CheckPins+0x972>
    20e6:	52 c2       	rjmp	.+1188   	; 0x258c <CheckPins+0xe16>
    20e8:	25 b8       	out	0x05, r2	; 5
    20ea:	81 e0       	ldi	r24, 0x01	; 1
    20ec:	0e 94 47 05 	call	0xa8e	; 0xa8e <sleep_5ms>
             lcd_data('3');
             lcd_space();
#endif
             goto saveNresult; 		//component has no current without base current => no Triac => abort
          }
          R_PORT = HiPinRL;		//switch R_L port for HighPin to VCC => switch off holding current 
    20f0:	15 b8       	out	0x05, r1	; 5
          wait_about5ms();
    20f2:	85 2d       	mov	r24, r5
    20f4:	0e 94 7b 05 	call	0xaf6	; 0xaf6 <W5msReadADC>
          R_PORT = 0;			//switch R_L port for HighPin again to GND; Triac should now switched off
    20f8:	85 3f       	cpi	r24, 0xF5	; 245
          if(W5msReadADC(HighPin) > 244) {
    20fa:	91 05       	cpc	r25, r1
    20fc:	08 f0       	brcs	.+2      	; 0x2100 <CheckPins+0x98a>
    20fe:	46 c2       	rjmp	.+1164   	; 0x258c <CheckPins+0xe16>
    2100:	87 e0       	ldi	r24, 0x07	; 7
    2102:	80 93 1a 01 	sts	0x011A, r24	; 0x80011a <PartFound>
    2106:	42 c2       	rjmp	.+1156   	; 0x258c <CheckPins+0xe16>
             lcd_space();
#endif
             goto saveNresult;		//measure voltage at the High-Pin (probably A2) ;
                                	//if to high, component is not switched off => no Triac, abort
          }
          PartFound = PART_TRIAC;
    2108:	2a 81       	ldd	r18, Y+2	; 0x02
    210a:	27 b9       	out	0x07, r18	; 7
    210c:	39 81       	ldd	r19, Y+1	; 0x01
    210e:	34 b9       	out	0x04, r19	; 4
          goto saveNresult;
        }
      //Test if NPN Transistor or MOSFET
      ADC_DDR = LoADCm;	//Low-Pin to output 0V
    2110:	35 b9       	out	0x05, r19	; 5
    2112:	81 e0       	ldi	r24, 0x01	; 1
 #if FLASHEND > 0x1fff
//      R_DDR = HiPinRL | TriPinRL;	//R_L port of Tristate-Pin (Basis) to output
//      R_PORT = HiPinRL | TriPinRL;	//R_L port of Tristate-Pin (Basis) to VCC
      R_DDR =  TriPinRL;	//R_L port of Tristate-Pin (Basis) to output
    2114:	0e 94 47 05 	call	0xa8e	; 0xa8e <sleep_5ms>
      R_PORT = TriPinRL;	//R_L port of Tristate-Pin (Basis) to VCC
    2118:	4b 85       	ldd	r20, Y+11	; 0x0b
      wait_about5ms();			// load gate capacitor
    211a:	44 b9       	out	0x04, r20	; 4
    211c:	45 b9       	out	0x05, r20	; 5
    211e:	85 2d       	mov	r24, r5
      R_DDR = HiPinRL | TriPinRH;	//R_H port of Tristate-Pin (Basis) to output
    2120:	0e 94 7b 05 	call	0xaf6	; 0xaf6 <W5msReadADC>
      R_PORT = HiPinRL | TriPinRH;	//R_H port of Tristate-Pin (Basis) to VCC
    2124:	8c 01       	movw	r16, r24
      adc.hp2 = W5msReadADC(HighPin);	//measure the voltage at the collector  
    2126:	0e 94 e3 05 	call	0xbc6	; 0xbc6 <vcc_diff>
    212a:	99 8b       	std	Y+17, r25	; 0x11
    212c:	88 8b       	std	Y+16, r24	; 0x10
 #else
      R_PORT = HiPinRL | TriPinRH;	//R_H port of Tristate-Pin (Basis) to VCC
      adc.hp2 = W20msReadADC(HighPin);	//measure the voltage at the collector  
 #endif
      adc.rhp = vcc_diff(adc.hp2);	// voltage at the collector resistor
    212e:	83 2d       	mov	r24, r3
    2130:	0e 94 7f 05 	call	0xafe	; 0xafe <ReadADC>
    2134:	9e 83       	std	Y+6, r25	; 0x06
      adc.tp2 = ReadADC(TristatePin);	//measure the voltage at the base 
    2136:	8d 83       	std	Y+5, r24	; 0x05
    2138:	0e 94 e3 05 	call	0xbc6	; 0xbc6 <vcc_diff>
    213c:	9a 87       	std	Y+10, r25	; 0x0a
    213e:	89 87       	std	Y+9, r24	; 0x09
      adc.rtp = vcc_diff(adc.tp2);	// voltage at the base resistor
    2140:	84 2d       	mov	r24, r4
    2142:	0e 94 7f 05 	call	0xafe	; 0xafe <ReadADC>
    2146:	7c 01       	movw	r14, r24
      adc.lp2 = ReadADC(LowPin);
    2148:	89 85       	ldd	r24, Y+9	; 0x09
    214a:	9a 85       	ldd	r25, Y+10	; 0x0a
    214c:	8e 3f       	cpi	r24, 0xFE	; 254
    214e:	99 40       	sbci	r25, 0x09	; 9
      lcd_data('p');
      lcd_space();
      mVOut(adc.rtp);
 #endif

      if(adc.rtp > 2557) {		// Basis-voltage R_H is low enough
    2150:	08 f4       	brcc	.+2      	; 0x2154 <CheckPins+0x9de>
    2152:	b2 c0       	rjmp	.+356    	; 0x22b8 <CheckPins+0xb42>
    2154:	84 e0       	ldi	r24, 0x04	; 4
    2156:	80 93 1a 01 	sts	0x011A, r24	; 0x80011a <PartFound>
    215a:	8c e0       	ldi	r24, 0x0C	; 12
         PartFound = PART_TRANSISTOR;	//NPN-Transistor is found (Base is near GND)
    215c:	80 93 19 01 	sts	0x0119, r24	; 0x800119 <PartMode>
    2160:	b3 01       	movw	r22, r6
         PartMode = PART_MODE_NPN;
    2162:	88 89       	ldd	r24, Y+16	; 0x10
    2164:	99 89       	ldd	r25, Y+17	; 0x11
    2166:	0e 94 e8 05 	call	0xbd0	; 0xbd0 <unsigned_diff>
         lcd_line4();
         lcd_data('N');
  #endif
         //compute current amplification factor for common Emitter
         //hFE = B = Collector current / Base current
         tmp16 = unsigned_diff(adc.rhp, adc.lp_otr);	// subtract residual current
    216a:	8c 01       	movw	r16, r24
    216c:	20 91 1b 01 	lds	r18, 0x011B	; 0x80011b <resis680pl>
    2170:	30 91 1c 01 	lds	r19, 0x011C	; 0x80011c <resis680pl+0x1>
         // e_hfe with 1% resolution for optocoupler
  #ifdef LONG_HFE
   #if DebugOut == 5
         lcd_data('H');		// NHce
   #endif
         e_hfe = ((unsigned int)tmp16 * (unsigned long)(((unsigned long)R_H_VAL * 10000) / 
    2174:	40 e0       	ldi	r20, 0x00	; 0
    2176:	50 e0       	ldi	r21, 0x00	; 0
    2178:	60 e8       	ldi	r22, 0x80	; 128
    217a:	71 ea       	ldi	r23, 0xA1	; 161
    217c:	83 e0       	ldi	r24, 0x03	; 3
    217e:	9c e1       	ldi	r25, 0x1C	; 28
    2180:	0e 94 e0 32 	call	0x65c0	; 0x65c0 <__udivmodsi4>
    2184:	d8 01       	movw	r26, r16
    2186:	0e 94 33 33 	call	0x6666	; 0x6666 <__muluhisi3>
    218a:	e9 85       	ldd	r30, Y+9	; 0x09
    218c:	fa 85       	ldd	r31, Y+10	; 0x0a
    218e:	9f 01       	movw	r18, r30
    2190:	40 e0       	ldi	r20, 0x00	; 0
    2192:	50 e0       	ldi	r21, 0x00	; 0
    2194:	0e 94 e0 32 	call	0x65c0	; 0x65c0 <__udivmodsi4>
    2198:	80 91 4e 01 	lds	r24, 0x014E	; 0x80014e <ntrans+0xf>
    219c:	88 23       	and	r24, r24
    219e:	69 f0       	breq	.+26     	; 0x21ba <CheckPins+0xa44>
         mVOut(adc.rtp);
         lcd_data('B');
         lcd_data('=');
         DisplayValue(e_hfe,-2,' ',3);
 #endif
         if ((ntrans.count == 0) || (e_hfe > ntrans.hfe)){
    21a0:	80 91 3f 01 	lds	r24, 0x013F	; 0x80013f <ntrans>
    21a4:	90 91 40 01 	lds	r25, 0x0140	; 0x800140 <ntrans+0x1>
    21a8:	a0 91 41 01 	lds	r26, 0x0141	; 0x800141 <ntrans+0x2>
    21ac:	b0 91 42 01 	lds	r27, 0x0142	; 0x800142 <ntrans+0x3>
    21b0:	82 17       	cp	r24, r18
    21b2:	93 07       	cpc	r25, r19
    21b4:	a4 07       	cpc	r26, r20
    21b6:	b5 07       	cpc	r27, r21
    21b8:	28 f5       	brcc	.+74     	; 0x2204 <CheckPins+0xa8e>
    21ba:	20 93 3f 01 	sts	0x013F, r18	; 0x80013f <ntrans>
    21be:	30 93 40 01 	sts	0x0140, r19	; 0x800140 <ntrans+0x1>
            ntrans.hfe = e_hfe;
    21c2:	40 93 41 01 	sts	0x0141, r20	; 0x800141 <ntrans+0x2>
    21c6:	50 93 42 01 	sts	0x0142, r21	; 0x800142 <ntrans+0x3>
    21ca:	b7 01       	movw	r22, r14
    21cc:	8d 81       	ldd	r24, Y+5	; 0x05
    21ce:	9e 81       	ldd	r25, Y+6	; 0x06
    21d0:	0e 94 e8 05 	call	0xbd0	; 0xbd0 <unsigned_diff>
            ntrans.uBE = unsigned_diff(adc.tp2, adc.lp2);
    21d4:	90 93 44 01 	sts	0x0144, r25	; 0x800144 <ntrans+0x5>
    21d8:	80 93 43 01 	sts	0x0143, r24	; 0x800143 <ntrans+0x4>
    21dc:	28 89       	ldd	r18, Y+16	; 0x10
    21de:	39 89       	ldd	r19, Y+17	; 0x11
    21e0:	a0 e1       	ldi	r26, 0x10	; 16
    21e2:	b7 e2       	ldi	r27, 0x27	; 39
  #if FLASHEND > 0x1fff  /* at least ATmega16 */
            ntrans.current = (unsigned int)(((unsigned long)adc.rhp * 10000) / RR680PL); // Ic 1uA
    21e4:	0e 94 1e 33 	call	0x663c	; 0x663c <__umulhisi3>
    21e8:	20 91 1b 01 	lds	r18, 0x011B	; 0x80011b <resis680pl>
    21ec:	30 91 1c 01 	lds	r19, 0x011C	; 0x80011c <resis680pl+0x1>
    21f0:	40 e0       	ldi	r20, 0x00	; 0
    21f2:	50 e0       	ldi	r21, 0x00	; 0
    21f4:	0e 94 e0 32 	call	0x65c0	; 0x65c0 <__udivmodsi4>
    21f8:	30 93 46 01 	sts	0x0146, r19	; 0x800146 <ntrans+0x7>
    21fc:	20 93 45 01 	sts	0x0145, r18	; 0x800145 <ntrans+0x6>
    2200:	81 e0       	ldi	r24, 0x01	; 1
    2202:	01 c0       	rjmp	.+2      	; 0x2206 <CheckPins+0xa90>
    2204:	80 e0       	ldi	r24, 0x00	; 0
    2206:	40 91 3f 01 	lds	r20, 0x013F	; 0x80013f <ntrans>
  #endif
            update_pins = 1;
    220a:	50 91 40 01 	lds	r21, 0x0140	; 0x800140 <ntrans+0x1>
 #endif
#ifdef COMMON_COLLECTOR
          //compare current amplification factor for common Collector (Emitter follower)
          // hFE = (Emitterstrom - Basisstrom) / Basisstrom
 #ifdef COMMON_EMITTER
          if (c_hfe >  ntrans.hfe)
    220e:	60 91 41 01 	lds	r22, 0x0141	; 0x800141 <ntrans+0x2>
    2212:	70 91 42 01 	lds	r23, 0x0142	; 0x800142 <ntrans+0x3>
    2216:	48 15       	cp	r20, r8
    2218:	59 05       	cpc	r21, r9
    221a:	6a 05       	cpc	r22, r10
    221c:	7b 05       	cpc	r23, r11
    221e:	28 f5       	brcc	.+74     	; 0x226a <CheckPins+0xaf4>
    2220:	80 92 3f 01 	sts	0x013F, r8	; 0x80013f <ntrans>
    2224:	90 92 40 01 	sts	0x0140, r9	; 0x800140 <ntrans+0x1>
 #else
          if ((ntrans.count == 0) || (c_hfe >  ntrans.hfe))
 #endif
          {
            ntrans.hfe = c_hfe;
    2228:	a0 92 41 01 	sts	0x0141, r10	; 0x800141 <ntrans+0x2>
    222c:	b0 92 42 01 	sts	0x0142, r11	; 0x800142 <ntrans+0x3>
    2230:	b6 01       	movw	r22, r12
    2232:	8f 81       	ldd	r24, Y+7	; 0x07
    2234:	98 85       	ldd	r25, Y+8	; 0x08
    2236:	0e 94 e8 05 	call	0xbd0	; 0xbd0 <unsigned_diff>
            ntrans.uBE = unsigned_diff(adc.tp1, adc.lp1);
    223a:	90 93 44 01 	sts	0x0144, r25	; 0x800144 <ntrans+0x5>
    223e:	80 93 43 01 	sts	0x0143, r24	; 0x800143 <ntrans+0x4>
    2242:	96 01       	movw	r18, r12
    2244:	a0 e1       	ldi	r26, 0x10	; 16
    2246:	b7 e2       	ldi	r27, 0x27	; 39
    2248:	0e 94 1e 33 	call	0x663c	; 0x663c <__umulhisi3>
 #if FLASHEND > 0x1fff  /* at least ATmega16 */
            ntrans.current = (unsigned int)(((unsigned long)adc.lp1 * 10000) / RR680MI); // Ie 1uA
            ntrans.current += 10000;	// mark current at emitter!
    224c:	20 91 14 01 	lds	r18, 0x0114	; 0x800114 <resis680mi>
    2250:	30 91 15 01 	lds	r19, 0x0115	; 0x800115 <resis680mi+0x1>
    2254:	40 e0       	ldi	r20, 0x00	; 0
    2256:	50 e0       	ldi	r21, 0x00	; 0
    2258:	0e 94 e0 32 	call	0x65c0	; 0x65c0 <__udivmodsi4>
    225c:	20 5f       	subi	r18, 0xF0	; 240
    225e:	38 4d       	sbci	r19, 0xD8	; 216
    2260:	30 93 46 01 	sts	0x0146, r19	; 0x800146 <ntrans+0x7>
    2264:	20 93 45 01 	sts	0x0145, r18	; 0x800145 <ntrans+0x6>
    2268:	03 c0       	rjmp	.+6      	; 0x2270 <CheckPins+0xafa>
    226a:	88 23       	and	r24, r24
    226c:	09 f4       	brne	.+2      	; 0x2270 <CheckPins+0xafa>
    226e:	8f c1       	rjmp	.+798    	; 0x258e <CheckPins+0xe18>
    2270:	93 01       	movw	r18, r6
#endif
#if DebugOut == 5
         lcd_data('B');
#endif
#ifdef SHOW_ICE
         if (update_pins != 0) {
    2272:	a0 e1       	ldi	r26, 0x10	; 16
    2274:	b7 e2       	ldi	r27, 0x27	; 39
    2276:	0e 94 1e 33 	call	0x663c	; 0x663c <__umulhisi3>
	    // update residual collector (emitter) current without base current
            ntrans.ice0 = (unsigned int)(((unsigned long)adc.lp_otr * 10000) / RR680MI); // ICE0 0.01mA
    227a:	20 91 14 01 	lds	r18, 0x0114	; 0x800114 <resis680mi>
    227e:	30 91 15 01 	lds	r19, 0x0115	; 0x800115 <resis680mi+0x1>
    2282:	40 e0       	ldi	r20, 0x00	; 0
    2284:	50 e0       	ldi	r21, 0x00	; 0
    2286:	0e 94 e0 32 	call	0x65c0	; 0x65c0 <__udivmodsi4>
    228a:	30 93 48 01 	sts	0x0148, r19	; 0x800148 <ntrans+0x9>
    228e:	20 93 47 01 	sts	0x0147, r18	; 0x800147 <ntrans+0x8>
    2292:	2d 85       	ldd	r18, Y+13	; 0x0d
    2294:	3e 85       	ldd	r19, Y+14	; 0x0e
    2296:	a0 e1       	ldi	r26, 0x10	; 16
    2298:	b7 e2       	ldi	r27, 0x27	; 39
            ntrans.ices = (unsigned int)(((unsigned long)adc.vCEs * 10000) / RR680PL); // ICEs 0.01mA
    229a:	0e 94 1e 33 	call	0x663c	; 0x663c <__umulhisi3>
    229e:	20 91 1b 01 	lds	r18, 0x011B	; 0x80011b <resis680pl>
    22a2:	30 91 1c 01 	lds	r19, 0x011C	; 0x80011c <resis680pl+0x1>
    22a6:	40 e0       	ldi	r20, 0x00	; 0
    22a8:	50 e0       	ldi	r21, 0x00	; 0
    22aa:	0e 94 e0 32 	call	0x65c0	; 0x65c0 <__udivmodsi4>
    22ae:	30 93 4a 01 	sts	0x014A, r19	; 0x80014a <ntrans+0xb>
    22b2:	20 93 49 01 	sts	0x0149, r18	; 0x800149 <ntrans+0xa>
    22b6:	6a c1       	rjmp	.+724    	; 0x258c <CheckPins+0xe16>
    22b8:	f1 e6       	ldi	r31, 0x61	; 97
    22ba:	6f 16       	cp	r6, r31
    22bc:	71 04       	cpc	r7, r1
    22be:	08 f0       	brcs	.+2      	; 0x22c2 <CheckPins+0xb4c>
         }
#endif
         goto saveNresult;		// count the found N-Type and exit
      } 
      // Base has low current
      if((adc.lp_otr < 97) && (adc.rhp > 3400)) {
    22c0:	6b c0       	rjmp	.+214    	; 0x2398 <CheckPins+0xc22>
    22c2:	28 89       	ldd	r18, Y+16	; 0x10
    22c4:	39 89       	ldd	r19, Y+17	; 0x11
    22c6:	29 34       	cpi	r18, 0x49	; 73
    22c8:	3d 40       	sbci	r19, 0x0D	; 13
    22ca:	08 f4       	brcc	.+2      	; 0x22ce <CheckPins+0xb58>
    22cc:	65 c0       	rjmp	.+202    	; 0x2398 <CheckPins+0xc22>
    22ce:	85 e0       	ldi	r24, 0x05	; 5
    22d0:	80 93 1a 01 	sts	0x011A, r24	; 0x80011a <PartFound>
    22d4:	82 e0       	ldi	r24, 0x02	; 2
         //if flow voltage in switched off mode low enough?
         //(since D-Mode-FET will be detected in error as E-Mode )
         PartFound = PART_FET;	//N-Kanal-MOSFET is found (Basis/Gate will Not be pulled down)
    22d6:	80 93 19 01 	sts	0x0119, r24	; 0x800119 <PartMode>
    22da:	c7 01       	movw	r24, r14
         PartMode = PART_MODE_MOS|N_CHANNEL|E_MODE;
    22dc:	86 50       	subi	r24, 0x06	; 6
    22de:	9f 4f       	sbci	r25, 0xFF	; 255
    22e0:	80 17       	cp	r24, r16
         if (adc.hp2 > (250+adc.lp2)) {
    22e2:	91 07       	cpc	r25, r17
    22e4:	20 f4       	brcc	.+8      	; 0x22ee <CheckPins+0xb78>
    22e6:	83 e0       	ldi	r24, 0x03	; 3
    22e8:	80 93 19 01 	sts	0x0119, r24	; 0x800119 <PartMode>
    22ec:	17 c0       	rjmp	.+46     	; 0x231c <CheckPins+0xba6>
            // Drain-Source Voltage is too high for N_E_MOS
            PartMode = PART_MODE_IGBT|N_CHANNEL|E_MODE;
    22ee:	c0 90 1b 01 	lds	r12, 0x011B	; 0x80011b <resis680pl>
    22f2:	d0 90 1c 01 	lds	r13, 0x011C	; 0x80011c <resis680pl+0x1>
#ifdef SHOW_R_DS
         } else {
            ntrans.uBE = RR680PL * (unsigned long)unsigned_diff(adc.hp2, adc.lp2) / adc.rhp; // DS resistance in 0.1 OHm
    22f6:	b7 01       	movw	r22, r14
    22f8:	c8 01       	movw	r24, r16
    22fa:	0e 94 e8 05 	call	0xbd0	; 0xbd0 <unsigned_diff>
    22fe:	96 01       	movw	r18, r12
    2300:	dc 01       	movw	r26, r24
    2302:	0e 94 1e 33 	call	0x663c	; 0x663c <__umulhisi3>
    2306:	e8 89       	ldd	r30, Y+16	; 0x10
    2308:	f9 89       	ldd	r31, Y+17	; 0x11
    230a:	9f 01       	movw	r18, r30
    230c:	40 e0       	ldi	r20, 0x00	; 0
    230e:	50 e0       	ldi	r21, 0x00	; 0
    2310:	0e 94 e0 32 	call	0x65c0	; 0x65c0 <__udivmodsi4>
    2314:	30 93 44 01 	sts	0x0144, r19	; 0x800144 <ntrans+0x5>
    2318:	20 93 43 01 	sts	0x0143, r18	; 0x800143 <ntrans+0x4>
    231c:	0b 81       	ldd	r16, Y+3	; 0x03
    231e:	07 70       	andi	r16, 0x07	; 7
    2320:	83 2d       	mov	r24, r3
    2322:	80 64       	ori	r24, 0x40	; 64
    2324:	80 93 7c 00 	sts	0x007C, r24	; 0x80007c <__TEXT_REGION_LENGTH__+0x7e007c>
         //Switching of Drain is monitored with digital input
         // Low level is specified up to 0.3 * VCC
         // High level is specified above 0.6 * VCC
         PinMSK = HiADCm & 7;
         // measure Threshold voltage of Gate
         ADMUX = TristatePin | (1<<REFS0);	// measure TristatePin, Ref. VCC
    2328:	1b e0       	ldi	r17, 0x0B	; 11
    232a:	21 e0       	ldi	r18, 0x01	; 1
    232c:	30 e0       	ldi	r19, 0x00	; 0
    232e:	3e 83       	std	Y+6, r19	; 0x06
         tmp16 = 1;			// round up ((1*4)/9)
    2330:	2d 83       	std	Y+5, r18	; 0x05
    2332:	a8 95       	wdr
    2334:	60 e0       	ldi	r22, 0x00	; 0
    2336:	89 81       	ldd	r24, Y+1	; 0x01
         for(ii=0;ii<11;ii++) {
            wdt_reset();
    2338:	4f d3       	rcall	.+1694   	; 0x29d8 <ChargePin10ms>
            ChargePin10ms(TriPinRL,0);	// discharge Gate 10ms with RL 
    233a:	3b 85       	ldd	r19, Y+11	; 0x0b
    233c:	34 b9       	out	0x04, r19	; 4
    233e:	35 b9       	out	0x05, r19	; 5
    2340:	86 b1       	in	r24, 0x06	; 6
            R_DDR = HiPinRL | TriPinRH;	// slowly charge Gate 
    2342:	80 23       	and	r24, r16
    2344:	e9 f7       	brne	.-6      	; 0x2340 <CheckPins+0xbca>
            R_PORT = HiPinRL | TriPinRH;
    2346:	24 b8       	out	0x04, r2	; 4
            while ((ADC_PIN&PinMSK));	// Wait, until the MOSFET switch and Drain moved to low 
    2348:	80 91 7a 00 	lds	r24, 0x007A	; 0x80007a <__TEXT_REGION_LENGTH__+0x7e007a>
    234c:	80 64       	ori	r24, 0x40	; 64
             		// 0 is detected with input voltage of 2.12V to 2.24V (tested with mega168 & mega328)
            R_DDR = HiPinRL;		// switch off current
    234e:	80 93 7a 00 	sts	0x007A, r24	; 0x80007a <__TEXT_REGION_LENGTH__+0x7e007a>
            ADCSRA |= (1<<ADSC);		// start ADC conversion
    2352:	80 91 7a 00 	lds	r24, 0x007A	; 0x80007a <__TEXT_REGION_LENGTH__+0x7e007a>
    2356:	86 fd       	sbrc	r24, 6
    2358:	fc cf       	rjmp	.-8      	; 0x2352 <CheckPins+0xbdc>
            while (ADCSRA&(1<<ADSC));	// wait until ADC finished
    235a:	80 91 78 00 	lds	r24, 0x0078	; 0x800078 <__TEXT_REGION_LENGTH__+0x7e0078>
    235e:	90 91 79 00 	lds	r25, 0x0079	; 0x800079 <__TEXT_REGION_LENGTH__+0x7e0079>
            tmp16 += ADCW;		// add result of ADC
    2362:	4d 81       	ldd	r20, Y+5	; 0x05
    2364:	5e 81       	ldd	r21, Y+6	; 0x06
    2366:	48 0f       	add	r20, r24
    2368:	59 1f       	adc	r21, r25
    236a:	5e 83       	std	Y+6, r21	; 0x06
    236c:	4d 83       	std	Y+5, r20	; 0x05
    236e:	11 50       	subi	r17, 0x01	; 1
    2370:	01 f7       	brne	.-64     	; 0x2332 <CheckPins+0xbbc>
    2372:	ca 01       	movw	r24, r20
    2374:	88 0f       	add	r24, r24
    2376:	99 1f       	adc	r25, r25
         // High level is specified above 0.6 * VCC
         PinMSK = HiADCm & 7;
         // measure Threshold voltage of Gate
         ADMUX = TristatePin | (1<<REFS0);	// measure TristatePin, Ref. VCC
         tmp16 = 1;			// round up ((1*4)/9)
         for(ii=0;ii<11;ii++) {
    2378:	88 0f       	add	r24, r24
            ADCSRA |= (1<<ADSC);		// start ADC conversion
            while (ADCSRA&(1<<ADSC));	// wait until ADC finished
            tmp16 += ADCW;		// add result of ADC
         }
         tmp16 *= 4;	//is equal to 44 * ADCW
         ntrans.gthvoltage = tmp16/ 9;	//scale to mV
    237a:	99 1f       	adc	r25, r25
    237c:	69 e0       	ldi	r22, 0x09	; 9
    237e:	70 e0       	ldi	r23, 0x00	; 0
    2380:	0e 94 b9 32 	call	0x6572	; 0x6572 <__udivmodhi4>
    2384:	70 93 4a 01 	sts	0x014A, r23	; 0x80014a <ntrans+0xb>
    2388:	60 93 49 01 	sts	0x0149, r22	; 0x800149 <ntrans+0xa>
    238c:	80 91 4e 01 	lds	r24, 0x014E	; 0x80014e <ntrans+0xf>
    2390:	8f 5f       	subi	r24, 0xFF	; 255
    2392:	80 93 4e 01 	sts	0x014E, r24	; 0x80014e <ntrans+0xf>
         ntrans.count++;		// count FET as two to accelerate  searching
    2396:	fa c0       	rjmp	.+500    	; 0x258c <CheckPins+0xe16>
    2398:	88 e0       	ldi	r24, 0x08	; 8
    239a:	87 b9       	out	0x07, r24	; 7
    239c:	88 b9       	out	0x08, r24	; 8
    239e:	14 b8       	out	0x04, r1	; 4
         goto saveNresult;
      }
   } // end component conduct => npn
   ADC_DDR = TXD_MSK;		// switch all ADC-Ports to input
    23a0:	15 b8       	out	0x05, r1	; 5
    23a2:	88 e0       	ldi	r24, 0x08	; 8
   ADC_PORT = TXD_VAL;		// switch all ADC-Ports to 0 (no Pull up)
    23a4:	87 b9       	out	0x07, r24	; 7

//##########################################################################################
// Search for diodes
//##########################################################################################
checkDiode:
  R_DDR = 0;			//switch off resistor current
    23a6:	57 ec       	ldi	r21, 0xC7	; 199
  R_PORT = 0;
    23a8:	65 16       	cp	r6, r21
  ADC_DDR = TXD_MSK;		// switch ADC ports to input
    23aa:	51 e0       	ldi	r21, 0x01	; 1
    23ac:	75 06       	cpc	r7, r21
//  if (adc.lp_otr < 977) 
  if (adc.lp_otr < 455) {
    23ae:	08 f4       	brcc	.+2      	; 0x23b2 <CheckPins+0xc3c>
    23b0:	d0 c0       	rjmp	.+416    	; 0x2552 <CheckPins+0xddc>
    23b2:	88 b9       	out	0x08, r24	; 8
    23b4:	8f 85       	ldd	r24, Y+15	; 0x0f
    23b6:	84 b9       	out	0x04, r24	; 4
    23b8:	98 ec       	ldi	r25, 0xC8	; 200
#endif
     goto widmes;
  }
  // component has current
  //Test if Diode
  ADC_PORT = TXD_VAL;
    23ba:	9d 83       	std	Y+5, r25	; 0x05
  R_DDR = HiPinRH;              // enable resistor from HiPin to ground during the upcoming discharge, so if there's some leakage in the circuit (e.g., via protection diodes) this can't upset the discharge test
    23bc:	ec 81       	ldd	r30, Y+4	; 0x04
    23be:	fa 81       	ldd	r31, Y+2	; 0x02
    23c0:	ef 2b       	or	r30, r31
    23c2:	ef 83       	std	Y+7, r30	; 0x07
  for (ii=0;ii<200;ii++) {
     ADC_DDR = LoADCm | HiADCm; // discharge by short of Low and High side
    23c4:	2f 81       	ldd	r18, Y+7	; 0x07
    23c6:	27 b9       	out	0x07, r18	; 7
    23c8:	81 e0       	ldi	r24, 0x01	; 1
    23ca:	0e 94 47 05 	call	0xa8e	; 0xa8e <sleep_5ms>
     wait_about5ms();		// Low and Highpin to GND for discharge
    23ce:	3a 81       	ldd	r19, Y+2	; 0x02
    23d0:	37 b9       	out	0x07, r19	; 7
    23d2:	85 2d       	mov	r24, r5
     ADC_DDR = LoADCm;		// switch only Low-Pin fix to GND
    23d4:	0e 94 7f 05 	call	0xafe	; 0xafe <ReadADC>
     adc.hp1 = ReadADC(HighPin); // read voltage at High-Pin
    23d8:	42 97       	sbiw	r24, 0x12	; 18
    23da:	28 f0       	brcs	.+10     	; 0x23e6 <CheckPins+0xc70>
    23dc:	4d 81       	ldd	r20, Y+5	; 0x05
     if (adc.hp1 < (150/8)) break;
    23de:	41 50       	subi	r20, 0x01	; 1
    23e0:	4d 83       	std	Y+5, r20	; 0x05
    23e2:	41 11       	cpse	r20, r1
    23e4:	ef cf       	rjmp	.-34     	; 0x23c4 <CheckPins+0xc4e>
  }
  // component has current
  //Test if Diode
  ADC_PORT = TXD_VAL;
  R_DDR = HiPinRH;              // enable resistor from HiPin to ground during the upcoming discharge, so if there's some leakage in the circuit (e.g., via protection diodes) this can't upset the discharge test
  for (ii=0;ii<200;ii++) {
    23e6:	5f 85       	ldd	r21, Y+15	; 0x0f
    23e8:	54 b9       	out	0x04, r21	; 4
 #if FLASHEND > 0x1fff
  /* It is difficult to detect the protection diode of D-mode MOSFET . */
  /* We have to generate a negative gate voltage to isolate the diode. */
  /* For P-mode the resistors must reside on the VCC side. */
  /* For N-mode the resistors must be moved to the GND side. */
  R_DDR = HiPinRH;		//switch R_H port for High-Pin output (VCC)
    23ea:	55 b9       	out	0x05, r21	; 5
    23ec:	61 e0       	ldi	r22, 0x01	; 1
  R_PORT = HiPinRH;
    23ee:	89 81       	ldd	r24, Y+1	; 0x01
  ChargePin10ms(TriPinRL,1);	//discharge of P-Kanal-MOSFET gate
    23f0:	f3 d2       	rcall	.+1510   	; 0x29d8 <ChargePin10ms>
    23f2:	85 2d       	mov	r24, r5
    23f4:	0e 94 7b 05 	call	0xaf6	; 0xaf6 <W5msReadADC>
  adc.hp2 = W5msReadADC(HighPin); 		// GND--|<--HP--R_H--VCC
    23f8:	6c 01       	movw	r12, r24
    23fa:	8b 89       	ldd	r24, Y+19	; 0x13
    23fc:	84 b9       	out	0x04, r24	; 4
    23fe:	15 b8       	out	0x05, r1	; 5
  // now the resistor is moved to the Low side
  R_DDR = LoPinRH;
    2400:	9c 81       	ldd	r25, Y+4	; 0x04
    2402:	97 b9       	out	0x07, r25	; 7
  R_PORT = 0;
    2404:	eb 81       	ldd	r30, Y+3	; 0x03
  ADC_DDR = HiADCm;		// switch High-Pin fix to VCC
    2406:	e8 b9       	out	0x08, r30	; 8
    2408:	60 e0       	ldi	r22, 0x00	; 0
  ADC_PORT = HiADCp;
    240a:	89 81       	ldd	r24, Y+1	; 0x01
    240c:	e5 d2       	rcall	.+1482   	; 0x29d8 <ChargePin10ms>
  ChargePin10ms(TriPinRL,0);	//discharge for N-Kanal-MOSFET gate
    240e:	84 2d       	mov	r24, r4
    2410:	0e 94 7b 05 	call	0xaf6	; 0xaf6 <W5msReadADC>
    2414:	0e 94 e3 05 	call	0xbc6	; 0xbc6 <vcc_diff>
  adc.hp3 = vcc_diff(W5msReadADC(LowPin)); // GND--R_H--LP--|<--VCC
    2418:	9e 83       	std	Y+6, r25	; 0x06
    241a:	8d 83       	std	Y+5, r24	; 0x05
    241c:	fc 85       	ldd	r31, Y+12	; 0x0c
    241e:	f4 b9       	out	0x04, r31	; 4
    2420:	84 2d       	mov	r24, r4
    2422:	0e 94 7f 05 	call	0xafe	; 0xafe <ReadADC>
  /* check with higher current (R_L=680) */
  R_DDR = LoPinRL;
    2426:	8c 01       	movw	r16, r24
  adc.hp1 = unsigned_diff(W5msReadADC(HighPin), ReadADC(LowPin)); // GND--R_L--LP--|<--VCC
    2428:	85 2d       	mov	r24, r5
    242a:	0e 94 7b 05 	call	0xaf6	; 0xaf6 <W5msReadADC>
    242e:	b8 01       	movw	r22, r16
    2430:	0e 94 e8 05 	call	0xbd0	; 0xbd0 <unsigned_diff>
    2434:	7c 01       	movw	r14, r24
    2436:	84 2d       	mov	r24, r4
    2438:	0e 94 7f 05 	call	0xafe	; 0xafe <ReadADC>
  // test for capacitor behaviour
  adc.lp_otr = unsigned_diff(W5msReadADC(HighPin), ReadADC(LowPin)); // GND--R_L--LP--|<--VCC
    243c:	8c 01       	movw	r16, r24
    243e:	85 2d       	mov	r24, r5
    2440:	0e 94 7b 05 	call	0xaf6	; 0xaf6 <W5msReadADC>
    2444:	b8 01       	movw	r22, r16
    2446:	0e 94 e8 05 	call	0xbd0	; 0xbd0 <unsigned_diff>
    244a:	97 01       	movw	r18, r14
    244c:	28 53       	subi	r18, 0x38	; 56
    244e:	3f 4f       	sbci	r19, 0xFF	; 255
     lcd_data('c');	// debug
     mVOut(adc.hp1);
     mVOut(adc.lp_otr);
#endif
 // if (adc.lp_otr > (adc.hp1+adc.hp1/8))
  if (adc.lp_otr > (adc.hp1+200))
    2450:	28 17       	cp	r18, r24
    2452:	39 07       	cpc	r19, r25
    2454:	08 f4       	brcc	.+2      	; 0x2458 <CheckPins+0xce2>
    2456:	80 c0       	rjmp	.+256    	; 0x2558 <CheckPins+0xde2>
    2458:	88 e0       	ldi	r24, 0x08	; 8
    245a:	88 b9       	out	0x08, r24	; 8
    245c:	2a 81       	ldd	r18, Y+2	; 0x02
     lcd_data('D');	// debug
#endif
     goto clean_ports;
  }
  //  the resistor is moved back to the High side
  ADC_PORT = TXD_VAL;
    245e:	27 b9       	out	0x07, r18	; 7
    2460:	24 b8       	out	0x04, r2	; 4
  ADC_DDR = LoADCm;		// switch only Low-Pin fix to GND
    2462:	25 b8       	out	0x05, r2	; 5
    2464:	61 e0       	ldi	r22, 0x01	; 1
  R_DDR = HiPinRL;		//switch R_L port for High-Pin output (VCC)
    2466:	89 81       	ldd	r24, Y+1	; 0x01
  R_PORT = HiPinRL;
    2468:	b7 d2       	rcall	.+1390   	; 0x29d8 <ChargePin10ms>
  ChargePin10ms(TriPinRL,1);	//discharge for P-Kanal-MOSFET gate
    246a:	84 2d       	mov	r24, r4
    246c:	0e 94 7f 05 	call	0xafe	; 0xafe <ReadADC>
    2470:	8c 01       	movw	r16, r24
  adc.lp_otr = unsigned_diff(W5msReadADC(HighPin), ReadADC(LowPin)); // GND--|<--HP--R_L--VCC
    2472:	85 2d       	mov	r24, r5
    2474:	0e 94 7b 05 	call	0xaf6	; 0xaf6 <W5msReadADC>
    2478:	b8 01       	movw	r22, r16
    247a:	0e 94 e8 05 	call	0xbd0	; 0xbd0 <unsigned_diff>
    247e:	8c 01       	movw	r16, r24
    2480:	e8 16       	cp	r14, r24
    2482:	f9 06       	cpc	r15, r25
    2484:	58 f4       	brcc	.+22     	; 0x249c <CheckPins+0xd26>
  if(adc.lp_otr > adc.hp1) {
    2486:	3f 85       	ldd	r19, Y+15	; 0x0f
    2488:	34 b9       	out	0x04, r19	; 4
    248a:	35 b9       	out	0x05, r19	; 5
      adc.hp1 = adc.lp_otr;	//the higher value wins
      adc.hp3 = adc.hp2;
      R_DDR = HiPinRH;		//switch R_H port for High-Pin output (VCC)
    248c:	85 2d       	mov	r24, r5
    248e:	0e 94 7b 05 	call	0xaf6	; 0xaf6 <W5msReadADC>
      R_PORT = HiPinRH;
      adc.hp2 = W5msReadADC(HighPin); 		// GND--|<--HP--R_H--VCC
    2492:	9c 01       	movw	r18, r24
    2494:	cd 82       	std	Y+5, r12	; 0x05
    2496:	de 82       	std	Y+6, r13	; 0x06
    2498:	78 01       	movw	r14, r16
  R_PORT = HiPinRL;
  ChargePin10ms(TriPinRL,1);	//discharge for P-Kanal-MOSFET gate
  adc.lp_otr = unsigned_diff(W5msReadADC(HighPin), ReadADC(LowPin)); // GND--|<--HP--R_L--VCC
  if(adc.lp_otr > adc.hp1) {
      adc.hp1 = adc.lp_otr;	//the higher value wins
      adc.hp3 = adc.hp2;
    249a:	10 c0       	rjmp	.+32     	; 0x24bc <CheckPins+0xd46>
    249c:	4b 89       	ldd	r20, Y+19	; 0x13
    249e:	44 b9       	out	0x04, r20	; 4
    24a0:	15 b8       	out	0x05, r1	; 5
      R_DDR = HiPinRH;		//switch R_H port for High-Pin output (VCC)
      R_PORT = HiPinRH;
      adc.hp2 = W5msReadADC(HighPin); 		// GND--|<--HP--R_H--VCC
  } else {
      R_DDR = LoPinRH;
    24a2:	5c 81       	ldd	r21, Y+4	; 0x04
    24a4:	57 b9       	out	0x07, r21	; 7
      R_PORT = 0;
    24a6:	8b 81       	ldd	r24, Y+3	; 0x03
      ADC_DDR = HiADCm;		// switch High-Pin fix to VCC
    24a8:	88 b9       	out	0x08, r24	; 8
    24aa:	60 e0       	ldi	r22, 0x00	; 0
      ADC_PORT = HiADCp;
    24ac:	89 81       	ldd	r24, Y+1	; 0x01
    24ae:	94 d2       	rcall	.+1320   	; 0x29d8 <ChargePin10ms>
      ChargePin10ms(TriPinRL,0);	//discharge for N-Kanal-MOSFET gate
    24b0:	84 2d       	mov	r24, r4
    24b2:	0e 94 7b 05 	call	0xaf6	; 0xaf6 <W5msReadADC>
    24b6:	0e 94 e3 05 	call	0xbc6	; 0xbc6 <vcc_diff>
      adc.hp2 = vcc_diff(W5msReadADC(LowPin)); // GND--R_H--LP--|<--VCC
    24ba:	9c 01       	movw	r18, r24
    24bc:	98 ee       	ldi	r25, 0xE8	; 232
    24be:	e9 16       	cp	r14, r25
    24c0:	93 e0       	ldi	r25, 0x03	; 3
    24c2:	f9 06       	cpc	r15, r25
  lcd_data('H');	// debug
  mVOut(adc.hp2);
#endif
  volt_dif = adc.hp3/8;
  if (volt_dif > 200) volt_dif = 200;
  if (adc.hp1 < 1000) tmp16 = adc.hp1/100;
    24c4:	30 f4       	brcc	.+12     	; 0x24d2 <CheckPins+0xd5c>
    24c6:	c7 01       	movw	r24, r14
    24c8:	64 e6       	ldi	r22, 0x64	; 100
    24ca:	70 e0       	ldi	r23, 0x00	; 0
    24cc:	0e 94 b9 32 	call	0x6572	; 0x6572 <__udivmodhi4>
    24d0:	06 c0       	rjmp	.+12     	; 0x24de <CheckPins+0xd68>
    24d2:	b7 01       	movw	r22, r14
    24d4:	54 e0       	ldi	r21, 0x04	; 4
    24d6:	76 95       	lsr	r23
    24d8:	67 95       	ror	r22
  else                tmp16 = adc.hp1/16;
    24da:	5a 95       	dec	r21
    24dc:	e1 f7       	brne	.-8      	; 0x24d6 <CheckPins+0xd60>
    24de:	c7 01       	movw	r24, r14
    24e0:	87 59       	subi	r24, 0x97	; 151
    24e2:	91 09       	sbc	r25, r1
    24e4:	89 38       	cpi	r24, 0x89	; 137

  if((adc.hp1 > 150) && (adc.hp1 < 4640) && (adc.hp2 < adc.hp1) && (adc.hp1 > (adc.hp3+volt_dif)) && (adc.hp3 > tmp16))
    24e6:	91 41       	sbci	r25, 0x11	; 17
    24e8:	a0 f5       	brcc	.+104    	; 0x2552 <CheckPins+0xddc>
    24ea:	2e 15       	cp	r18, r14
    24ec:	3f 05       	cpc	r19, r15
    24ee:	88 f5       	brcc	.+98     	; 0x2552 <CheckPins+0xddc>
    24f0:	8d 81       	ldd	r24, Y+5	; 0x05
    24f2:	9e 81       	ldd	r25, Y+6	; 0x06
    24f4:	43 e0       	ldi	r20, 0x03	; 3
    24f6:	96 95       	lsr	r25
  lcd_data('L');	// debug
  mVOut(adc.hp1);
  lcd_data('H');	// debug
  mVOut(adc.hp2);
#endif
  volt_dif = adc.hp3/8;
    24f8:	87 95       	ror	r24
    24fa:	4a 95       	dec	r20
    24fc:	e1 f7       	brne	.-8      	; 0x24f6 <CheckPins+0xd80>
    24fe:	89 3c       	cpi	r24, 0xC9	; 201
    2500:	91 05       	cpc	r25, r1
    2502:	10 f0       	brcs	.+4      	; 0x2508 <CheckPins+0xd92>
    2504:	88 ec       	ldi	r24, 0xC8	; 200
  if (volt_dif > 200) volt_dif = 200;
  if (adc.hp1 < 1000) tmp16 = adc.hp1/100;
  else                tmp16 = adc.hp1/16;

  if((adc.hp1 > 150) && (adc.hp1 < 4640) && (adc.hp2 < adc.hp1) && (adc.hp1 > (adc.hp3+volt_dif)) && (adc.hp3 > tmp16))
    2506:	90 e0       	ldi	r25, 0x00	; 0
    2508:	2d 81       	ldd	r18, Y+5	; 0x05
    250a:	3e 81       	ldd	r19, Y+6	; 0x06
    250c:	82 0f       	add	r24, r18
    250e:	93 1f       	adc	r25, r19
    2510:	8e 15       	cp	r24, r14
    2512:	9f 05       	cpc	r25, r15
    2514:	f0 f4       	brcc	.+60     	; 0x2552 <CheckPins+0xddc>
    2516:	62 17       	cp	r22, r18
    2518:	73 07       	cpc	r23, r19
    251a:	d8 f4       	brcc	.+54     	; 0x2552 <CheckPins+0xddc>
    251c:	80 91 1a 01 	lds	r24, 0x011A	; 0x80011a <PartFound>
    2520:	83 30       	cpi	r24, 0x03	; 3
    2522:	18 f4       	brcc	.+6      	; 0x252a <CheckPins+0xdb4>
     {
     //voltage is above 0,15V and below 4,64V => Ok
     // hp2 >= hp1 is only possible with capacitor, not with a diode, hp2 is measured with 470k
     // (adc.hp3 > adc.hp1/16) was OK for most cases, but not for gate of a TRIAC (where adc.hp1/100 detect the diode)
     // for resistors the expected value is about adc.hp1/670, so adc.hp1/100 should also be OK to differ with resistor
     if(PartFound < PART_DIODE) {
    2524:	83 e0       	ldi	r24, 0x03	; 3
    2526:	80 93 1a 01 	sts	0x011A, r24	; 0x80011a <PartFound>
        PartFound = PART_DIODE;	//mark for diode only, if no other component is found
    252a:	20 91 18 01 	lds	r18, 0x0118	; 0x800118 <NumOfDiodes>
    252e:	82 2f       	mov	r24, r18
        lcd_data('D');	// debug  for Diode found
     } else {
        lcd_data('d');  // debug  for Diode, but other part
#endif
     }
     diodes.Anode[NumOfDiodes] = HighPin;
    2530:	90 e0       	ldi	r25, 0x00	; 0
    2532:	fc 01       	movw	r30, r24
    2534:	e7 57       	subi	r30, 0x77	; 119
    2536:	fe 4f       	sbci	r31, 0xFE	; 254
    2538:	50 82       	st	Z, r5
    253a:	46 82       	std	Z+6, r4	; 0x06
    253c:	88 0f       	add	r24, r24
    253e:	99 1f       	adc	r25, r25
     diodes.Cathode[NumOfDiodes] = LowPin;
    2540:	fc 01       	movw	r30, r24
     diodes.Voltage[NumOfDiodes] = adc.hp1;	// voltage in Millivolt 
    2542:	eb 56       	subi	r30, 0x6B	; 107
    2544:	fe 4f       	sbci	r31, 0xFE	; 254
    2546:	f1 82       	std	Z+1, r15	; 0x01
    2548:	e0 82       	st	Z, r14
    254a:	2f 5f       	subi	r18, 0xFF	; 255
    254c:	20 93 18 01 	sts	0x0118, r18	; 0x800118 <NumOfDiodes>
     NumOfDiodes++;
    2550:	03 c0       	rjmp	.+6      	; 0x2558 <CheckPins+0xde2>
    2552:	64 2d       	mov	r22, r4
    2554:	85 2d       	mov	r24, r5
#if DebugOut == 5
     lcd_data(NumOfDiodes+'0');	// debug number of Diodes found
#endif
     goto clean_ports;
    2556:	29 d0       	rcall	.+82     	; 0x25aa <GetResistance>

//##########################################################################################
// Search for resistors
//##########################################################################################
widmes:
  GetResistance(HighPin, LowPin);
    2558:	88 e0       	ldi	r24, 0x08	; 8
    255a:	87 b9       	out	0x07, r24	; 7
    255c:	88 b9       	out	0x08, r24	; 8
    255e:	14 b8       	out	0x04, r1	; 4
#ifdef DebugOut
 #if DebugOut < 10
//  wait_for_key_5s_line2();
 #endif
#endif
  ADC_DDR = TXD_MSK;		// all ADC-Pins Input
    2560:	15 b8       	out	0x05, r1	; 5
    2562:	8e e2       	ldi	r24, 0x2E	; 46
  ADC_PORT = TXD_VAL;		// all ADC outputs to Ground, keine Pull up
    2564:	0e 94 d8 01 	call	0x3b0	; 0x3b0 <lcd_data>
  R_DDR = 0;			// all resistor-outputs to Input
  R_PORT = 0;			// all resistor-outputs to Ground, no Pull up
    2568:	68 96       	adiw	r28, 0x18	; 24
  lcd_data('.');		// report advance (suggested by Pieter-Tjerk)
    256a:	e2 e1       	ldi	r30, 0x12	; 18
    256c:	0c 94 e4 33 	jmp	0x67c8	; 0x67c8 <__epilogue_restores__>
    ntrans.c = HighPin;
    ntrans.e = LowPin;
 }
 goto clean_ports;

} // end CheckPins()
    2570:	90 91 68 01 	lds	r25, 0x0168	; 0x800168 <ptrans+0xf>
    2574:	9f 5f       	subi	r25, 0xFF	; 255
    2576:	90 93 68 01 	sts	0x0168, r25	; 0x800168 <ptrans+0xf>
//---------------------------------------------------------------------------
savePresult:
#if DebugOut == 5
 lcd_data('P');
#endif
 ptrans.count++;
    257a:	88 23       	and	r24, r24
    257c:	69 f3       	breq	.-38     	; 0x2558 <CheckPins+0xde2>
    257e:	30 92 65 01 	sts	0x0165, r3	; 0x800165 <ptrans+0xc>
 if (update_pins != 0) {
    2582:	40 92 66 01 	sts	0x0166, r4	; 0x800166 <ptrans+0xd>
    ptrans.b = TristatePin;	// save Pin-constellation
    2586:	50 92 67 01 	sts	0x0167, r5	; 0x800167 <ptrans+0xe>
    ptrans.c = LowPin;
    258a:	e6 cf       	rjmp	.-52     	; 0x2558 <CheckPins+0xde2>
    258c:	81 e0       	ldi	r24, 0x01	; 1
    ptrans.e = HighPin;
    258e:	90 91 4e 01 	lds	r25, 0x014E	; 0x80014e <ntrans+0xf>
    2592:	9f 5f       	subi	r25, 0xFF	; 255
//  }

#if DebugOut == 5
  lcd_clear_line2();
#endif
  update_pins = 1;			// if a part is found, always update the pins
    2594:	90 93 4e 01 	sts	0x014E, r25	; 0x80014e <ntrans+0xf>
//---------------------------------------------------------------------------
saveNresult:
#if DebugOut == 5
 lcd_data('N');
#endif
 ntrans.count++;
    2598:	88 23       	and	r24, r24
    259a:	f1 f2       	breq	.-68     	; 0x2558 <CheckPins+0xde2>
    259c:	30 92 4b 01 	sts	0x014B, r3	; 0x80014b <ntrans+0xc>
 if (update_pins != 0) {
    25a0:	50 92 4c 01 	sts	0x014C, r5	; 0x80014c <ntrans+0xd>
    ntrans.b = TristatePin;	// save Pin-constellation
    25a4:	40 92 4d 01 	sts	0x014D, r4	; 0x80014d <ntrans+0xe>
    ntrans.c = HighPin;
    25a8:	d7 cf       	rjmp	.-82     	; 0x2558 <CheckPins+0xde2>

000025aa <GetResistance>:
#include <stdlib.h>
#include "Transistortester.h"

//******************************************************************
void GetResistance(uint8_t HighPin, uint8_t LowPin)
  {
    25aa:	a0 e0       	ldi	r26, 0x00	; 0
    25ac:	b0 e0       	ldi	r27, 0x00	; 0
    25ae:	eb ed       	ldi	r30, 0xDB	; 219
    25b0:	f2 e1       	ldi	r31, 0x12	; 18
    25b2:	0c 94 ca 33 	jmp	0x6794	; 0x6794 <__prologue_saves__+0x4>
  /*
    switch HighPin directls to VCC 
    switch R_L port for LowPin to GND 
    TristatePin remains switched to input , no action required 
  */
  wdt_reset();
    25b6:	a8 95       	wdr
  addr = &PinRLRHADCtab[LowPin-TP_MIN];		// address of the combined RL / RH / ADC pin table
    25b8:	46 2f       	mov	r20, r22
    25ba:	50 e0       	ldi	r21, 0x00	; 0
    25bc:	fa 01       	movw	r30, r20
    25be:	e4 57       	subi	r30, 0x74	; 116
    25c0:	fe 4f       	sbci	r31, 0xFE	; 254
  LoPinRL = pgm_read_byte(addr);		// instruction for LowPin R_L
    25c2:	94 90       	lpm	r9, Z
  LoPinRH = pgm_read_byte(addr);		// instruction for LowPin R_H
#else
  LoPinRH = (LoPinRL + LoPinRL);
#endif
  addr += 3;			// address of PinADCtab[LowPin]
  LoADCp = pgm_read_byte(addr);		// instruction for ADC Low-Pin, including | TXD_VAL
    25c4:	33 96       	adiw	r30, 0x03	; 3
    25c6:	94 91       	lpm	r25, Z

  addr = &PinRLRHADCtab[HighPin-TP_MIN];
    25c8:	a8 2f       	mov	r26, r24
    25ca:	b0 e0       	ldi	r27, 0x00	; 0
    25cc:	fd 01       	movw	r30, r26
    25ce:	e4 57       	subi	r30, 0x74	; 116
    25d0:	fe 4f       	sbci	r31, 0xFE	; 254
  HiPinRL = pgm_read_byte(addr);		// instruction for HighPin R_L
    25d2:	e4 90       	lpm	r14, Z
  HiPinRH = pgm_read_byte(addr);		// instruction for HighPin R_H
#else
  HiPinRH = (HiPinRL + HiPinRL);
#endif
  addr += 3;			// address of PinADCtab[HighPin]
  HiADCp = pgm_read_byte(addr);		// instruction for ADC High-Pin, including | TXD_VAL
    25d4:	33 96       	adiw	r30, 0x03	; 3
    25d6:	f4 90       	lpm	r15, Z

//##########################################################################################
// Search for resistors
//##########################################################################################
  if ((ptrans.count  + ntrans.count) > 0) {
    25d8:	70 91 68 01 	lds	r23, 0x0168	; 0x800168 <ptrans+0xf>
    25dc:	20 91 4e 01 	lds	r18, 0x014E	; 0x80014e <ntrans+0xf>
    25e0:	30 e0       	ldi	r19, 0x00	; 0
    25e2:	27 0f       	add	r18, r23
    25e4:	31 1d       	adc	r19, r1
    25e6:	23 2b       	or	r18, r19
    25e8:	09 f0       	breq	.+2      	; 0x25ec <GetResistance+0x42>
    25ea:	f1 c1       	rjmp	.+994    	; 0x29ce <GetResistance+0x424>
     return;	// no resistors are searched, if transistors are detected
  }
  resnum = (LowPin - TP_MIN + HighPin - TP_MIN - 1);	// resistor-Number 0:1 = 0, 0:2 = 1, 1:2 = 2
  // resistor measurement
  wdt_reset();
    25ec:	a8 95       	wdr
// U_SCALE can be set to 4 for better resolution of ReadADC result
#if U_SCALE != 1
  ADCconfig.U_AVCC = (adc_vcc_reference * U_SCALE);	// scale to higher resolution, mV scale is not required
    25ee:	20 91 1e 01 	lds	r18, 0x011E	; 0x80011e <adc_vcc_reference>
    25f2:	30 91 1f 01 	lds	r19, 0x011F	; 0x80011f <adc_vcc_reference+0x1>
    25f6:	22 0f       	add	r18, r18
    25f8:	33 1f       	adc	r19, r19
    25fa:	22 0f       	add	r18, r18
    25fc:	33 1f       	adc	r19, r19
    25fe:	30 93 30 01 	sts	0x0130, r19	; 0x800130 <ADCconfig+0x5>
    2602:	20 93 2f 01 	sts	0x012F, r18	; 0x80012f <ADCconfig+0x4>
  ADCconfig.U_Bandgap = (adc_internal_reference * U_SCALE);
    2606:	20 91 6d 01 	lds	r18, 0x016D	; 0x80016d <adc_internal_reference>
    260a:	30 91 6e 01 	lds	r19, 0x016E	; 0x80016e <adc_internal_reference+0x1>
    260e:	22 0f       	add	r18, r18
    2610:	33 1f       	adc	r19, r19
    2612:	22 0f       	add	r18, r18
    2614:	33 1f       	adc	r19, r19
    2616:	30 93 2e 01 	sts	0x012E, r19	; 0x80012e <ADCconfig+0x3>
    261a:	20 93 2d 01 	sts	0x012D, r18	; 0x80012d <ADCconfig+0x2>
#endif
#if R_ANZ_MESS != ANZ_MESS
  ADCconfig.Samples = R_ANZ_MESS;	// switch to special number of repetitions
    261e:	2e eb       	ldi	r18, 0xBE	; 190
    2620:	20 93 2b 01 	sts	0x012B, r18	; 0x80012b <ADCconfig>
#endif
  #define MAX_REPEAT (700 / (5 + R_ANZ_MESS/8))
#if FLASHEND > 0x1fff
  for (ii=0; ii<NumOfDiodes; ii++) {
    2624:	c0 91 18 01 	lds	r28, 0x0118	; 0x800118 <NumOfDiodes>
    2628:	e9 e8       	ldi	r30, 0x89	; 137
    262a:	f1 e0       	ldi	r31, 0x01	; 1
    262c:	70 e0       	ldi	r23, 0x00	; 0
     // never search a resistor at the same place, where a diode is detected
     if ((diodes.Anode[ii] + diodes.Cathode[ii]) ==  (HighPin + LowPin)) goto testend;
    262e:	4a 0f       	add	r20, r26
    2630:	5b 1f       	adc	r21, r27
#if R_ANZ_MESS != ANZ_MESS
  ADCconfig.Samples = R_ANZ_MESS;	// switch to special number of repetitions
#endif
  #define MAX_REPEAT (700 / (5 + R_ANZ_MESS/8))
#if FLASHEND > 0x1fff
  for (ii=0; ii<NumOfDiodes; ii++) {
    2632:	7c 17       	cp	r23, r28
    2634:	59 f0       	breq	.+22     	; 0x264c <GetResistance+0xa2>
     // never search a resistor at the same place, where a diode is detected
     if ((diodes.Anode[ii] + diodes.Cathode[ii]) ==  (HighPin + LowPin)) goto testend;
    2636:	21 91       	ld	r18, Z+
    2638:	a5 81       	ldd	r26, Z+5	; 0x05
    263a:	30 e0       	ldi	r19, 0x00	; 0
    263c:	2a 0f       	add	r18, r26
    263e:	31 1d       	adc	r19, r1
    2640:	24 17       	cp	r18, r20
    2642:	35 07       	cpc	r19, r21
    2644:	09 f4       	brne	.+2      	; 0x2648 <GetResistance+0x9e>
    2646:	56 c0       	rjmp	.+172    	; 0x26f4 <GetResistance+0x14a>
#if R_ANZ_MESS != ANZ_MESS
  ADCconfig.Samples = R_ANZ_MESS;	// switch to special number of repetitions
#endif
  #define MAX_REPEAT (700 / (5 + R_ANZ_MESS/8))
#if FLASHEND > 0x1fff
  for (ii=0; ii<NumOfDiodes; ii++) {
    2648:	7f 5f       	subi	r23, 0xFF	; 255
    264a:	f3 cf       	rjmp	.-26     	; 0x2632 <GetResistance+0x88>
    264c:	d6 2f       	mov	r29, r22
    264e:	c8 2f       	mov	r28, r24
     // never search a resistor at the same place, where a diode is detected
     if ((diodes.Anode[ii] + diodes.Cathode[ii]) ==  (HighPin + LowPin)) goto testend;
  }
#endif
  ADC_PORT = TXD_VAL;
    2650:	88 e0       	ldi	r24, 0x08	; 8
    2652:	88 b9       	out	0x08, r24	; 8
  ADC_DDR = LoADCp | TXD_MSK;		//switch Low-Pin to output (GND)
    2654:	e9 2f       	mov	r30, r25
    2656:	e8 60       	ori	r30, 0x08	; 8
    2658:	e7 b9       	out	0x07, r30	; 7
  R_DDR = HiPinRL;		//switch R_L port for High-Pin to output (VCC)
    265a:	e4 b8       	out	0x04, r14	; 4
  R_PORT = HiPinRL;	
    265c:	e5 b8       	out	0x05, r14	; 5
    265e:	b8 e1       	ldi	r27, 0x18	; 24
    2660:	bb 2e       	mov	r11, r27
#if FLASHEND > 0x1fff
  adc.hp2 = 0;
    2662:	c1 2c       	mov	r12, r1
    2664:	d1 2c       	mov	r13, r1
  for (ii=1;ii<MAX_REPEAT;ii++) {
     // wait until voltage is stable
     adc.tp1 = W5msReadADC(LowPin);	// low-voltage at Rx with load
    2666:	8d 2f       	mov	r24, r29
    2668:	0e 94 7b 05 	call	0xaf6	; 0xaf6 <W5msReadADC>
    266c:	78 2e       	mov	r7, r24
    266e:	69 2e       	mov	r6, r25
     adc.hp1 = ReadADC(HighPin);		// voltage at resistor Rx with R_L
    2670:	8c 2f       	mov	r24, r28
    2672:	0e 94 7f 05 	call	0xafe	; 0xafe <ReadADC>
    2676:	8c 01       	movw	r16, r24
     udiff = adc.hp1 - adc.hp2;
     if (udiff < 0) udiff = -udiff;
     if (udiff < 3) break;
    2678:	8c 19       	sub	r24, r12
    267a:	9d 09       	sbc	r25, r13
    267c:	97 ff       	sbrs	r25, 7
    267e:	03 c0       	rjmp	.+6      	; 0x2686 <GetResistance+0xdc>
    2680:	91 95       	neg	r25
    2682:	81 95       	neg	r24
    2684:	91 09       	sbc	r25, r1
    2686:	03 97       	sbiw	r24, 0x03	; 3
    2688:	34 f0       	brlt	.+12     	; 0x2696 <GetResistance+0xec>
     adc.hp2 = adc.hp1;
     wdt_reset();
    268a:	a8 95       	wdr
    268c:	ba 94       	dec	r11
#if FLASHEND > 0x1fff
  adc.hp2 = 0;
  for (ii=1;ii<MAX_REPEAT;ii++) {
     // wait until voltage is stable
     adc.tp1 = W5msReadADC(LowPin);	// low-voltage at Rx with load
     adc.hp1 = ReadADC(HighPin);		// voltage at resistor Rx with R_L
    268e:	68 01       	movw	r12, r16
  ADC_DDR = LoADCp | TXD_MSK;		//switch Low-Pin to output (GND)
  R_DDR = HiPinRL;		//switch R_L port for High-Pin to output (VCC)
  R_PORT = HiPinRL;	
#if FLASHEND > 0x1fff
  adc.hp2 = 0;
  for (ii=1;ii<MAX_REPEAT;ii++) {
    2690:	b1 10       	cpse	r11, r1
    2692:	e9 cf       	rjmp	.-46     	; 0x2666 <GetResistance+0xbc>
    2694:	2f c0       	rjmp	.+94     	; 0x26f4 <GetResistance+0x14a>
  HiPinRL = pgm_read_byte(addr);		// instruction for HighPin R_L
#if (((PIN_RL1 + 1) != PIN_RH1) || ((PIN_RL2 + 1) != PIN_RH2) || ((PIN_RL3 + 1) != PIN_RH3))
  addr += 3;			// address of PinRLtab[HighPin]
  HiPinRH = pgm_read_byte(addr);		// instruction for HighPin R_H
#else
  HiPinRH = (HiPinRL + HiPinRL);
    2696:	ee 0c       	add	r14, r14
  adc.hp1 = ReadADC(HighPin);		// voltage at resistor Rx with R_L
#endif
  if (adc.tp1 > adc.hp1) {
     adc.tp1 = adc.hp1;
  }
  R_PORT = 0;
    2698:	15 b8       	out	0x05, r1	; 5
  R_DDR = HiPinRH;		//switch R_H port for High-Pin to output (GND)
    269a:	e4 b8       	out	0x04, r14	; 4
  adc.hp2 = W5msReadADC(HighPin);	// read voltage, should be down
    269c:	8c 2f       	mov	r24, r28
    269e:	0e 94 7b 05 	call	0xaf6	; 0xaf6 <W5msReadADC>
  if (adc.hp2 > (20*U_SCALE)) {
    26a2:	81 35       	cpi	r24, 0x51	; 81
    26a4:	91 05       	cpc	r25, r1
    26a6:	30 f5       	brcc	.+76     	; 0x26f4 <GetResistance+0x14a>
 #if (DEBUG_OUT == 1)
     lcd_data('b');
 #endif
     goto testend;
  }
  R_PORT = HiPinRH;		//switch R_H for High-Pin to VCC
    26a8:	e5 b8       	out	0x05, r14	; 5
  adc.hp2 = W5msReadADC(HighPin);	// voltage at resistor Rx with R_H
    26aa:	8c 2f       	mov	r24, r28
    26ac:	0e 94 7b 05 	call	0xaf6	; 0xaf6 <W5msReadADC>
    26b0:	6c 01       	movw	r12, r24

  ADC_DDR = HiADCp | TXD_MSK;		//switch High-Pin to output
    26b2:	8f 2d       	mov	r24, r15
    26b4:	88 60       	ori	r24, 0x08	; 8
    26b6:	87 b9       	out	0x07, r24	; 7
  ADC_PORT = HiADCp;		//switch High-Pin to VCC
    26b8:	f8 b8       	out	0x08, r15	; 8
  R_PORT = 0;
    26ba:	15 b8       	out	0x05, r1	; 5
  R_DDR = LoPinRL;			//switch R_L for Low-Pin to GND
    26bc:	94 b8       	out	0x04, r9	; 4
    26be:	a8 e1       	ldi	r26, 0x18	; 24
    26c0:	8a 2e       	mov	r8, r26
#if FLASHEND > 0x1fff
  adc.lp2 = 0;
    26c2:	a1 2c       	mov	r10, r1
    26c4:	b1 2c       	mov	r11, r1
  for (ii=1;ii<MAX_REPEAT;ii++) {
     // wait until voltage is stable
					// L--RL--RyyX--H
     adc.tp2 = W5msReadADC(HighPin);	//high voltage with load
    26c6:	8c 2f       	mov	r24, r28
    26c8:	0e 94 7b 05 	call	0xaf6	; 0xaf6 <W5msReadADC>
    26cc:	58 2e       	mov	r5, r24
    26ce:	49 2e       	mov	r4, r25
     adc.lp1 = ReadADC(LowPin);		//voltage at the other end of Rx
    26d0:	8d 2f       	mov	r24, r29
    26d2:	0e 94 7f 05 	call	0xafe	; 0xafe <ReadADC>
    26d6:	7c 01       	movw	r14, r24
     udiff = adc.lp1 - adc.lp2;
     if (udiff < 0) udiff = -udiff;
     if (udiff < 3) break;
    26d8:	8a 19       	sub	r24, r10
    26da:	9b 09       	sbc	r25, r11
    26dc:	97 ff       	sbrs	r25, 7
    26de:	03 c0       	rjmp	.+6      	; 0x26e6 <GetResistance+0x13c>
    26e0:	91 95       	neg	r25
    26e2:	81 95       	neg	r24
    26e4:	91 09       	sbc	r25, r1
    26e6:	03 97       	sbiw	r24, 0x03	; 3
    26e8:	cc f0       	brlt	.+50     	; 0x271c <GetResistance+0x172>
     adc.lp2 = adc.lp1;
     wdt_reset();
    26ea:	a8 95       	wdr
    26ec:	8a 94       	dec	r8
  adc.lp2 = 0;
  for (ii=1;ii<MAX_REPEAT;ii++) {
     // wait until voltage is stable
					// L--RL--RyyX--H
     adc.tp2 = W5msReadADC(HighPin);	//high voltage with load
     adc.lp1 = ReadADC(LowPin);		//voltage at the other end of Rx
    26ee:	57 01       	movw	r10, r14
  ADC_PORT = HiADCp;		//switch High-Pin to VCC
  R_PORT = 0;
  R_DDR = LoPinRL;			//switch R_L for Low-Pin to GND
#if FLASHEND > 0x1fff
  adc.lp2 = 0;
  for (ii=1;ii<MAX_REPEAT;ii++) {
    26f0:	81 10       	cpse	r8, r1
    26f2:	e9 cf       	rjmp	.-46     	; 0x26c6 <GetResistance+0x11c>
        } // end  ResistorChecked[] != 0
     }	/* end if (PartFound < PART_TRANSISTOR) */
  }
  testend:			// end of resistor measurement
#if U_SCALE != 1
  ADCconfig.U_AVCC = adc_vcc_reference;	// scale to higher resolution, mV scale is not required
    26f4:	80 91 1e 01 	lds	r24, 0x011E	; 0x80011e <adc_vcc_reference>
    26f8:	90 91 1f 01 	lds	r25, 0x011F	; 0x80011f <adc_vcc_reference+0x1>
    26fc:	90 93 30 01 	sts	0x0130, r25	; 0x800130 <ADCconfig+0x5>
    2700:	80 93 2f 01 	sts	0x012F, r24	; 0x80012f <ADCconfig+0x4>
  ADCconfig.U_Bandgap = adc_internal_reference;	// set back to normal resolution
    2704:	80 91 6d 01 	lds	r24, 0x016D	; 0x80016d <adc_internal_reference>
    2708:	90 91 6e 01 	lds	r25, 0x016E	; 0x80016e <adc_internal_reference+0x1>
    270c:	90 93 2e 01 	sts	0x012E, r25	; 0x80012e <ADCconfig+0x3>
    2710:	80 93 2d 01 	sts	0x012D, r24	; 0x80012d <ADCconfig+0x2>
#endif
#if R_ANZ_MESS != ANZ_MESS
  ADCconfig.Samples = ANZ_MESS;		// switch back to standard number of repetition
    2714:	89 e1       	ldi	r24, 0x19	; 25
    2716:	80 93 2b 01 	sts	0x012B, r24	; 0x80012b <ADCconfig>
#endif

  return;
    271a:	59 c1       	rjmp	.+690    	; 0x29ce <GetResistance+0x424>
  LoPinRL = pgm_read_byte(addr);		// instruction for LowPin R_L
#if (((PIN_RL1 + 1) != PIN_RH1) || ((PIN_RL2 + 1) != PIN_RH2) || ((PIN_RL3 + 1) != PIN_RH3))
  addr += 3;			// address of PinRHtab[LowPin]
  LoPinRH = pgm_read_byte(addr);		// instruction for LowPin R_H
#else
  LoPinRH = (LoPinRL + LoPinRL);
    271c:	99 0c       	add	r9, r9
#endif
  if (adc.tp2 < adc.lp1) {
     adc.tp2 = adc.lp1;
  }
					// L--RH--RX--H
  R_DDR = LoPinRH;			//switch R_H for Low-Pin to GND
    271e:	94 b8       	out	0x04, r9	; 4
  adc.lp2 = W5msReadADC(LowPin);
    2720:	8d 2f       	mov	r24, r29
    2722:	0e 94 7b 05 	call	0xaf6	; 0xaf6 <W5msReadADC>
    2726:	5c 01       	movw	r10, r24
		
  if((adc.hp1 < (4400*U_SCALE)) && (adc.hp2 > (97*U_SCALE))) {
    2728:	00 3c       	cpi	r16, 0xC0	; 192
    272a:	84 e4       	ldi	r24, 0x44	; 68
    272c:	18 07       	cpc	r17, r24
    272e:	30 f4       	brcc	.+12     	; 0x273c <GetResistance+0x192>
    2730:	25 e8       	ldi	r18, 0x85	; 133
    2732:	c2 16       	cp	r12, r18
    2734:	21 e0       	ldi	r18, 0x01	; 1
    2736:	d2 06       	cpc	r13, r18
    2738:	e8 f6       	brcc	.-70     	; 0x26f4 <GetResistance+0x14a>
    273a:	05 c0       	rjmp	.+10     	; 0x2746 <GetResistance+0x19c>
     lcd_data('d');
 #endif
     goto testend; 
  }
//    if((adc.hp2 + (adc.hp2 / 61)) < adc.hp1)
  if (adc.hp2 < (4972*U_SCALE)) { 
    273c:	80 eb       	ldi	r24, 0xB0	; 176
    273e:	c8 16       	cp	r12, r24
    2740:	8d e4       	ldi	r24, 0x4D	; 77
    2742:	d8 06       	cpc	r13, r24
    2744:	b8 f6       	brcc	.-82     	; 0x26f4 <GetResistance+0x14a>
     // voltage breaks down with low test current and it is not nearly shorted  => resistor
//     if (adc.lp1 < 120)  // take measurement with R_H 
     if (adc.lp1 < (169*U_SCALE)) { // take measurement with R_H 
    2746:	24 ea       	ldi	r18, 0xA4	; 164
    2748:	e2 16       	cp	r14, r18
    274a:	22 e0       	ldi	r18, 0x02	; 2
    274c:	f2 06       	cpc	r15, r18
    274e:	08 f0       	brcs	.+2      	; 0x2752 <GetResistance+0x1a8>
    2750:	6c c0       	rjmp	.+216    	; 0x282a <GetResistance+0x280>
        if (adc.lp2 < (38*U_SCALE)) {
    2752:	88 e9       	ldi	r24, 0x98	; 152
    2754:	a8 16       	cp	r10, r24
    2756:	b1 04       	cpc	r11, r1
    2758:	68 f2       	brcs	.-102    	; 0x26f4 <GetResistance+0x14a>
 #endif
           goto testend;
        }
        // two measurements with R_H resistors (470k) are made:
        // lirx1 (measurement at HighPin)
        lirx1 = (unsigned long)((unsigned int)R_H_VAL) * (unsigned long)adc.hp2 / vcc_diff(adc.hp2);
    275a:	c6 01       	movw	r24, r12
    275c:	0e 94 e3 05 	call	0xbc6	; 0xbc6 <vcc_diff>
    2760:	ac 01       	movw	r20, r24
    2762:	96 01       	movw	r18, r12
    2764:	a8 e9       	ldi	r26, 0x98	; 152
    2766:	b7 eb       	ldi	r27, 0xB7	; 183
    2768:	0e 94 1e 33 	call	0x663c	; 0x663c <__umulhisi3>
    276c:	9a 01       	movw	r18, r20
    276e:	40 e0       	ldi	r20, 0x00	; 0
    2770:	50 e0       	ldi	r21, 0x00	; 0
    2772:	0e 94 e0 32 	call	0x65c0	; 0x65c0 <__udivmodsi4>
    2776:	29 01       	movw	r4, r18
    2778:	3a 01       	movw	r6, r20
        // lirx2 (measurement at LowPin)
        lirx2 = (unsigned long)((unsigned int)R_H_VAL) * (unsigned long)vcc_diff(adc.lp2) / adc.lp2;
    277a:	c5 01       	movw	r24, r10
    277c:	0e 94 e3 05 	call	0xbc6	; 0xbc6 <vcc_diff>
    2780:	9c 01       	movw	r18, r24
    2782:	a8 e9       	ldi	r26, 0x98	; 152
    2784:	b7 eb       	ldi	r27, 0xB7	; 183
    2786:	0e 94 1e 33 	call	0x663c	; 0x663c <__umulhisi3>
    278a:	85 01       	movw	r16, r10
    278c:	20 e0       	ldi	r18, 0x00	; 0
    278e:	30 e0       	ldi	r19, 0x00	; 0
    2790:	a9 01       	movw	r20, r18
    2792:	98 01       	movw	r18, r16
    2794:	0e 94 e0 32 	call	0x65c0	; 0x65c0 <__udivmodsi4>
#define FAKT_LOW 2		//resolution is about twice as good
#else
#define FAKT_LOW 4		//resolution is about four times better
#endif
#ifdef AUTOSCALE_ADC
        if (adc.hp2 < U_INT_LIMIT) {
    2798:	88 e7       	ldi	r24, 0x78	; 120
    279a:	c8 16       	cp	r12, r24
    279c:	8f e0       	ldi	r24, 0x0F	; 15
    279e:	d8 06       	cpc	r13, r24
    27a0:	80 f4       	brcc	.+32     	; 0x27c2 <GetResistance+0x218>
           lrx1 = (lirx1*FAKT_LOW + lirx2) / (FAKT_LOW+1);	//weighted average of both R_H measurements
    27a2:	d3 01       	movw	r26, r6
    27a4:	c2 01       	movw	r24, r4
    27a6:	f2 e0       	ldi	r31, 0x02	; 2
    27a8:	88 0f       	add	r24, r24
    27aa:	99 1f       	adc	r25, r25
    27ac:	aa 1f       	adc	r26, r26
    27ae:	bb 1f       	adc	r27, r27
    27b0:	fa 95       	dec	r31
    27b2:	d1 f7       	brne	.-12     	; 0x27a8 <GetResistance+0x1fe>
    27b4:	bc 01       	movw	r22, r24
    27b6:	cd 01       	movw	r24, r26
    27b8:	62 0f       	add	r22, r18
    27ba:	73 1f       	adc	r23, r19
    27bc:	84 1f       	adc	r24, r20
    27be:	95 1f       	adc	r25, r21
    27c0:	14 c0       	rjmp	.+40     	; 0x27ea <GetResistance+0x240>
        } else if (adc.lp2 < U_INT_LIMIT){
    27c2:	88 e7       	ldi	r24, 0x78	; 120
    27c4:	a8 16       	cp	r10, r24
    27c6:	8f e0       	ldi	r24, 0x0F	; 15
    27c8:	b8 06       	cpc	r11, r24
    27ca:	b0 f4       	brcc	.+44     	; 0x27f8 <GetResistance+0x24e>
           lrx1 = (lirx2*FAKT_LOW + lirx1) / (FAKT_LOW+1);	//weighted average of both R_H measurements
    27cc:	da 01       	movw	r26, r20
    27ce:	c9 01       	movw	r24, r18
    27d0:	e2 e0       	ldi	r30, 0x02	; 2
    27d2:	88 0f       	add	r24, r24
    27d4:	99 1f       	adc	r25, r25
    27d6:	aa 1f       	adc	r26, r26
    27d8:	bb 1f       	adc	r27, r27
    27da:	ea 95       	dec	r30
    27dc:	d1 f7       	brne	.-12     	; 0x27d2 <GetResistance+0x228>
    27de:	bc 01       	movw	r22, r24
    27e0:	cd 01       	movw	r24, r26
    27e2:	64 0d       	add	r22, r4
    27e4:	75 1d       	adc	r23, r5
    27e6:	86 1d       	adc	r24, r6
    27e8:	97 1d       	adc	r25, r7
    27ea:	25 e0       	ldi	r18, 0x05	; 5
    27ec:	30 e0       	ldi	r19, 0x00	; 0
    27ee:	40 e0       	ldi	r20, 0x00	; 0
    27f0:	50 e0       	ldi	r21, 0x00	; 0
    27f2:	0e 94 e0 32 	call	0x65c0	; 0x65c0 <__udivmodsi4>
    27f6:	0c c0       	rjmp	.+24     	; 0x2810 <GetResistance+0x266>
        } else 
#endif
        {
           lrx1 = (lirx1 + lirx2) / 2;		//average of both R_H measurements
    27f8:	d3 01       	movw	r26, r6
    27fa:	c2 01       	movw	r24, r4
    27fc:	82 0f       	add	r24, r18
    27fe:	93 1f       	adc	r25, r19
    2800:	a4 1f       	adc	r26, r20
    2802:	b5 1f       	adc	r27, r21
    2804:	9c 01       	movw	r18, r24
    2806:	ad 01       	movw	r20, r26
    2808:	56 95       	lsr	r21
    280a:	47 95       	ror	r20
    280c:	37 95       	ror	r19
    280e:	27 95       	ror	r18
        }
        lrx1 *= 100;
    2810:	a4 e6       	ldi	r26, 0x64	; 100
    2812:	b0 e0       	ldi	r27, 0x00	; 0
    2814:	0e 94 33 33 	call	0x6666	; 0x6666 <__muluhisi3>
        lrx1 += RH_OFFSET;			// add constant for correction of systematic error
    2818:	2b 01       	movw	r4, r22
    281a:	3c 01       	movw	r6, r24
    281c:	2c ea       	ldi	r18, 0xAC	; 172
    281e:	42 0e       	add	r4, r18
    2820:	2d e0       	ldi	r18, 0x0D	; 13
    2822:	52 1e       	adc	r5, r18
    2824:	61 1c       	adc	r6, r1
    2826:	71 1c       	adc	r7, r1
    2828:	79 c0       	rjmp	.+242    	; 0x291c <GetResistance+0x372>
    282a:	67 2d       	mov	r22, r7
    282c:	76 2d       	mov	r23, r6
    282e:	06 17       	cp	r16, r22
    2830:	17 07       	cpc	r17, r23
    2832:	08 f4       	brcc	.+2      	; 0x2836 <GetResistance+0x28c>
    2834:	b8 01       	movw	r22, r16
    2836:	c5 2c       	mov	r12, r5
    2838:	d4 2c       	mov	r13, r4
    283a:	ce 14       	cp	r12, r14
    283c:	df 04       	cpc	r13, r15
    283e:	08 f4       	brcc	.+2      	; 0x2842 <GetResistance+0x298>
    2840:	67 01       	movw	r12, r14
    2842:	06 17       	cp	r16, r22
    2844:	17 07       	cpc	r17, r23
    2846:	08 f4       	brcc	.+2      	; 0x284a <GetResistance+0x2a0>
    2848:	8b 01       	movw	r16, r22
        // two measurements with R_L resistors (680) are made:
        // lirx1 (measurement at HighPin)
        if (adc.tp1 > adc.hp1) {
           adc.hp1 = adc.tp1;		//diff negativ is illegal
        }
        lirx1 =(unsigned long)RR680PL * (unsigned long)unsigned_diff(adc.hp1, adc.tp1) / vcc_diff(adc.hp1);
    284a:	a0 90 1b 01 	lds	r10, 0x011B	; 0x80011b <resis680pl>
    284e:	b0 90 1c 01 	lds	r11, 0x011C	; 0x80011c <resis680pl+0x1>
    2852:	c8 01       	movw	r24, r16
    2854:	0e 94 e8 05 	call	0xbd0	; 0xbd0 <unsigned_diff>
    2858:	95 01       	movw	r18, r10
    285a:	dc 01       	movw	r26, r24
    285c:	0e 94 1e 33 	call	0x663c	; 0x663c <__umulhisi3>
    2860:	2b 01       	movw	r4, r22
    2862:	3c 01       	movw	r6, r24
    2864:	c8 01       	movw	r24, r16
    2866:	0e 94 e3 05 	call	0xbc6	; 0xbc6 <vcc_diff>
    286a:	9c 01       	movw	r18, r24
    286c:	40 e0       	ldi	r20, 0x00	; 0
    286e:	50 e0       	ldi	r21, 0x00	; 0
    2870:	c3 01       	movw	r24, r6
    2872:	b2 01       	movw	r22, r4
    2874:	0e 94 e0 32 	call	0x65c0	; 0x65c0 <__udivmodsi4>
    2878:	29 01       	movw	r4, r18
    287a:	3a 01       	movw	r6, r20
    287c:	ce 14       	cp	r12, r14
    287e:	df 04       	cpc	r13, r15
    2880:	08 f4       	brcc	.+2      	; 0x2884 <GetResistance+0x2da>
    2882:	76 01       	movw	r14, r12
        if (adc.tp2 < adc.lp1) {
           adc.lp1 = adc.tp2;		//diff negativ is illegal
        }
        // lirx2 (Measurement at LowPin)
        lirx2 =(unsigned long)RR680MI * (unsigned long)unsigned_diff(adc.tp2, adc.lp1) / adc.lp1;
    2884:	a0 90 14 01 	lds	r10, 0x0114	; 0x800114 <resis680mi>
    2888:	b0 90 15 01 	lds	r11, 0x0115	; 0x800115 <resis680mi+0x1>
    288c:	b7 01       	movw	r22, r14
    288e:	c6 01       	movw	r24, r12
    2890:	0e 94 e8 05 	call	0xbd0	; 0xbd0 <unsigned_diff>
    2894:	95 01       	movw	r18, r10
    2896:	dc 01       	movw	r26, r24
    2898:	0e 94 1e 33 	call	0x663c	; 0x663c <__umulhisi3>
    289c:	47 01       	movw	r8, r14
    289e:	a1 2c       	mov	r10, r1
    28a0:	b1 2c       	mov	r11, r1
    28a2:	a5 01       	movw	r20, r10
    28a4:	94 01       	movw	r18, r8
    28a6:	0e 94 e0 32 	call	0x65c0	; 0x65c0 <__udivmodsi4>

#ifdef AUTOSCALE_ADC
        if (adc.hp1 < U_INT_LIMIT) {
    28aa:	08 37       	cpi	r16, 0x78	; 120
    28ac:	8f e0       	ldi	r24, 0x0F	; 15
    28ae:	18 07       	cpc	r17, r24
    28b0:	80 f4       	brcc	.+32     	; 0x28d2 <GetResistance+0x328>
           lrx1 = (lirx1*FAKT_LOW + lirx2) / (FAKT_LOW+1);	//weighted average of both R_L measurements
    28b2:	d3 01       	movw	r26, r6
    28b4:	c2 01       	movw	r24, r4
    28b6:	62 e0       	ldi	r22, 0x02	; 2
    28b8:	88 0f       	add	r24, r24
    28ba:	99 1f       	adc	r25, r25
    28bc:	aa 1f       	adc	r26, r26
    28be:	bb 1f       	adc	r27, r27
    28c0:	6a 95       	dec	r22
    28c2:	d1 f7       	brne	.-12     	; 0x28b8 <GetResistance+0x30e>
    28c4:	bc 01       	movw	r22, r24
    28c6:	cd 01       	movw	r24, r26
    28c8:	62 0f       	add	r22, r18
    28ca:	73 1f       	adc	r23, r19
    28cc:	84 1f       	adc	r24, r20
    28ce:	95 1f       	adc	r25, r21
    28d0:	14 c0       	rjmp	.+40     	; 0x28fa <GetResistance+0x350>
        } else if (adc.lp1 < U_INT_LIMIT) {
    28d2:	88 e7       	ldi	r24, 0x78	; 120
    28d4:	e8 16       	cp	r14, r24
    28d6:	8f e0       	ldi	r24, 0x0F	; 15
    28d8:	f8 06       	cpc	r15, r24
    28da:	c0 f4       	brcc	.+48     	; 0x290c <GetResistance+0x362>
           lrx1 = (lirx2*FAKT_LOW + lirx1) / (FAKT_LOW+1);	//weighted average of both R_L measurements
    28dc:	da 01       	movw	r26, r20
    28de:	c9 01       	movw	r24, r18
    28e0:	32 e0       	ldi	r19, 0x02	; 2
    28e2:	88 0f       	add	r24, r24
    28e4:	99 1f       	adc	r25, r25
    28e6:	aa 1f       	adc	r26, r26
    28e8:	bb 1f       	adc	r27, r27
    28ea:	3a 95       	dec	r19
    28ec:	d1 f7       	brne	.-12     	; 0x28e2 <GetResistance+0x338>
    28ee:	bc 01       	movw	r22, r24
    28f0:	cd 01       	movw	r24, r26
    28f2:	64 0d       	add	r22, r4
    28f4:	75 1d       	adc	r23, r5
    28f6:	86 1d       	adc	r24, r6
    28f8:	97 1d       	adc	r25, r7
    28fa:	25 e0       	ldi	r18, 0x05	; 5
    28fc:	30 e0       	ldi	r19, 0x00	; 0
    28fe:	40 e0       	ldi	r20, 0x00	; 0
    2900:	50 e0       	ldi	r21, 0x00	; 0
    2902:	0e 94 e0 32 	call	0x65c0	; 0x65c0 <__udivmodsi4>
    2906:	29 01       	movw	r4, r18
    2908:	3a 01       	movw	r6, r20
    290a:	08 c0       	rjmp	.+16     	; 0x291c <GetResistance+0x372>
        } else
#endif
        {
           lrx1 = (lirx1 + lirx2) / 2;		//average of both R_L measurements
    290c:	42 0e       	add	r4, r18
    290e:	53 1e       	adc	r5, r19
    2910:	64 1e       	adc	r6, r20
    2912:	75 1e       	adc	r7, r21
    2914:	76 94       	lsr	r7
    2916:	67 94       	ror	r6
    2918:	57 94       	ror	r5
    291a:	47 94       	ror	r4
        }
     }
     // measurement is finished, lrx1 is the resistance value of one direction
     if(PartFound < PART_TRANSISTOR) {
    291c:	10 91 1a 01 	lds	r17, 0x011A	; 0x80011a <PartFound>
    2920:	14 30       	cpi	r17, 0x04	; 4
    2922:	08 f0       	brcs	.+2      	; 0x2926 <GetResistance+0x37c>
    2924:	e7 ce       	rjmp	.-562    	; 0x26f4 <GetResistance+0x14a>
// Search for resistors
//##########################################################################################
  if ((ptrans.count  + ntrans.count) > 0) {
     return;	// no resistors are searched, if transistors are detected
  }
  resnum = (LowPin - TP_MIN + HighPin - TP_MIN - 1);	// resistor-Number 0:1 = 0, 0:2 = 1, 1:2 = 2
    2926:	c1 50       	subi	r28, 0x01	; 1
    2928:	0c 2f       	mov	r16, r28
    292a:	0d 0f       	add	r16, r29
           lrx1 = (lirx1 + lirx2) / 2;		//average of both R_L measurements
        }
     }
     // measurement is finished, lrx1 is the resistance value of one direction
     if(PartFound < PART_TRANSISTOR) {
        if (ResistorChecked[resnum] != 0) {
    292c:	20 2f       	mov	r18, r16
    292e:	30 e0       	ldi	r19, 0x00	; 0
    2930:	e9 01       	movw	r28, r18
    2932:	cd 5a       	subi	r28, 0xAD	; 173
    2934:	de 4f       	sbci	r29, 0xFE	; 254
    2936:	88 81       	ld	r24, Y
    2938:	22 0f       	add	r18, r18
    293a:	33 1f       	adc	r19, r19
    293c:	22 0f       	add	r18, r18
    293e:	33 1f       	adc	r19, r19
           // must be measurement with inverse polarity 
           // resolution is 0.1 Ohm, 1 Ohm = 10 !
           lirx1 = (labs((long)lrx1 - (long)ResistorVal[resnum]) * 10) / (lrx1 + ResistorVal[resnum] + 100);
    2940:	f9 01       	movw	r30, r18
    2942:	ee 55       	subi	r30, 0x5E	; 94
    2944:	fe 4f       	sbci	r31, 0xFE	; 254
           lrx1 = (lirx1 + lirx2) / 2;		//average of both R_L measurements
        }
     }
     // measurement is finished, lrx1 is the resistance value of one direction
     if(PartFound < PART_TRANSISTOR) {
        if (ResistorChecked[resnum] != 0) {
    2946:	88 23       	and	r24, r24
    2948:	d9 f1       	breq	.+118    	; 0x29c0 <GetResistance+0x416>
           // must be measurement with inverse polarity 
           // resolution is 0.1 Ohm, 1 Ohm = 10 !
           lirx1 = (labs((long)lrx1 - (long)ResistorVal[resnum]) * 10) / (lrx1 + ResistorVal[resnum] + 100);
    294a:	c0 80       	ld	r12, Z
    294c:	d1 80       	ldd	r13, Z+1	; 0x01
    294e:	e2 80       	ldd	r14, Z+2	; 0x02
    2950:	f3 80       	ldd	r15, Z+3	; 0x03
           if (lirx1  > 0) {
    2952:	a3 01       	movw	r20, r6
    2954:	92 01       	movw	r18, r4
    2956:	2c 19       	sub	r18, r12
    2958:	3d 09       	sbc	r19, r13
    295a:	4e 09       	sbc	r20, r14
    295c:	5f 09       	sbc	r21, r15
    295e:	57 ff       	sbrs	r21, 7
    2960:	07 c0       	rjmp	.+14     	; 0x2970 <GetResistance+0x3c6>
    2962:	50 95       	com	r21
    2964:	40 95       	com	r20
    2966:	30 95       	com	r19
    2968:	21 95       	neg	r18
    296a:	3f 4f       	sbci	r19, 0xFF	; 255
    296c:	4f 4f       	sbci	r20, 0xFF	; 255
    296e:	5f 4f       	sbci	r21, 0xFF	; 255
    2970:	aa e0       	ldi	r26, 0x0A	; 10
    2972:	b0 e0       	ldi	r27, 0x00	; 0
    2974:	0e 94 33 33 	call	0x6666	; 0x6666 <__muluhisi3>
    2978:	24 e6       	ldi	r18, 0x64	; 100
    297a:	c2 0e       	add	r12, r18
    297c:	d1 1c       	adc	r13, r1
    297e:	e1 1c       	adc	r14, r1
    2980:	f1 1c       	adc	r15, r1
    2982:	a7 01       	movw	r20, r14
    2984:	96 01       	movw	r18, r12
    2986:	24 0d       	add	r18, r4
    2988:	35 1d       	adc	r19, r5
    298a:	46 1d       	adc	r20, r6
    298c:	57 1d       	adc	r21, r7
    298e:	0e 94 e0 32 	call	0x65c0	; 0x65c0 <__udivmodsi4>
    2992:	23 2b       	or	r18, r19
    2994:	24 2b       	or	r18, r20
    2996:	25 2b       	or	r18, r21
    2998:	09 f0       	breq	.+2      	; 0x299c <GetResistance+0x3f2>
    299a:	ac ce       	rjmp	.-680    	; 0x26f4 <GetResistance+0x14a>
     DisplayValue(lrx1,-1,' ',4);
     DisplayValue(ResistorVal[resnum],-1,' ',4);
 #endif
           } else {
              // resistor has the same value in both directions
              if (PartFound < PART_DIODE) {
    299c:	13 30       	cpi	r17, 0x03	; 3
    299e:	19 f0       	breq	.+6      	; 0x29a6 <GetResistance+0x3fc>
                 PartFound = PART_RESISTOR;	// only mark as resistor, if no other part found
    29a0:	81 e0       	ldi	r24, 0x01	; 1
    29a2:	80 93 1a 01 	sts	0x011A, r24	; 0x80011a <PartFound>
              }
              ResistorChecked[resnum] = 2;		// mark as checked in both direction
    29a6:	82 e0       	ldi	r24, 0x02	; 2
    29a8:	88 83       	st	Y, r24
              ResistorList[ResistorsFound] = resnum;	// save number of this resistor
    29aa:	80 91 6f 01 	lds	r24, 0x016F	; 0x80016f <ResistorsFound>
    29ae:	e8 2f       	mov	r30, r24
    29b0:	f0 e0       	ldi	r31, 0x00	; 0
    29b2:	ea 5a       	subi	r30, 0xAA	; 170
    29b4:	fe 4f       	sbci	r31, 0xFE	; 254
    29b6:	00 83       	st	Z, r16
              ResistorsFound++;			// 1 more resistor found
    29b8:	8f 5f       	subi	r24, 0xFF	; 255
    29ba:	80 93 6f 01 	sts	0x016F, r24	; 0x80016f <ResistorsFound>
    29be:	9a ce       	rjmp	.-716    	; 0x26f4 <GetResistance+0x14a>
           }
           goto testend;
        } else {		// resistor is never checked before
           // must be a new one with other pins
           ResistorVal[resnum] = lrx1;	// save register value
    29c0:	40 82       	st	Z, r4
    29c2:	51 82       	std	Z+1, r5	; 0x01
    29c4:	62 82       	std	Z+2, r6	; 0x02
    29c6:	73 82       	std	Z+3, r7	; 0x03
           ResistorChecked[resnum] = 1;		// is checked in one direction
    29c8:	81 e0       	ldi	r24, 0x01	; 1
    29ca:	88 83       	st	Y, r24
    29cc:	93 ce       	rjmp	.-730    	; 0x26f4 <GetResistance+0x14a>
#if R_ANZ_MESS != ANZ_MESS
  ADCconfig.Samples = ANZ_MESS;		// switch back to standard number of repetition
#endif

  return;
} // end GetResistance()
    29ce:	cd b7       	in	r28, 0x3d	; 61
    29d0:	de b7       	in	r29, 0x3e	; 62
    29d2:	e0 e1       	ldi	r30, 0x10	; 16
    29d4:	0c 94 e6 33 	jmp	0x67cc	; 0x67cc <__epilogue_restores__+0x4>

000029d8 <ChargePin10ms>:
#include "Transistortester.h"


//******************************************************************

void ChargePin10ms(uint8_t PinToCharge, uint8_t ChargeDirection) {
    29d8:	cf 93       	push	r28
    29da:	c8 2f       	mov	r28, r24
    29dc:	c0 95       	com	r28
   //Parameters:
   //PinToCharge: specifies the pin as mask for R-Port
   //ChargeDirection: 0 = switch to GND (N-Kanal-FET), 1= switch to VCC(P-Kanal-FET)

   if(ChargeDirection&1) {
      R_PORT |= PinToCharge;	//R_PORT to 1 (VCC) 
    29de:	95 b1       	in	r25, 0x05	; 5
   //Will be used by discharge of MOSFET Gates or to load big capacities.
   //Parameters:
   //PinToCharge: specifies the pin as mask for R-Port
   //ChargeDirection: 0 = switch to GND (N-Kanal-FET), 1= switch to VCC(P-Kanal-FET)

   if(ChargeDirection&1) {
    29e0:	60 ff       	sbrs	r22, 0
    29e2:	02 c0       	rjmp	.+4      	; 0x29e8 <ChargePin10ms+0x10>
      R_PORT |= PinToCharge;	//R_PORT to 1 (VCC) 
    29e4:	98 2b       	or	r25, r24
    29e6:	01 c0       	rjmp	.+2      	; 0x29ea <ChargePin10ms+0x12>
   } else {
      R_PORT &= ~PinToCharge; // or 0 (GND)
    29e8:	9c 23       	and	r25, r28
    29ea:	95 b9       	out	0x05, r25	; 5
   }
   R_DDR |= PinToCharge;		//switch Pin to output, across R to GND or VCC
    29ec:	94 b1       	in	r25, 0x04	; 4
    29ee:	89 2b       	or	r24, r25
    29f0:	84 b9       	out	0x04, r24	; 4
   wait_about10ms();			// wait about 10ms
    29f2:	82 e0       	ldi	r24, 0x02	; 2
    29f4:	0e 94 47 05 	call	0xa8e	; 0xa8e <sleep_5ms>
   // switch back Input, no current
   R_DDR &= ~PinToCharge;	// switch back to input
    29f8:	84 b1       	in	r24, 0x04	; 4
    29fa:	8c 23       	and	r24, r28
    29fc:	84 b9       	out	0x04, r24	; 4
   R_PORT &= ~PinToCharge;	// no Pull up
    29fe:	85 b1       	in	r24, 0x05	; 5
    2a00:	c8 23       	and	r28, r24
    2a02:	c5 b9       	out	0x05, r28	; 5
}
    2a04:	cf 91       	pop	r28
    2a06:	08 95       	ret

00002a08 <EntladePins>:
#include <avr/pgmspace.h>
#include "Transistortester.h"


// first discharge any charge of capacitors
void EntladePins() {
    2a08:	a0 e0       	ldi	r26, 0x00	; 0
    2a0a:	b0 e0       	ldi	r27, 0x00	; 0
    2a0c:	ea e0       	ldi	r30, 0x0A	; 10
    2a0e:	f5 e1       	ldi	r31, 0x15	; 21
    2a10:	0c 94 d0 33 	jmp	0x67a0	; 0x67a0 <__prologue_saves__+0x10>
    2a14:	1a e0       	ldi	r17, 0x0A	; 10
#if DebugOut == 99
  uart_putc('L');		//Debug
#endif
  for(lop_cnt=0;lop_cnt<10;lop_cnt++) {
     adc_gnd = TXD_MSK;		// put all ADC to Input
     ADC_DDR = adc_gnd;
    2a16:	08 e0       	ldi	r16, 0x08	; 8
     ADC_PORT = TXD_VAL;		// ADC-outputs auf 0
     R_PORT = 0;			// R-outputs auf 0
//     R_DDR = (1<<PIN_RH3) | (1<<PIN_RH2) | (1<<PIN_RH1); // R_H for all Pins to GND
     R_DDR = (1<<PIN_RH3) | (1<<PIN_RL3) | (1<<PIN_RH2) | (1<<PIN_RL2) | (1<<PIN_RH1) | (1<<PIN_RL1); // R_H and R_L for all Pins to GND
    2a18:	8f e3       	ldi	r24, 0x3F	; 63
    2a1a:	c8 2e       	mov	r12, r24
        if ((adcmv[0] < (CAP_EMPTY_LEVEL+2)) && (adcmv[1] < (CAP_EMPTY_LEVEL+2)) && (adcmv[2] < (CAP_EMPTY_LEVEL+2))) {
           break;
        }
     }
     if (clr_cnt == MAX_ENTLADE_ZEIT) {
        PartFound = PART_CELL;	// mark as Battery
    2a1c:	99 e0       	ldi	r25, 0x09	; 9
    2a1e:	d9 2e       	mov	r13, r25
#if DebugOut == 99
  uart_putc('L');		//Debug
#endif
  for(lop_cnt=0;lop_cnt<10;lop_cnt++) {
     adc_gnd = TXD_MSK;		// put all ADC to Input
     ADC_DDR = adc_gnd;
    2a20:	07 b9       	out	0x07, r16	; 7
     ADC_PORT = TXD_VAL;		// ADC-outputs auf 0
    2a22:	08 b9       	out	0x08, r16	; 8
     R_PORT = 0;			// R-outputs auf 0
    2a24:	15 b8       	out	0x05, r1	; 5
//     R_DDR = (1<<PIN_RH3) | (1<<PIN_RH2) | (1<<PIN_RH1); // R_H for all Pins to GND
     R_DDR = (1<<PIN_RH3) | (1<<PIN_RL3) | (1<<PIN_RH2) | (1<<PIN_RL2) | (1<<PIN_RH1) | (1<<PIN_RL1); // R_H and R_L for all Pins to GND
    2a26:	c4 b8       	out	0x04, r12	; 4
     adcmv[0] = W5msReadADC(TP1);	// which voltage has Pin 1?
    2a28:	80 e0       	ldi	r24, 0x00	; 0
    2a2a:	0e 94 7b 05 	call	0xaf6	; 0xaf6 <W5msReadADC>
    2a2e:	7c 01       	movw	r14, r24
     adcmv[1] = ReadADC(TP2);	// which voltage has Pin 2?
    2a30:	81 e0       	ldi	r24, 0x01	; 1
    2a32:	0e 94 7f 05 	call	0xafe	; 0xafe <ReadADC>
    2a36:	ec 01       	movw	r28, r24
     adcmv[2] = ReadADC(TP3);	// which voltage has Pin 3?
    2a38:	82 e0       	ldi	r24, 0x02	; 2
    2a3a:	0e 94 7f 05 	call	0xafe	; 0xafe <ReadADC>
    2a3e:	9c 01       	movw	r18, r24
        u2lcd_space(adcmv[0]);	// lcd_string(utoa(adcmv[0], outval, 10)); lcd_space();
        u2lcd_space(adcmv[1]);	// lcd_string(utoa(adcmv[1], outval, 10)); lcd_space();
        u2lcd(adcmv[2]);		// lcd_string(utoa(adcmv[2], outval, 10));
        wait2s();
#endif
     if ((PartFound == PART_CELL) || ((adcmv[0] < CAP_EMPTY_LEVEL) && (adcmv[1] < CAP_EMPTY_LEVEL) && (adcmv[2] < CAP_EMPTY_LEVEL))) {
    2a40:	80 91 1a 01 	lds	r24, 0x011A	; 0x80011a <PartFound>
    2a44:	89 30       	cpi	r24, 0x09	; 9
    2a46:	81 f4       	brne	.+32     	; 0x2a68 <EntladePins+0x60>
        ADC_DDR = TXD_MSK;		// switch all ADC-Pins to input
    2a48:	88 e0       	ldi	r24, 0x08	; 8
    2a4a:	87 b9       	out	0x07, r24	; 7
        R_DDR = 0;			// switch all R_L Ports (and R_H) to input
    2a4c:	14 b8       	out	0x04, r1	; 4
#if FLASHEND > 0x3fff
        cell_mv[0] = adcmv[0];		// save the voltage of pin 1
    2a4e:	f0 92 04 01 	sts	0x0104, r15	; 0x800104 <cell_mv+0x1>
    2a52:	e0 92 03 01 	sts	0x0103, r14	; 0x800103 <cell_mv>
        cell_mv[1] = adcmv[1];		// save the voltage of pin 2
    2a56:	d0 93 06 01 	sts	0x0106, r29	; 0x800106 <cell_mv+0x3>
    2a5a:	c0 93 05 01 	sts	0x0105, r28	; 0x800105 <cell_mv+0x2>
        cell_mv[2] = adcmv[2];		// save the voltage of pin 3
    2a5e:	30 93 08 01 	sts	0x0108, r19	; 0x800108 <cell_mv+0x5>
    2a62:	20 93 07 01 	sts	0x0107, r18	; 0x800107 <cell_mv+0x4>
    2a66:	5b c0       	rjmp	.+182    	; 0x2b1e <EntladePins+0x116>
        u2lcd_space(adcmv[0]);	// lcd_string(utoa(adcmv[0], outval, 10)); lcd_space();
        u2lcd_space(adcmv[1]);	// lcd_string(utoa(adcmv[1], outval, 10)); lcd_space();
        u2lcd(adcmv[2]);		// lcd_string(utoa(adcmv[2], outval, 10));
        wait2s();
#endif
     if ((PartFound == PART_CELL) || ((adcmv[0] < CAP_EMPTY_LEVEL) && (adcmv[1] < CAP_EMPTY_LEVEL) && (adcmv[2] < CAP_EMPTY_LEVEL))) {
    2a68:	84 e0       	ldi	r24, 0x04	; 4
    2a6a:	e8 16       	cp	r14, r24
    2a6c:	f1 04       	cpc	r15, r1
    2a6e:	40 f4       	brcc	.+16     	; 0x2a80 <EntladePins+0x78>
    2a70:	c4 30       	cpi	r28, 0x04	; 4
    2a72:	d1 05       	cpc	r29, r1
    2a74:	60 f4       	brcc	.+24     	; 0x2a8e <EntladePins+0x86>
    2a76:	24 30       	cpi	r18, 0x04	; 4
    2a78:	31 05       	cpc	r19, r1
    2a7a:	30 f3       	brcs	.-52     	; 0x2a48 <EntladePins+0x40>
#endif
        return;			// all is discharged
     }
     // all Pins with voltage lower than 1V can be connected directly to GND (ADC-Port)
     if (adcmv[0] < 1000) {
        adc_gnd |= (1<<TP1);	//Pin 1 directly to GND
    2a7c:	99 e0       	ldi	r25, 0x09	; 9
    2a7e:	0b c0       	rjmp	.+22     	; 0x2a96 <EntladePins+0x8e>
        uart_putc('l');		//Debug
#endif
        return;			// all is discharged
     }
     // all Pins with voltage lower than 1V can be connected directly to GND (ADC-Port)
     if (adcmv[0] < 1000) {
    2a80:	88 ee       	ldi	r24, 0xE8	; 232
    2a82:	e8 16       	cp	r14, r24
    2a84:	83 e0       	ldi	r24, 0x03	; 3
    2a86:	f8 06       	cpc	r15, r24
    2a88:	10 f0       	brcs	.+4      	; 0x2a8e <EntladePins+0x86>
#define MAX_ENTLADE_ZEIT  (10000/20)
#if DebugOut == 99
  uart_putc('L');		//Debug
#endif
  for(lop_cnt=0;lop_cnt<10;lop_cnt++) {
     adc_gnd = TXD_MSK;		// put all ADC to Input
    2a8a:	98 e0       	ldi	r25, 0x08	; 8
    2a8c:	01 c0       	rjmp	.+2      	; 0x2a90 <EntladePins+0x88>
#endif
        return;			// all is discharged
     }
     // all Pins with voltage lower than 1V can be connected directly to GND (ADC-Port)
     if (adcmv[0] < 1000) {
        adc_gnd |= (1<<TP1);	//Pin 1 directly to GND
    2a8e:	99 e0       	ldi	r25, 0x09	; 9
     }
     if (adcmv[1] < 1000) {
    2a90:	c8 3e       	cpi	r28, 0xE8	; 232
    2a92:	d3 40       	sbci	r29, 0x03	; 3
    2a94:	08 f4       	brcc	.+2      	; 0x2a98 <EntladePins+0x90>
        adc_gnd |= (1<<TP2);	//Pin 2 directly to GND
    2a96:	92 60       	ori	r25, 0x02	; 2
     }
     if (adcmv[2] < 1000) {
    2a98:	28 3e       	cpi	r18, 0xE8	; 232
    2a9a:	33 40       	sbci	r19, 0x03	; 3
    2a9c:	08 f4       	brcc	.+2      	; 0x2aa0 <EntladePins+0x98>
        adc_gnd |= (1<<TP3);	//Pin 3 directly to  GND
    2a9e:	94 60       	ori	r25, 0x04	; 4
     }
     ADC_DDR = adc_gnd;		// switch all selected ADC-Ports at the same time
    2aa0:	97 b9       	out	0x07, r25	; 7

     // additionally switch the leaving Ports with R_L to GND.
     // since there is no disadvantage for the already directly switched pins, we can
     // simply switch all  R_L resistors to GND
//     R_DDR = (1<<PIN_RL3) | (1<<PIN_RL2) | (1<<PIN_RL1);	// Pins across R_L resistors to GND
     for(clr_cnt=0;clr_cnt<MAX_ENTLADE_ZEIT;clr_cnt++) {
    2aa2:	c0 e0       	ldi	r28, 0x00	; 0
    2aa4:	d0 e0       	ldi	r29, 0x00	; 0
        wdt_reset();
    2aa6:	a8 95       	wdr
        adcmv[0] = W20msReadADC(TP1);	// which voltage has Pin 1?
    2aa8:	80 e0       	ldi	r24, 0x00	; 0
    2aaa:	0e 94 73 05 	call	0xae6	; 0xae6 <W20msReadADC>
    2aae:	5c 01       	movw	r10, r24
        adcmv[1] = ReadADC(TP2);	// which voltage has Pin 2?
    2ab0:	81 e0       	ldi	r24, 0x01	; 1
    2ab2:	0e 94 7f 05 	call	0xafe	; 0xafe <ReadADC>
    2ab6:	7c 01       	movw	r14, r24
        adcmv[2] = ReadADC(TP3);	// which voltage has Pin 3?
    2ab8:	82 e0       	ldi	r24, 0x02	; 2
    2aba:	0e 94 7f 05 	call	0xafe	; 0xafe <ReadADC>
        if (adcmv[0] < 1300) {
    2abe:	24 e1       	ldi	r18, 0x14	; 20
    2ac0:	a2 16       	cp	r10, r18
    2ac2:	25 e0       	ldi	r18, 0x05	; 5
    2ac4:	b2 06       	cpc	r11, r18
    2ac6:	08 f4       	brcc	.+2      	; 0x2aca <EntladePins+0xc2>
           ADC_DDR |= (1<<TP1);	// below 1.3V , switch directly with ADC-Port to GND
    2ac8:	38 9a       	sbi	0x07, 0	; 7
        }
        if (adcmv[1] < 1300) {
    2aca:	24 e1       	ldi	r18, 0x14	; 20
    2acc:	e2 16       	cp	r14, r18
    2ace:	25 e0       	ldi	r18, 0x05	; 5
    2ad0:	f2 06       	cpc	r15, r18
    2ad2:	08 f4       	brcc	.+2      	; 0x2ad6 <EntladePins+0xce>
           ADC_DDR |= (1<<TP2);	// below 1.3V, switch directly with ADC-Port to GND
    2ad4:	39 9a       	sbi	0x07, 1	; 7
        }
        if (adcmv[2] < 1300) {
    2ad6:	84 31       	cpi	r24, 0x14	; 20
    2ad8:	25 e0       	ldi	r18, 0x05	; 5
    2ada:	92 07       	cpc	r25, r18
    2adc:	08 f4       	brcc	.+2      	; 0x2ae0 <EntladePins+0xd8>
           ADC_DDR |= (1<<TP3);	// below 1.3V, switch directly with ADC-Port to GND
    2ade:	3a 9a       	sbi	0x07, 2	; 7
        }
        if ((adcmv[0] < (CAP_EMPTY_LEVEL+2)) && (adcmv[1] < (CAP_EMPTY_LEVEL+2)) && (adcmv[2] < (CAP_EMPTY_LEVEL+2))) {
    2ae0:	26 e0       	ldi	r18, 0x06	; 6
    2ae2:	a2 16       	cp	r10, r18
    2ae4:	b1 04       	cpc	r11, r1
    2ae6:	30 f4       	brcc	.+12     	; 0x2af4 <EntladePins+0xec>
    2ae8:	26 e0       	ldi	r18, 0x06	; 6
    2aea:	e2 16       	cp	r14, r18
    2aec:	f1 04       	cpc	r15, r1
    2aee:	10 f4       	brcc	.+4      	; 0x2af4 <EntladePins+0xec>
    2af0:	06 97       	sbiw	r24, 0x06	; 6
    2af2:	38 f0       	brcs	.+14     	; 0x2b02 <EntladePins+0xfa>

     // additionally switch the leaving Ports with R_L to GND.
     // since there is no disadvantage for the already directly switched pins, we can
     // simply switch all  R_L resistors to GND
//     R_DDR = (1<<PIN_RL3) | (1<<PIN_RL2) | (1<<PIN_RL1);	// Pins across R_L resistors to GND
     for(clr_cnt=0;clr_cnt<MAX_ENTLADE_ZEIT;clr_cnt++) {
    2af4:	21 96       	adiw	r28, 0x01	; 1
    2af6:	c4 3f       	cpi	r28, 0xF4	; 244
    2af8:	81 e0       	ldi	r24, 0x01	; 1
    2afa:	d8 07       	cpc	r29, r24
    2afc:	a1 f6       	brne	.-88     	; 0x2aa6 <EntladePins+0x9e>
        if ((adcmv[0] < (CAP_EMPTY_LEVEL+2)) && (adcmv[1] < (CAP_EMPTY_LEVEL+2)) && (adcmv[2] < (CAP_EMPTY_LEVEL+2))) {
           break;
        }
     }
     if (clr_cnt == MAX_ENTLADE_ZEIT) {
        PartFound = PART_CELL;	// mark as Battery
    2afe:	d0 92 1a 01 	sts	0x011A, r13	; 0x80011a <PartFound>

     // additionally switch the leaving Ports with R_L to GND.
     // since there is no disadvantage for the already directly switched pins, we can
     // simply switch all  R_L resistors to GND
//     R_DDR = (1<<PIN_RL3) | (1<<PIN_RL2) | (1<<PIN_RL1);	// Pins across R_L resistors to GND
     for(clr_cnt=0;clr_cnt<MAX_ENTLADE_ZEIT;clr_cnt++) {
    2b02:	e1 2c       	mov	r14, r1
    2b04:	f1 2c       	mov	r15, r1
        lcd_line4();
        u2lcd_space(adcmv[0]);	// lcd_string(utoa(adcmv[0], outval, 10)); lcd_space();
        u2lcd_space(adcmv[1]);	// lcd_string(utoa(adcmv[1], outval, 10)); lcd_space();
        u2lcd(adcmv[2]);		// lcd_string(utoa(adcmv[2], outval, 10));
#endif
     for(adcmv[0]=0;adcmv[0]<clr_cnt;adcmv[0]++) {
    2b06:	ec 16       	cp	r14, r28
    2b08:	fd 06       	cpc	r15, r29
    2b0a:	31 f0       	breq	.+12     	; 0x2b18 <EntladePins+0x110>
        // for safety, discharge 5% of discharge  time
        wait1ms();
    2b0c:	0e 94 35 05 	call	0xa6a	; 0xa6a <wait1ms>
    2b10:	2f ef       	ldi	r18, 0xFF	; 255
    2b12:	e2 1a       	sub	r14, r18
    2b14:	f2 0a       	sbc	r15, r18
    2b16:	f7 cf       	rjmp	.-18     	; 0x2b06 <EntladePins+0xfe>
    2b18:	11 50       	subi	r17, 0x01	; 1
// max. time of discharge in ms  (10000/20) == 10s
#define MAX_ENTLADE_ZEIT  (10000/20)
#if DebugOut == 99
  uart_putc('L');		//Debug
#endif
  for(lop_cnt=0;lop_cnt<10;lop_cnt++) {
    2b1a:	09 f0       	breq	.+2      	; 0x2b1e <EntladePins+0x116>
    2b1c:	81 cf       	rjmp	.-254    	; 0x2a20 <EntladePins+0x18>
     }
  } // end for lop_cnt
#if DebugOut == 99
  uart_putc('x');		//Debug
#endif
 }
    2b1e:	cd b7       	in	r28, 0x3d	; 61
    2b20:	de b7       	in	r29, 0x3e	; 62
    2b22:	ea e0       	ldi	r30, 0x0A	; 10
    2b24:	0c 94 ec 33 	jmp	0x67d8	; 0x67d8 <__epilogue_restores__+0x10>

00002b28 <Scale_C_with_vcc>:
  R_PORT = 0; 			// switch all resistor outputs to GND, no pull up
  return;
 } // end ReadCapacity()


void Scale_C_with_vcc(void) {
    2b28:	cf 92       	push	r12
    2b2a:	df 92       	push	r13
    2b2c:	ef 92       	push	r14
    2b2e:	ff 92       	push	r15
    2b30:	cf 93       	push	r28
    2b32:	20 91 73 01 	lds	r18, 0x0173	; 0x800173 <cap>
    2b36:	30 91 74 01 	lds	r19, 0x0174	; 0x800174 <cap+0x1>
    2b3a:	40 91 75 01 	lds	r20, 0x0175	; 0x800175 <cap+0x2>
    2b3e:	50 91 76 01 	lds	r21, 0x0176	; 0x800176 <cap+0x3>
    2b42:	c0 91 85 01 	lds	r28, 0x0185	; 0x800185 <cap+0x12>
   while (cap.cval > 100000) {
      cap.cval /= 10;
    2b46:	8a e0       	ldi	r24, 0x0A	; 10
    2b48:	c8 2e       	mov	r12, r24
    2b4a:	d1 2c       	mov	r13, r1
    2b4c:	e1 2c       	mov	r14, r1
    2b4e:	f1 2c       	mov	r15, r1
    2b50:	8c 2f       	mov	r24, r28
    2b52:	cf 5f       	subi	r28, 0xFF	; 255
  return;
 } // end ReadCapacity()


void Scale_C_with_vcc(void) {
   while (cap.cval > 100000) {
    2b54:	21 3a       	cpi	r18, 0xA1	; 161
    2b56:	96 e8       	ldi	r25, 0x86	; 134
    2b58:	39 07       	cpc	r19, r25
    2b5a:	91 e0       	ldi	r25, 0x01	; 1
    2b5c:	49 07       	cpc	r20, r25
    2b5e:	51 05       	cpc	r21, r1
    2b60:	38 f0       	brcs	.+14     	; 0x2b70 <Scale_C_with_vcc+0x48>
      cap.cval /= 10;
    2b62:	ca 01       	movw	r24, r20
    2b64:	b9 01       	movw	r22, r18
    2b66:	a7 01       	movw	r20, r14
    2b68:	96 01       	movw	r18, r12
    2b6a:	0e 94 e0 32 	call	0x65c0	; 0x65c0 <__udivmodsi4>
    2b6e:	f0 cf       	rjmp	.-32     	; 0x2b50 <Scale_C_with_vcc+0x28>
    2b70:	80 93 85 01 	sts	0x0185, r24	; 0x800185 <cap+0x12>
      cap.cpre ++;			// prevent overflow
   }
   cap.cval *= ADCconfig.U_AVCC;	// scale with measured voltage
   cap.cval /= U_VCC;			// Factors are computed for U_VCC
    2b74:	a0 91 2f 01 	lds	r26, 0x012F	; 0x80012f <ADCconfig+0x4>
    2b78:	b0 91 30 01 	lds	r27, 0x0130	; 0x800130 <ADCconfig+0x5>
    2b7c:	0e 94 33 33 	call	0x6666	; 0x6666 <__muluhisi3>
    2b80:	28 e8       	ldi	r18, 0x88	; 136
    2b82:	33 e1       	ldi	r19, 0x13	; 19
    2b84:	40 e0       	ldi	r20, 0x00	; 0
    2b86:	50 e0       	ldi	r21, 0x00	; 0
    2b88:	0e 94 e0 32 	call	0x65c0	; 0x65c0 <__udivmodsi4>
    2b8c:	20 93 73 01 	sts	0x0173, r18	; 0x800173 <cap>
    2b90:	30 93 74 01 	sts	0x0174, r19	; 0x800174 <cap+0x1>
    2b94:	40 93 75 01 	sts	0x0175, r20	; 0x800175 <cap+0x2>
    2b98:	50 93 76 01 	sts	0x0176, r21	; 0x800176 <cap+0x3>
}
    2b9c:	cf 91       	pop	r28
    2b9e:	ff 90       	pop	r15
    2ba0:	ef 90       	pop	r14
    2ba2:	df 90       	pop	r13
    2ba4:	cf 90       	pop	r12
    2ba6:	08 95       	ret

00002ba8 <ReadCapacity>:
#include <stdlib.h>
#include "Transistortester.h"


//=================================================================
void ReadCapacity(uint8_t HighPin, uint8_t LowPin) {
    2ba8:	a0 e0       	ldi	r26, 0x00	; 0
    2baa:	b0 e0       	ldi	r27, 0x00	; 0
    2bac:	ea ed       	ldi	r30, 0xDA	; 218
    2bae:	f5 e1       	ldi	r31, 0x15	; 21
    2bb0:	0c 94 ce 33 	jmp	0x679c	; 0x679c <__prologue_saves__+0xc>
     residual_voltage = ReadADC(HighPin);		// voltage before any load 
  }
#endif

#ifdef AUTO_CAL
  pin_combination = ((HighPin - TP_MIN) * 3) + LowPin - TP_MIN - 1;	// coded Pin combination for capacity zero offset
    2bb4:	98 2f       	mov	r25, r24
    2bb6:	99 0f       	add	r25, r25
    2bb8:	98 0f       	add	r25, r24
    2bba:	2f ef       	ldi	r18, 0xFF	; 255
    2bbc:	26 0f       	add	r18, r22
    2bbe:	92 0f       	add	r25, r18
    2bc0:	90 93 50 01 	sts	0x0150, r25	; 0x800150 <pin_combination>
#endif

  HiPinR_L = pgm_read_byte(&PinRLRHADCtab[HighPin - TP_MIN]);	//R_L mask for HighPin R_L load
    2bc4:	e8 2f       	mov	r30, r24
    2bc6:	f0 e0       	ldi	r31, 0x00	; 0
    2bc8:	e4 57       	subi	r30, 0x74	; 116
    2bca:	fe 4f       	sbci	r31, 0xFE	; 254
    2bcc:	14 91       	lpm	r17, Z
  LoPinR_L = pgm_read_byte(&PinRLRHADCtab[LowPin - TP_MIN]);	//R_L mask for LowPin R_L load
    2bce:	26 2f       	mov	r18, r22
    2bd0:	30 e0       	ldi	r19, 0x00	; 0
    2bd2:	f9 01       	movw	r30, r18
    2bd4:	e4 57       	subi	r30, 0x74	; 116
    2bd6:	fe 4f       	sbci	r31, 0xFE	; 254
    2bd8:	f4 90       	lpm	r15, Z
#if (((PIN_RL1 + 1) != PIN_RH1) || ((PIN_RL2 + 1) != PIN_RH2) || ((PIN_RL3 + 1) != PIN_RH3))
  HiPinR_H = pgm_read_byte((&PinRLRHADCtab[3])+HighPin-TP_MIN);	//R_H mask for HighPin R_H load
  LoADC = pgm_read_byte((&PinRLRHADCtab[6])+LowPin-TP_MIN) | TXD_MSK;
#else
  HiPinR_H = HiPinR_L + HiPinR_L;	//double for HighPin R_H load
  LoADC = pgm_read_byte((&PinRLRHADCtab[3])+LowPin-TP_MIN) | TXD_MSK;
    2bda:	f9 01       	movw	r30, r18
    2bdc:	e1 57       	subi	r30, 0x71	; 113
    2bde:	fe 4f       	sbci	r31, 0xFE	; 254
    2be0:	d4 91       	lpm	r29, Z
  lcd_testpin(LowPin);
  lcd_data('C');
  lcd_testpin(HighPin);
  lcd_space();
#endif
  if(PartFound == PART_RESISTOR) {
    2be2:	90 91 1a 01 	lds	r25, 0x011A	; 0x80011a <PartFound>
    2be6:	91 30       	cpi	r25, 0x01	; 1
    2be8:	09 f4       	brne	.+2      	; 0x2bec <ReadCapacity+0x44>
    2bea:	a1 c2       	rjmp	.+1346   	; 0x312e <ReadCapacity+0x586>
     lcd_data('R');
     wait_about2s();	/* debug delay */
#endif
     return;	//We have found a resistor already 
  }
  for (ii=0;ii<NumOfDiodes;ii++) {
    2bec:	20 91 18 01 	lds	r18, 0x0118	; 0x800118 <NumOfDiodes>
    2bf0:	a9 e8       	ldi	r26, 0x89	; 137
    2bf2:	b1 e0       	ldi	r27, 0x01	; 1
    2bf4:	fd 01       	movw	r30, r26
    2bf6:	90 e0       	ldi	r25, 0x00	; 0
    2bf8:	92 17       	cp	r25, r18
    2bfa:	91 f0       	breq	.+36     	; 0x2c20 <ReadCapacity+0x78>
     if ((diodes.Cathode[ii] == LowPin) && (diodes.Anode[ii] == HighPin) && (diodes.Voltage[ii] < 1500)) {
    2bfc:	36 81       	ldd	r19, Z+6	; 0x06
    2bfe:	63 13       	cpse	r22, r19
    2c00:	0b c0       	rjmp	.+22     	; 0x2c18 <ReadCapacity+0x70>
    2c02:	30 81       	ld	r19, Z
    2c04:	83 13       	cpse	r24, r19
    2c06:	08 c0       	rjmp	.+16     	; 0x2c18 <ReadCapacity+0x70>
    2c08:	1c 96       	adiw	r26, 0x0c	; 12
    2c0a:	4d 91       	ld	r20, X+
    2c0c:	5c 91       	ld	r21, X
    2c0e:	1d 97       	sbiw	r26, 0x0d	; 13
    2c10:	4c 3d       	cpi	r20, 0xDC	; 220
    2c12:	55 40       	sbci	r21, 0x05	; 5
    2c14:	08 f4       	brcc	.+2      	; 0x2c18 <ReadCapacity+0x70>
    2c16:	8b c2       	rjmp	.+1302   	; 0x312e <ReadCapacity+0x586>
     lcd_data('R');
     wait_about2s();	/* debug delay */
#endif
     return;	//We have found a resistor already 
  }
  for (ii=0;ii<NumOfDiodes;ii++) {
    2c18:	9f 5f       	subi	r25, 0xFF	; 255
    2c1a:	31 96       	adiw	r30, 0x01	; 1
    2c1c:	12 96       	adiw	r26, 0x02	; 2
    2c1e:	ec cf       	rjmp	.-40     	; 0x2bf8 <ReadCapacity+0x50>
    2c20:	06 2f       	mov	r16, r22
    2c22:	c8 2f       	mov	r28, r24
#if (((PIN_RL1 + 1) != PIN_RH1) || ((PIN_RL2 + 1) != PIN_RH2) || ((PIN_RL3 + 1) != PIN_RH3))
  HiPinR_H = pgm_read_byte((&PinRLRHADCtab[3])+HighPin-TP_MIN);	//R_H mask for HighPin R_H load
  LoADC = pgm_read_byte((&PinRLRHADCtab[6])+LowPin-TP_MIN) | TXD_MSK;
#else
  HiPinR_H = HiPinR_L + HiPinR_L;	//double for HighPin R_H load
  LoADC = pgm_read_byte((&PinRLRHADCtab[3])+LowPin-TP_MIN) | TXD_MSK;
    2c24:	d8 60       	ori	r29, 0x08	; 8
     }
  }
  
#if FLASHEND > 0x1fff
  unsigned int vloss;	// lost voltage after load pulse in 0.1% 
  cap.esr = 0;				// set ESR of capacitor to zero
    2c26:	10 92 80 01 	sts	0x0180, r1	; 0x800180 <cap+0xd>
    2c2a:	10 92 7f 01 	sts	0x017F, r1	; 0x80017f <cap+0xc>
  vloss = 0;				// set lost voltage to zero
#endif
  cap.cpre = -15;			// mark for no cap
    2c2e:	81 ef       	ldi	r24, 0xF1	; 241
    2c30:	80 93 85 01 	sts	0x0185, r24	; 0x800185 <cap+0x12>
  cap.cval = 0;				// set capacity value to zero
    2c34:	10 92 73 01 	sts	0x0173, r1	; 0x800173 <cap>
    2c38:	10 92 74 01 	sts	0x0174, r1	; 0x800174 <cap+0x1>
    2c3c:	10 92 75 01 	sts	0x0175, r1	; 0x800175 <cap+0x2>
    2c40:	10 92 76 01 	sts	0x0176, r1	; 0x800176 <cap+0x3>
  EntladePins();			// discharge capacitor
    2c44:	e1 de       	rcall	.-574    	; 0x2a08 <EntladePins>
  ADC_PORT = TXD_VAL;			// switch ADC-Port to GND
    2c46:	88 e0       	ldi	r24, 0x08	; 8
    2c48:	88 b9       	out	0x08, r24	; 8
// The polarity of residual voltage of the capacitor depends on the measurement
// history. For the normal test cycle the residual voltage is negative
// at the HighPin. Because the ADC can not measure a negative Voltage,
// the LowPin voltage is shifted to 139mV with the R_L resistor.
// The voltage of the capacitor is build as difference between HighPin and LowPin voltage.
  ADC_DDR = LoADC;			// switch Low-Pin to output (GND)
    2c4a:	d7 b9       	out	0x07, r29	; 7
  R_DDR = LoPinR_L;			// switch R_L Port of LoPin to VCC
    2c4c:	f4 b8       	out	0x04, r15	; 4
  R_PORT = LoPinR_L;			// switch R_L Port of LoPin to VCC
    2c4e:	f5 b8       	out	0x05, r15	; 5
  residual_voltage = ReadADC(HighPin) - ReadADC(LowPin); // voltage at HighPin before any load 
    2c50:	8c 2f       	mov	r24, r28
    2c52:	0e 94 7f 05 	call	0xafe	; 0xafe <ReadADC>
    2c56:	5c 01       	movw	r10, r24
    2c58:	80 2f       	mov	r24, r16
    2c5a:	0e 94 7f 05 	call	0xafe	; 0xafe <ReadADC>
    2c5e:	a8 1a       	sub	r10, r24
    2c60:	b9 0a       	sbc	r11, r25
  R_DDR = 0;				// switch all R_L ports to input
    2c62:	14 b8       	out	0x04, r1	; 4
  cap_voltage1 = 0;			// preset to prevent compiler warning
#define MAX_LOAD_TIME 500
#define MIN_VOLTAGE 300
  for (ovcnt16=0;ovcnt16<MAX_LOAD_TIME;ovcnt16++) {
    2c64:	10 92 52 01 	sts	0x0152, r1	; 0x800152 <ovcnt16+0x1>
    2c68:	10 92 51 01 	sts	0x0151, r1	; 0x800151 <ovcnt16>
    2c6c:	80 91 51 01 	lds	r24, 0x0151	; 0x800151 <ovcnt16>
    2c70:	90 91 52 01 	lds	r25, 0x0152	; 0x800152 <ovcnt16+0x1>
    2c74:	84 3f       	cpi	r24, 0xF4	; 244
    2c76:	91 40       	sbci	r25, 0x01	; 1
    2c78:	08 f0       	brcs	.+2      	; 0x2c7c <ReadCapacity+0xd4>
    2c7a:	aa c0       	rjmp	.+340    	; 0x2dd0 <ReadCapacity+0x228>
     R_PORT = HiPinR_L;			//R_L to 1 (VCC) 
    2c7c:	15 b9       	out	0x05, r17	; 5
     R_DDR = HiPinR_L;			//switch Pin to output, across R to GND or VCC
    2c7e:	14 b9       	out	0x04, r17	; 4
     wait10ms();			// wait exactly 10ms, do not sleep
    2c80:	0e 94 2f 05 	call	0xa5e	; 0xa5e <wait10ms>
     R_DDR = 0;				// switch back to input
    2c84:	14 b8       	out	0x04, r1	; 4
     R_PORT = 0;			// no Pull up
    2c86:	15 b8       	out	0x05, r1	; 5
     wait500us();			//wait a little time
    2c88:	0e 94 36 05 	call	0xa6c	; 0xa6c <wait500us>
     wdt_reset();
    2c8c:	a8 95       	wdr
        // apparently very small capacitance, if it charges so quickly
        goto messe_mit_rh;
     }
     cap_voltage1 -= residual_voltage; // voltage across capacitor
#else
     cap_voltage1 = ReadADC(HighPin) - residual_voltage; // voltage of capacitor
    2c8e:	8c 2f       	mov	r24, r28
    2c90:	0e 94 7f 05 	call	0xafe	; 0xafe <ReadADC>
    2c94:	7c 01       	movw	r14, r24
    2c96:	ea 18       	sub	r14, r10
    2c98:	fb 08       	sbc	r15, r11
#endif
     if ((ovcnt16 > (MAX_LOAD_TIME/4)) && (cap_voltage1 < (MIN_VOLTAGE/4))) {
    2c9a:	80 91 51 01 	lds	r24, 0x0151	; 0x800151 <ovcnt16>
    2c9e:	90 91 52 01 	lds	r25, 0x0152	; 0x800152 <ovcnt16+0x1>
    2ca2:	8e 37       	cpi	r24, 0x7E	; 126
    2ca4:	91 05       	cpc	r25, r1
    2ca6:	28 f0       	brcs	.+10     	; 0x2cb2 <ReadCapacity+0x10a>
    2ca8:	8b e4       	ldi	r24, 0x4B	; 75
    2caa:	e8 16       	cp	r14, r24
    2cac:	f1 04       	cpc	r15, r1
    2cae:	0c f4       	brge	.+2      	; 0x2cb2 <ReadCapacity+0x10a>
    2cb0:	8f c0       	rjmp	.+286    	; 0x2dd0 <ReadCapacity+0x228>
#endif
//     if (NumOfDiodes != 0) goto messe_mit_rh; /* ****************************** */
     goto keinC;		// was never charged enough, >100mF or shorted
  }
  //voltage is rised properly and keeps the voltage enough
  if ((ovcnt16 == 0 ) && (cap_voltage1 > 1300)) {
    2cb2:	80 91 51 01 	lds	r24, 0x0151	; 0x800151 <ovcnt16>
    2cb6:	90 91 52 01 	lds	r25, 0x0152	; 0x800152 <ovcnt16+0x1>
     if ((ovcnt16 > (MAX_LOAD_TIME/4)) && (cap_voltage1 < (MIN_VOLTAGE/4))) {
        // 300mV can not be reached well-timed 
        break;		// don't try to load any more
     }
     // probably 100mF can be charged well-timed 
     if (cap_voltage1 > MIN_VOLTAGE) {
    2cba:	2d e2       	ldi	r18, 0x2D	; 45
    2cbc:	e2 16       	cp	r14, r18
    2cbe:	21 e0       	ldi	r18, 0x01	; 1
    2cc0:	f2 06       	cpc	r15, r18
    2cc2:	34 f4       	brge	.+12     	; 0x2cd0 <ReadCapacity+0x128>
  residual_voltage = ReadADC(HighPin) - ReadADC(LowPin); // voltage at HighPin before any load 
  R_DDR = 0;				// switch all R_L ports to input
  cap_voltage1 = 0;			// preset to prevent compiler warning
#define MAX_LOAD_TIME 500
#define MIN_VOLTAGE 300
  for (ovcnt16=0;ovcnt16<MAX_LOAD_TIME;ovcnt16++) {
    2cc4:	01 96       	adiw	r24, 0x01	; 1
    2cc6:	90 93 52 01 	sts	0x0152, r25	; 0x800152 <ovcnt16+0x1>
    2cca:	80 93 51 01 	sts	0x0151, r24	; 0x800151 <ovcnt16>
    2cce:	ce cf       	rjmp	.-100    	; 0x2c6c <ReadCapacity+0xc4>
#endif
//     if (NumOfDiodes != 0) goto messe_mit_rh; /* ****************************** */
     goto keinC;		// was never charged enough, >100mF or shorted
  }
  //voltage is rised properly and keeps the voltage enough
  if ((ovcnt16 == 0 ) && (cap_voltage1 > 1300)) {
    2cd0:	89 2b       	or	r24, r25
    2cd2:	09 f0       	breq	.+2      	; 0x2cd6 <ReadCapacity+0x12e>
    2cd4:	a4 c1       	rjmp	.+840    	; 0x301e <ReadCapacity+0x476>
    2cd6:	85 e1       	ldi	r24, 0x15	; 21
    2cd8:	e8 16       	cp	r14, r24
    2cda:	85 e0       	ldi	r24, 0x05	; 5
    2cdc:	f8 06       	cpc	r15, r24
    2cde:	0c f4       	brge	.+2      	; 0x2ce2 <ReadCapacity+0x13a>

//==================================================================================
// Measurement of little capacity values
messe_mit_rh:
  //little capacity value, about  < 50 µF
  EntladePins();			// discharge capacitor
    2ce0:	9e c1       	rjmp	.+828    	; 0x301e <ReadCapacity+0x476>
    2ce2:	92 de       	rcall	.-732    	; 0x2a08 <EntladePins>
  //measure with the R_H (470kOhm) resistor 
  R_PORT = 0;		// R_DDR ist HiPinR_L
    2ce4:	15 b8       	out	0x05, r1	; 5
  ADC_DDR = (1<<TP1) | (1<<TP2) | (1<<TP3) | TXD_MSK;	//switch all Pins to output
    2ce6:	8f e0       	ldi	r24, 0x0F	; 15
    2ce8:	87 b9       	out	0x07, r24	; 7
  ADC_PORT = TXD_VAL;		//switch all ADC Pins to GND
    2cea:	88 e0       	ldi	r24, 0x08	; 8
    2cec:	88 b9       	out	0x08, r24	; 8
  R_DDR = HiPinR_H;   		// switch R_H resistor port for HighPin to output (GND)
    2cee:	f1 2e       	mov	r15, r17
    2cf0:	ff 0c       	add	r15, r15
    2cf2:	f4 b8       	out	0x04, r15	; 4
// setup Analog Comparator
  ADC_COMP_CONTROL = (1<<ACME);			//enable Analog Comparator Multiplexer
    2cf4:	80 e4       	ldi	r24, 0x40	; 64
    2cf6:	80 93 7b 00 	sts	0x007B, r24	; 0x80007b <__TEXT_REGION_LENGTH__+0x7e007b>
  ACSR =  (1<<ACBG) | (1<<ACI)  | (1<<ACIC);	// enable, 1.3V, no Interrupt, Connect to Timer1 
    2cfa:	84 e5       	ldi	r24, 0x54	; 84
    2cfc:	80 bf       	out	0x30, r24	; 48
  ADMUX = (1<<REFS0) | HighPin;			// switch Mux to High-Pin
    2cfe:	8c 2f       	mov	r24, r28
    2d00:	80 64       	ori	r24, 0x40	; 64
    2d02:	80 93 7c 00 	sts	0x007C, r24	; 0x80007c <__TEXT_REGION_LENGTH__+0x7e007c>
  ADCSRA = (1<<ADIF) | AUTO_CLOCK_DIV; //disable ADC
    2d06:	87 e1       	ldi	r24, 0x17	; 23
    2d08:	80 93 7a 00 	sts	0x007A, r24	; 0x80007a <__TEXT_REGION_LENGTH__+0x7e007a>
  wait200us();			//wait for bandgap to start up
    2d0c:	0e 94 39 05 	call	0xa72	; 0xa72 <wait200us>

// setup Counter1
  ovcnt16 = 0;
    2d10:	10 92 52 01 	sts	0x0152, r1	; 0x800152 <ovcnt16+0x1>
    2d14:	10 92 51 01 	sts	0x0151, r1	; 0x800151 <ovcnt16>
  TCCR1A = 0;			// set Counter1 to normal Mode
    2d18:	10 92 80 00 	sts	0x0080, r1	; 0x800080 <__TEXT_REGION_LENGTH__+0x7e0080>
  TCNT1 = 0;			//set Counter to 0
    2d1c:	10 92 85 00 	sts	0x0085, r1	; 0x800085 <__TEXT_REGION_LENGTH__+0x7e0085>
    2d20:	10 92 84 00 	sts	0x0084, r1	; 0x800084 <__TEXT_REGION_LENGTH__+0x7e0084>
  TI1_INT_FLAGS = (1<<ICF1) | (1<<OCF1B) | (1<<OCF1A) | (1<<TOV1);	// clear interrupt flags
    2d24:	87 e2       	ldi	r24, 0x27	; 39
    2d26:	86 bb       	out	0x16, r24	; 22
#ifndef INHIBIT_SLEEP_MODE
  TIMSK1 = (1<<TOIE1) | (1<<ICIE1);	// enable Timer overflow interrupt and input capture interrupt
    2d28:	81 e2       	ldi	r24, 0x21	; 33
    2d2a:	80 93 6f 00 	sts	0x006F, r24	; 0x80006f <__TEXT_REGION_LENGTH__+0x7e006f>
  unfinished = 1;
    2d2e:	81 e0       	ldi	r24, 0x01	; 1
    2d30:	80 93 70 01 	sts	0x0170, r24	; 0x800170 <unfinished>
#endif
  R_PORT = HiPinR_H;           	// switch R_H resistor port for HighPin to VCC
    2d34:	f5 b8       	out	0x05, r15	; 5
  if(PartFound == PART_FET) {
    2d36:	90 91 1a 01 	lds	r25, 0x011A	; 0x80011a <PartFound>
     // charge capacitor with R_H resistor
     TCCR1B = (0<<ICNC1) | (1<<CS10);	//Start counter 1MHz or 8MHz without Noise Canceler
    2d3a:	80 93 81 00 	sts	0x0081, r24	; 0x800081 <__TEXT_REGION_LENGTH__+0x7e0081>
#ifndef INHIBIT_SLEEP_MODE
  TIMSK1 = (1<<TOIE1) | (1<<ICIE1);	// enable Timer overflow interrupt and input capture interrupt
  unfinished = 1;
#endif
  R_PORT = HiPinR_H;           	// switch R_H resistor port for HighPin to VCC
  if(PartFound == PART_FET) {
    2d3e:	95 30       	cpi	r25, 0x05	; 5
    2d40:	09 f0       	breq	.+2      	; 0x2d44 <ReadCapacity+0x19c>
    2d42:	4c c0       	rjmp	.+152    	; 0x2ddc <ReadCapacity+0x234>
     // charge capacitor with R_H resistor
     TCCR1B = (0<<ICNC1) | (1<<CS10);	//Start counter 1MHz or 8MHz without Noise Canceler
     ADC_DDR = (((1<<TP1) | (1<<TP2) | (1<<TP3) | TXD_MSK) & ~(1<<HighPin));	// release only HighPin ADC port
    2d44:	81 e0       	ldi	r24, 0x01	; 1
    2d46:	90 e0       	ldi	r25, 0x00	; 0
    2d48:	0c 2e       	mov	r0, r28
    2d4a:	01 c0       	rjmp	.+2      	; 0x2d4e <ReadCapacity+0x1a6>
    2d4c:	88 0f       	add	r24, r24
    2d4e:	0a 94       	dec	r0
    2d50:	ea f7       	brpl	.-6      	; 0x2d4c <ReadCapacity+0x1a4>
    2d52:	80 95       	com	r24
    2d54:	8f 70       	andi	r24, 0x0F	; 15
    2d56:	87 b9       	out	0x07, r24	; 7
     // this OV was not counted, but was before the Input Capture
     TI1_INT_FLAGS = (1<<TOV1);		// Reset OV Flag
     ovcnt16++;
  }
#else
  cli();		// disable interrupts to prevent wakeup Interrupts before sleeping
    2d58:	f8 94       	cli
  set_sleep_mode(SLEEP_MODE_IDLE);
    2d5a:	83 b7       	in	r24, 0x33	; 51
    2d5c:	81 7f       	andi	r24, 0xF1	; 241
    2d5e:	83 bf       	out	0x33, r24	; 51
  while(unfinished) {
    2d60:	80 91 70 01 	lds	r24, 0x0170	; 0x800170 <unfinished>
    2d64:	88 23       	and	r24, r24
    2d66:	89 f0       	breq	.+34     	; 0x2d8a <ReadCapacity+0x1e2>
    sleep_enable();
    2d68:	83 b7       	in	r24, 0x33	; 51
    2d6a:	81 60       	ori	r24, 0x01	; 1
    2d6c:	83 bf       	out	0x33, r24	; 51
    sei();		// enable interrupts after next instruction
    2d6e:	78 94       	sei
    sleep_cpu();	// only enable interrupts during sleeping
    2d70:	88 95       	sleep
    sleep_disable();
    2d72:	83 b7       	in	r24, 0x33	; 51
    2d74:	8e 7f       	andi	r24, 0xFE	; 254
    2d76:	83 bf       	out	0x33, r24	; 51
    cli();		// disable interrupts again
    2d78:	f8 94       	cli
    wdt_reset();	// reset watch dog during waiting
    2d7a:	a8 95       	wdr
    if(ovcnt16 == (F_CPU/5000)) {
    2d7c:	80 91 51 01 	lds	r24, 0x0151	; 0x800151 <ovcnt16>
    2d80:	90 91 52 01 	lds	r25, 0x0152	; 0x800152 <ovcnt16+0x1>
    2d84:	80 38       	cpi	r24, 0x80	; 128
    2d86:	9c 40       	sbci	r25, 0x0C	; 12
    2d88:	59 f7       	brne	.-42     	; 0x2d60 <ReadCapacity+0x1b8>
       break; 		//Timeout for Charging, above 12 s
    }
  }
  sei();		// enable interrupts again
    2d8a:	78 94       	sei
  TCCR1B = (0<<ICNC1) | (0<<ICES1) | (0<<CS10);  // stop counter
    2d8c:	10 92 81 00 	sts	0x0081, r1	; 0x800081 <__TEXT_REGION_LENGTH__+0x7e0081>
  tmpint = ICR1;		// get previous Input Capture Counter flag
    2d90:	e0 90 86 00 	lds	r14, 0x0086	; 0x800086 <__TEXT_REGION_LENGTH__+0x7e0086>
    2d94:	f0 90 87 00 	lds	r15, 0x0087	; 0x800087 <__TEXT_REGION_LENGTH__+0x7e0087>
  TIMSK1 = (0<<TOIE1) | (0<<ICIE1);	// disable Timer overflow interrupt and input capture interrupt
    2d98:	10 92 6f 00 	sts	0x006F, r1	; 0x80006f <__TEXT_REGION_LENGTH__+0x7e006f>
    u2lcd(tmpint);
  }
#endif

//############################################################
  ADCSRA = (1<<ADEN) | (1<<ADIF) | AUTO_CLOCK_DIV; //enable ADC
    2d9c:	87 e9       	ldi	r24, 0x97	; 151
    2d9e:	80 93 7a 00 	sts	0x007A, r24	; 0x80007a <__TEXT_REGION_LENGTH__+0x7e007a>
  R_DDR = 0;			// switch R_H resistor port for input
    2da2:	14 b8       	out	0x04, r1	; 4
  R_PORT = 0;			// switch R_H resistor port pull up for HighPin off
    2da4:	15 b8       	out	0x05, r1	; 5
  load_diff = ReadADC(HighPin) + REF_C_KORR - ref_mv;	// build difference of capacitor voltage to Reference Voltage
    2da6:	8c 2f       	mov	r24, r28
    2da8:	0e 94 7f 05 	call	0xafe	; 0xafe <ReadADC>
    2dac:	20 91 33 01 	lds	r18, 0x0133	; 0x800133 <ref_mv>
    2db0:	30 91 34 01 	lds	r19, 0x0134	; 0x800134 <ref_mv+0x1>
    2db4:	82 1b       	sub	r24, r18
    2db6:	93 0b       	sbc	r25, r19
    2db8:	0c 96       	adiw	r24, 0x0c	; 12
    2dba:	90 93 88 01 	sts	0x0188, r25	; 0x800188 <load_diff+0x1>
    2dbe:	80 93 87 01 	sts	0x0187, r24	; 0x800187 <load_diff>
//############################################################
  if (ovcnt16 >= (F_CPU/10000)) {
    2dc2:	80 91 51 01 	lds	r24, 0x0151	; 0x800151 <ovcnt16>
    2dc6:	90 91 52 01 	lds	r25, 0x0152	; 0x800152 <ovcnt16+0x1>
    2dca:	80 34       	cpi	r24, 0x40	; 64
    2dcc:	96 40       	sbci	r25, 0x06	; 6
    2dce:	40 f0       	brcs	.+16     	; 0x2de0 <ReadCapacity+0x238>
keinC:
  // discharge capacitor again
//  EntladePins();		// discharge capacitors
  //ready
  // switch all ports to input
  ADC_DDR =  TXD_MSK;		// switch all ADC ports to input
    2dd0:	88 e0       	ldi	r24, 0x08	; 8
    2dd2:	87 b9       	out	0x07, r24	; 7
  ADC_PORT = TXD_VAL;		// switch all ADC outputs to GND, no pull up
    2dd4:	88 b9       	out	0x08, r24	; 8
  R_DDR = 0;			// switch all resistor ports to input
    2dd6:	14 b8       	out	0x04, r1	; 4
  R_PORT = 0; 			// switch all resistor outputs to GND, no pull up
    2dd8:	15 b8       	out	0x05, r1	; 5
  return;
    2dda:	a9 c1       	rjmp	.+850    	; 0x312e <ReadCapacity+0x586>
     // charge capacitor with R_H resistor
     TCCR1B = (0<<ICNC1) | (1<<CS10);	//Start counter 1MHz or 8MHz without Noise Canceler
     ADC_DDR = (((1<<TP1) | (1<<TP2) | (1<<TP3) | TXD_MSK) & ~(1<<HighPin));	// release only HighPin ADC port
  } else {
     TCCR1B =  (0<<ICNC1) | (1<<CS10);	//start counter 1MHz or 8MHz without Noise Canceler
     ADC_DDR = LoADC;		// stay LoADC Pin switched to GND, charge capacitor with R_H slowly
    2ddc:	d7 b9       	out	0x07, r29	; 7
    2dde:	bc cf       	rjmp	.-136    	; 0x2d58 <ReadCapacity+0x1b0>
     wait_about1s();	/* debug delay */
#endif
     goto keinC;	// no normal end
  }
//  cap.cval_uncorrected = CombineII2Long(ovcnt16, tmpint);
  cap.cval_uncorrected.w[1] = ovcnt16;
    2de0:	80 91 51 01 	lds	r24, 0x0151	; 0x800151 <ovcnt16>
    2de4:	90 91 52 01 	lds	r25, 0x0152	; 0x800152 <ovcnt16+0x1>
    2de8:	90 93 7e 01 	sts	0x017E, r25	; 0x80017e <cap+0xb>
    2dec:	80 93 7d 01 	sts	0x017D, r24	; 0x80017d <cap+0xa>
  cap.cval_uncorrected.w[0] = tmpint;
    2df0:	f0 92 7c 01 	sts	0x017C, r15	; 0x80017c <cap+0x9>
    2df4:	e0 92 7b 01 	sts	0x017B, r14	; 0x80017b <cap+0x8>

  cap.cpre = -12;			// cap.cval unit is pF 
    2df8:	84 ef       	ldi	r24, 0xF4	; 244
    2dfa:	80 93 85 01 	sts	0x0185, r24	; 0x800185 <cap+0x12>
  if (ovcnt16 > 65) {
    2dfe:	80 91 51 01 	lds	r24, 0x0151	; 0x800151 <ovcnt16>
    2e02:	90 91 52 01 	lds	r25, 0x0152	; 0x800152 <ovcnt16+0x1>
    2e06:	82 34       	cpi	r24, 0x42	; 66
    2e08:	91 05       	cpc	r25, r1
    2e0a:	c8 f0       	brcs	.+50     	; 0x2e3e <ReadCapacity+0x296>
     cap.cval_uncorrected.dw /= 100;	// switch to next unit
    2e0c:	60 91 7b 01 	lds	r22, 0x017B	; 0x80017b <cap+0x8>
    2e10:	70 91 7c 01 	lds	r23, 0x017C	; 0x80017c <cap+0x9>
    2e14:	80 91 7d 01 	lds	r24, 0x017D	; 0x80017d <cap+0xa>
    2e18:	90 91 7e 01 	lds	r25, 0x017E	; 0x80017e <cap+0xb>
    2e1c:	24 e6       	ldi	r18, 0x64	; 100
    2e1e:	30 e0       	ldi	r19, 0x00	; 0
    2e20:	40 e0       	ldi	r20, 0x00	; 0
    2e22:	50 e0       	ldi	r21, 0x00	; 0
    2e24:	0e 94 e0 32 	call	0x65c0	; 0x65c0 <__udivmodsi4>
    2e28:	20 93 7b 01 	sts	0x017B, r18	; 0x80017b <cap+0x8>
    2e2c:	30 93 7c 01 	sts	0x017C, r19	; 0x80017c <cap+0x9>
    2e30:	40 93 7d 01 	sts	0x017D, r20	; 0x80017d <cap+0xa>
    2e34:	50 93 7e 01 	sts	0x017E, r21	; 0x80017e <cap+0xb>
     cap.cpre += 2;			// set unit, prevent overflow
    2e38:	86 ef       	ldi	r24, 0xF6	; 246
    2e3a:	80 93 85 01 	sts	0x0185, r24	; 0x800185 <cap+0x12>
  }
  cap.cval_uncorrected.dw *= RHmultip;		// 708
  cap.cval_uncorrected.dw /= (F_CPU / 10000);	// divide by 100 (@ 1MHz clock), 800 (@ 8MHz clock)
    2e3e:	a0 91 71 01 	lds	r26, 0x0171	; 0x800171 <RHmultip>
    2e42:	b0 91 72 01 	lds	r27, 0x0172	; 0x800172 <RHmultip+0x1>
    2e46:	20 91 7b 01 	lds	r18, 0x017B	; 0x80017b <cap+0x8>
    2e4a:	30 91 7c 01 	lds	r19, 0x017C	; 0x80017c <cap+0x9>
    2e4e:	40 91 7d 01 	lds	r20, 0x017D	; 0x80017d <cap+0xa>
    2e52:	50 91 7e 01 	lds	r21, 0x017E	; 0x80017e <cap+0xb>
    2e56:	0e 94 33 33 	call	0x6666	; 0x6666 <__muluhisi3>
    2e5a:	20 e4       	ldi	r18, 0x40	; 64
    2e5c:	36 e0       	ldi	r19, 0x06	; 6
    2e5e:	40 e0       	ldi	r20, 0x00	; 0
    2e60:	50 e0       	ldi	r21, 0x00	; 0
    2e62:	0e 94 e0 32 	call	0x65c0	; 0x65c0 <__udivmodsi4>
    2e66:	20 93 7b 01 	sts	0x017B, r18	; 0x80017b <cap+0x8>
    2e6a:	30 93 7c 01 	sts	0x017C, r19	; 0x80017c <cap+0x9>
    2e6e:	40 93 7d 01 	sts	0x017D, r20	; 0x80017d <cap+0xa>
    2e72:	50 93 7e 01 	sts	0x017E, r21	; 0x80017e <cap+0xb>
  cap.cval = cap.cval_uncorrected.dw;		// set the corrected cap.cval
    2e76:	20 93 73 01 	sts	0x0173, r18	; 0x800173 <cap>
    2e7a:	30 93 74 01 	sts	0x0174, r19	; 0x800174 <cap+0x1>
    2e7e:	40 93 75 01 	sts	0x0175, r20	; 0x800175 <cap+0x2>
    2e82:	50 93 76 01 	sts	0x0176, r21	; 0x800176 <cap+0x3>
  Scale_C_with_vcc();
    2e86:	50 de       	rcall	.-864    	; 0x2b28 <Scale_C_with_vcc>
  if (cap.cpre == -12) {
    2e88:	80 91 85 01 	lds	r24, 0x0185	; 0x800185 <cap+0x12>
    2e8c:	84 3f       	cpi	r24, 0xF4	; 244
    2e8e:	09 f0       	breq	.+2      	; 0x2e92 <ReadCapacity+0x2ea>
    2e90:	71 c0       	rjmp	.+226    	; 0x2f74 <ReadCapacity+0x3cc>
#if COMP_SLEW1 > COMP_SLEW2
     if (cap.cval < COMP_SLEW1) {
    2e92:	c0 90 73 01 	lds	r12, 0x0173	; 0x800173 <cap>
    2e96:	d0 90 74 01 	lds	r13, 0x0174	; 0x800174 <cap+0x1>
    2e9a:	e0 90 75 01 	lds	r14, 0x0175	; 0x800175 <cap+0x2>
    2e9e:	f0 90 76 01 	lds	r15, 0x0176	; 0x800176 <cap+0x3>
    2ea2:	80 ea       	ldi	r24, 0xA0	; 160
    2ea4:	c8 16       	cp	r12, r24
    2ea6:	8f e0       	ldi	r24, 0x0F	; 15
    2ea8:	d8 06       	cpc	r13, r24
    2eaa:	e1 04       	cpc	r14, r1
    2eac:	f1 04       	cpc	r15, r1
    2eae:	c0 f4       	brcc	.+48     	; 0x2ee0 <ReadCapacity+0x338>
        // add slew rate dependent offset
        cap.cval += (COMP_SLEW1 / (cap.cval+COMP_SLEW2 ));
    2eb0:	a7 01       	movw	r20, r14
    2eb2:	96 01       	movw	r18, r12
    2eb4:	2c 54       	subi	r18, 0x4C	; 76
    2eb6:	3f 4f       	sbci	r19, 0xFF	; 255
    2eb8:	4f 4f       	sbci	r20, 0xFF	; 255
    2eba:	5f 4f       	sbci	r21, 0xFF	; 255
    2ebc:	60 ea       	ldi	r22, 0xA0	; 160
    2ebe:	7f e0       	ldi	r23, 0x0F	; 15
    2ec0:	80 e0       	ldi	r24, 0x00	; 0
    2ec2:	90 e0       	ldi	r25, 0x00	; 0
    2ec4:	0e 94 e0 32 	call	0x65c0	; 0x65c0 <__udivmodsi4>
    2ec8:	c2 0e       	add	r12, r18
    2eca:	d3 1e       	adc	r13, r19
    2ecc:	e4 1e       	adc	r14, r20
    2ece:	f5 1e       	adc	r15, r21
    2ed0:	c0 92 73 01 	sts	0x0173, r12	; 0x800173 <cap>
    2ed4:	d0 92 74 01 	sts	0x0174, r13	; 0x800174 <cap+0x1>
    2ed8:	e0 92 75 01 	sts	0x0175, r14	; 0x800175 <cap+0x2>
    2edc:	f0 92 76 01 	sts	0x0176, r15	; 0x800176 <cap+0x3>
     }
#endif
#ifdef SamplingADC
     // store as reference for inductance measurement
     // note that we store this before subtracting cap_null, since for inductance measurement that cap. also contributes
     if ( cap.cval < 65536) lc_cpartmp=cap.cval; /* prevent wrong value */
    2ee0:	c0 90 73 01 	lds	r12, 0x0173	; 0x800173 <cap>
    2ee4:	d0 90 74 01 	lds	r13, 0x0174	; 0x800174 <cap+0x1>
    2ee8:	e0 90 75 01 	lds	r14, 0x0175	; 0x800175 <cap+0x2>
    2eec:	f0 90 76 01 	lds	r15, 0x0176	; 0x800176 <cap+0x3>
    2ef0:	c1 14       	cp	r12, r1
    2ef2:	d1 04       	cpc	r13, r1
    2ef4:	21 e0       	ldi	r18, 0x01	; 1
    2ef6:	e2 06       	cpc	r14, r18
    2ef8:	f1 04       	cpc	r15, r1
    2efa:	28 f4       	brcc	.+10     	; 0x2f06 <ReadCapacity+0x35e>
    2efc:	d0 92 b3 01 	sts	0x01B3, r13	; 0x8001b3 <lc_cpartmp+0x1>
    2f00:	c0 92 b2 01 	sts	0x01B2, r12	; 0x8001b2 <lc_cpartmp>
    2f04:	06 c0       	rjmp	.+12     	; 0x2f12 <ReadCapacity+0x36a>
     else                   lc_cpartmp = 1;	/* set to 1pF, if too big */
    2f06:	81 e0       	ldi	r24, 0x01	; 1
    2f08:	90 e0       	ldi	r25, 0x00	; 0
    2f0a:	90 93 b3 01 	sts	0x01B3, r25	; 0x8001b3 <lc_cpartmp+0x1>
    2f0e:	80 93 b2 01 	sts	0x01B2, r24	; 0x8001b2 <lc_cpartmp>
#endif /* SamplingADC */
#ifdef AUTO_CAL
     // auto calibration mode, cap_null can be updated in selftest section
     tmpint = eeprom_read_byte(&c_zero_tab[pin_combination]);	// read zero offset
    2f12:	80 91 50 01 	lds	r24, 0x0150	; 0x800150 <pin_combination>
    2f16:	90 e0       	ldi	r25, 0x00	; 0
    2f18:	8c 5d       	subi	r24, 0xDC	; 220
    2f1a:	9c 4f       	sbci	r25, 0xFC	; 252
    2f1c:	0e 94 5b 34 	call	0x68b6	; 0x68b6 <eeprom_read_byte>
     if (cap.cval > tmpint) {
    2f20:	90 e0       	ldi	r25, 0x00	; 0
    2f22:	a0 e0       	ldi	r26, 0x00	; 0
    2f24:	b0 e0       	ldi	r27, 0x00	; 0
         cap.cval -= tmpint;		//subtract zero offset (pF)
    2f26:	b7 01       	movw	r22, r14
    2f28:	a6 01       	movw	r20, r12
     else                   lc_cpartmp = 1;	/* set to 1pF, if too big */
#endif /* SamplingADC */
#ifdef AUTO_CAL
     // auto calibration mode, cap_null can be updated in selftest section
     tmpint = eeprom_read_byte(&c_zero_tab[pin_combination]);	// read zero offset
     if (cap.cval > tmpint) {
    2f2a:	8c 15       	cp	r24, r12
    2f2c:	9d 05       	cpc	r25, r13
    2f2e:	ae 05       	cpc	r26, r14
    2f30:	bf 05       	cpc	r27, r15
    2f32:	68 f4       	brcc	.+26     	; 0x2f4e <ReadCapacity+0x3a6>
         cap.cval -= tmpint;		//subtract zero offset (pF)
    2f34:	48 1b       	sub	r20, r24
    2f36:	59 0b       	sbc	r21, r25
    2f38:	6a 0b       	sbc	r22, r26
    2f3a:	7b 0b       	sbc	r23, r27
    2f3c:	40 93 73 01 	sts	0x0173, r20	; 0x800173 <cap>
    2f40:	50 93 74 01 	sts	0x0174, r21	; 0x800174 <cap+0x1>
    2f44:	60 93 75 01 	sts	0x0175, r22	; 0x800175 <cap+0x2>
    2f48:	70 93 76 01 	sts	0x0176, r23	; 0x800176 <cap+0x3>
    2f4c:	13 c0       	rjmp	.+38     	; 0x2f74 <ReadCapacity+0x3cc>
     } else {
 #if FLASHEND > 0x3fff
       if ((cap.cval+C_LIMIT_TO_UNCALIBRATED) < tmpint) {
    2f4e:	4c 5e       	subi	r20, 0xEC	; 236
    2f50:	5f 4f       	sbci	r21, 0xFF	; 255
    2f52:	6f 4f       	sbci	r22, 0xFF	; 255
    2f54:	7f 4f       	sbci	r23, 0xFF	; 255
    2f56:	48 17       	cp	r20, r24
    2f58:	59 07       	cpc	r21, r25
    2f5a:	6a 07       	cpc	r22, r26
    2f5c:	7b 07       	cpc	r23, r27
    2f5e:	10 f4       	brcc	.+4      	; 0x2f64 <ReadCapacity+0x3bc>
         mark_as_uncalibrated();	// set in EEprom to uncalibrated
    2f60:	0e 94 ff 0a 	call	0x15fe	; 0x15fe <mark_as_uncalibrated>
         lcd_testpin(HighPin);
         lcd_space();
  #endif
       }
 #endif
         cap.cval = 0;			//unsigned long may not reach negativ value
    2f64:	10 92 73 01 	sts	0x0173, r1	; 0x800173 <cap>
    2f68:	10 92 74 01 	sts	0x0174, r1	; 0x800174 <cap+0x1>
    2f6c:	10 92 75 01 	sts	0x0175, r1	; 0x800175 <cap+0x2>
    2f70:	10 92 76 01 	sts	0x0176, r1	; 0x800176 <cap+0x3>
  lcd_testpin(HighPin);
  lcd_space();
  DisplayValue(cap.cval,cap.cpre,'F',4);
  wait_about3s();	/* debug delay */
#endif
  R_DDR = HiPinR_L; 		//switch R_L for High-Pin to GND
    2f74:	14 b9       	out	0x04, r17	; 4
#if F_CPU < 2000001
   if(cap.cval < 50)
#else 
   if(cap.cval < 25)
    2f76:	80 91 73 01 	lds	r24, 0x0173	; 0x800173 <cap>
    2f7a:	90 91 74 01 	lds	r25, 0x0174	; 0x800174 <cap+0x1>
    2f7e:	a0 91 75 01 	lds	r26, 0x0175	; 0x800175 <cap+0x2>
    2f82:	b0 91 76 01 	lds	r27, 0x0176	; 0x800176 <cap+0x3>
    2f86:	49 97       	sbiw	r24, 0x19	; 25
    2f88:	a1 05       	cpc	r26, r1
    2f8a:	b1 05       	cpc	r27, r1
    2f8c:	08 f4       	brcc	.+2      	; 0x2f90 <ReadCapacity+0x3e8>
    2f8e:	20 cf       	rjmp	.-448    	; 0x2dd0 <ReadCapacity+0x228>
  }
  
#if FLASHEND > 0x1fff
  unsigned int vloss;	// lost voltage after load pulse in 0.1% 
  cap.esr = 0;				// set ESR of capacitor to zero
  vloss = 0;				// set lost voltage to zero
    2f90:	c1 2c       	mov	r12, r1
    2f92:	d1 2c       	mov	r13, r1
#endif
      goto keinC;	//capacity to low, < 50pF @1MHz (25pF @8MHz)
   }
   // end low capacity 
checkDiodes:
   if((NumOfDiodes > 0)  && (PartFound != PART_FET)) {
    2f94:	80 91 18 01 	lds	r24, 0x0118	; 0x800118 <NumOfDiodes>
    2f98:	88 23       	and	r24, r24
    2f9a:	29 f0       	breq	.+10     	; 0x2fa6 <ReadCapacity+0x3fe>
    2f9c:	80 91 1a 01 	lds	r24, 0x011A	; 0x80011a <PartFound>
    2fa0:	85 30       	cpi	r24, 0x05	; 5
    2fa2:	09 f0       	breq	.+2      	; 0x2fa6 <ReadCapacity+0x3fe>
    2fa4:	15 cf       	rjmp	.-470    	; 0x2dd0 <ReadCapacity+0x228>
      wait_about1s();	/* debug delay */
#endif
      // nearly sure, that there is one or more diodes in reverse direction,
      // which would be wrongly detected as capacitor 
   } else {
      PartFound = PART_CAPACITOR;	//capacitor is found
    2fa6:	88 e0       	ldi	r24, 0x08	; 8
    2fa8:	80 93 1a 01 	sts	0x011A, r24	; 0x80011a <PartFound>
      if ((cap.cpre > cap.cpre_max) || ((cap.cpre == cap.cpre_max) && (cap.cval > cap.cval_max))) {
    2fac:	80 91 85 01 	lds	r24, 0x0185	; 0x800185 <cap+0x12>
    2fb0:	90 91 86 01 	lds	r25, 0x0186	; 0x800186 <cap+0x13>
    2fb4:	98 17       	cp	r25, r24
    2fb6:	c4 f0       	brlt	.+48     	; 0x2fe8 <ReadCapacity+0x440>
    2fb8:	89 13       	cpse	r24, r25
    2fba:	0a cf       	rjmp	.-492    	; 0x2dd0 <ReadCapacity+0x228>
    2fbc:	80 90 73 01 	lds	r8, 0x0173	; 0x800173 <cap>
    2fc0:	90 90 74 01 	lds	r9, 0x0174	; 0x800174 <cap+0x1>
    2fc4:	a0 90 75 01 	lds	r10, 0x0175	; 0x800175 <cap+0x2>
    2fc8:	b0 90 76 01 	lds	r11, 0x0176	; 0x800176 <cap+0x3>
    2fcc:	40 91 77 01 	lds	r20, 0x0177	; 0x800177 <cap+0x4>
    2fd0:	50 91 78 01 	lds	r21, 0x0178	; 0x800178 <cap+0x5>
    2fd4:	60 91 79 01 	lds	r22, 0x0179	; 0x800179 <cap+0x6>
    2fd8:	70 91 7a 01 	lds	r23, 0x017A	; 0x80017a <cap+0x7>
    2fdc:	48 15       	cp	r20, r8
    2fde:	59 05       	cpc	r21, r9
    2fe0:	6a 05       	cpc	r22, r10
    2fe2:	7b 05       	cpc	r23, r11
    2fe4:	08 f0       	brcs	.+2      	; 0x2fe8 <ReadCapacity+0x440>
    2fe6:	f4 ce       	rjmp	.-536    	; 0x2dd0 <ReadCapacity+0x228>
         // we have found a greater one, overwrite the old values
         cap.cval_max = cap.cval;
    2fe8:	40 91 73 01 	lds	r20, 0x0173	; 0x800173 <cap>
    2fec:	50 91 74 01 	lds	r21, 0x0174	; 0x800174 <cap+0x1>
    2ff0:	60 91 75 01 	lds	r22, 0x0175	; 0x800175 <cap+0x2>
    2ff4:	70 91 76 01 	lds	r23, 0x0176	; 0x800176 <cap+0x3>
    2ff8:	40 93 77 01 	sts	0x0177, r20	; 0x800177 <cap+0x4>
    2ffc:	50 93 78 01 	sts	0x0178, r21	; 0x800178 <cap+0x5>
    3000:	60 93 79 01 	sts	0x0179, r22	; 0x800179 <cap+0x6>
    3004:	70 93 7a 01 	sts	0x017A, r23	; 0x80017a <cap+0x7>
         cap.cpre_max = cap.cpre;
    3008:	80 93 86 01 	sts	0x0186, r24	; 0x800186 <cap+0x13>
#if FLASHEND > 0x1fff
         cap.v_loss = vloss;		// lost voltage in 0.01%
    300c:	d0 92 82 01 	sts	0x0182, r13	; 0x800182 <cap+0xf>
    3010:	c0 92 81 01 	sts	0x0181, r12	; 0x800181 <cap+0xe>
#endif
         cap.ca = LowPin;		// save LowPin
    3014:	00 93 83 01 	sts	0x0183, r16	; 0x800183 <cap+0x10>
         cap.cb = HighPin;		// save HighPin
    3018:	c0 93 84 01 	sts	0x0184, r28	; 0x800184 <cap+0x11>
    301c:	d9 ce       	rjmp	.-590    	; 0x2dd0 <ReadCapacity+0x228>
    301e:	c7 01       	movw	r24, r14
    3020:	c1 2c       	mov	r12, r1
    3022:	d1 2c       	mov	r13, r1
  cap.cval_uncorrected.dw = ovcnt16 + 1;
  cap.cval_uncorrected.dw *= GetRLmultip(cap_voltage1);		// get factor to convert time to capacity from table
#else
  // wait the half the time which was required for loading
  cap_voltage2 = cap_voltage1;			// preset to prevent compiler warning
  for (tmpint=0;tmpint<=ovcnt16;tmpint++) {
    3024:	20 91 51 01 	lds	r18, 0x0151	; 0x800151 <ovcnt16>
    3028:	30 91 52 01 	lds	r19, 0x0152	; 0x800152 <ovcnt16+0x1>
    302c:	2c 15       	cp	r18, r12
    302e:	3d 05       	cpc	r19, r13
    3030:	60 f0       	brcs	.+24     	; 0x304a <ReadCapacity+0x4a2>
     wait5ms();
    3032:	0e 94 30 05 	call	0xa60	; 0xa60 <wait5ms>
     cap_voltage2 = ReadADC(HighPin) - residual_voltage;	// read voltage again, is discharged only a little bit ?
    3036:	8c 2f       	mov	r24, r28
    3038:	0e 94 7f 05 	call	0xafe	; 0xafe <ReadADC>
    303c:	8a 19       	sub	r24, r10
    303e:	9b 09       	sbc	r25, r11
     wdt_reset();
    3040:	a8 95       	wdr
  cap.cval_uncorrected.dw = ovcnt16 + 1;
  cap.cval_uncorrected.dw *= GetRLmultip(cap_voltage1);		// get factor to convert time to capacity from table
#else
  // wait the half the time which was required for loading
  cap_voltage2 = cap_voltage1;			// preset to prevent compiler warning
  for (tmpint=0;tmpint<=ovcnt16;tmpint++) {
    3042:	2f ef       	ldi	r18, 0xFF	; 255
    3044:	c2 1a       	sub	r12, r18
    3046:	d2 0a       	sbc	r13, r18
    3048:	ed cf       	rjmp	.-38     	; 0x3024 <ReadCapacity+0x47c>
     wait5ms();
     cap_voltage2 = ReadADC(HighPin) - residual_voltage;	// read voltage again, is discharged only a little bit ?
     wdt_reset();
  }
     cap_voltage2 = cap_voltage1 - cap_voltage2; 	// lost voltage during load time wait
    304a:	57 01       	movw	r10, r14
    304c:	a8 1a       	sub	r10, r24
    304e:	b9 0a       	sbc	r11, r25
#if FLASHEND > 0x1fff
  // compute equivalent parallel resistance from voltage drop
  if (cap_voltage2 > 0) {
    3050:	1a 14       	cp	r1, r10
    3052:	1b 04       	cpc	r1, r11
    3054:	9c f4       	brge	.+38     	; 0x307c <ReadCapacity+0x4d4>
     // there is any voltage drop !
     // cap_voltage1 is the loaded voltage.
     vloss = (unsigned long)(cap_voltage2 * 1000UL) / cap_voltage1;
  }
#endif
  if (cap_voltage2 > 200) {
    3056:	39 ec       	ldi	r19, 0xC9	; 201
    3058:	a3 16       	cp	r10, r19
    305a:	b1 04       	cpc	r11, r1
    305c:	0c f0       	brlt	.+2      	; 0x3060 <ReadCapacity+0x4b8>
    305e:	b8 ce       	rjmp	.-656    	; 0x2dd0 <ReadCapacity+0x228>
#if FLASHEND > 0x1fff
  // compute equivalent parallel resistance from voltage drop
  if (cap_voltage2 > 0) {
     // there is any voltage drop !
     // cap_voltage1 is the loaded voltage.
     vloss = (unsigned long)(cap_voltage2 * 1000UL) / cap_voltage1;
    3060:	28 ee       	ldi	r18, 0xE8	; 232
    3062:	33 e0       	ldi	r19, 0x03	; 3
    3064:	d5 01       	movw	r26, r10
    3066:	0e 94 2d 33 	call	0x665a	; 0x665a <__usmulhisi3>
    306a:	97 01       	movw	r18, r14
    306c:	0f 2c       	mov	r0, r15
    306e:	00 0c       	add	r0, r0
    3070:	44 0b       	sbc	r20, r20
    3072:	55 0b       	sbc	r21, r21
    3074:	0e 94 e0 32 	call	0x65c0	; 0x65c0 <__udivmodsi4>
    3078:	69 01       	movw	r12, r18
    307a:	02 c0       	rjmp	.+4      	; 0x3080 <ReadCapacity+0x4d8>
  }
  
#if FLASHEND > 0x1fff
  unsigned int vloss;	// lost voltage after load pulse in 0.1% 
  cap.esr = 0;				// set ESR of capacitor to zero
  vloss = 0;				// set lost voltage to zero
    307c:	c1 2c       	mov	r12, r1
    307e:	d1 2c       	mov	r13, r1
//     if (ovcnt16 == 0 )  {
//        goto messe_mit_rh;		// Voltage of more than 300mV is reached in one pulse, but not hold
//     }
     goto keinC;			// capacitor does not keep the voltage about 5ms
  }
  cap.cval_uncorrected.dw = ovcnt16 + 1;
    3080:	80 91 51 01 	lds	r24, 0x0151	; 0x800151 <ovcnt16>
    3084:	90 91 52 01 	lds	r25, 0x0152	; 0x800152 <ovcnt16+0x1>
    3088:	01 96       	adiw	r24, 0x01	; 1
    308a:	a0 e0       	ldi	r26, 0x00	; 0
    308c:	b0 e0       	ldi	r27, 0x00	; 0
    308e:	80 93 7b 01 	sts	0x017B, r24	; 0x80017b <cap+0x8>
    3092:	90 93 7c 01 	sts	0x017C, r25	; 0x80017c <cap+0x9>
    3096:	a0 93 7d 01 	sts	0x017D, r26	; 0x80017d <cap+0xa>
    309a:	b0 93 7e 01 	sts	0x017E, r27	; 0x80017e <cap+0xb>
  // compute factor with load voltage + lost voltage during the voltage load time
  cap.cval_uncorrected.dw *= GetRLmultip(cap_voltage1+cap_voltage2);	// get factor to convert time to capacity from table
    309e:	c7 01       	movw	r24, r14
    30a0:	8a 0d       	add	r24, r10
    30a2:	9b 1d       	adc	r25, r11
    30a4:	91 d0       	rcall	.+290    	; 0x31c8 <GetRLmultip>
    30a6:	20 91 7b 01 	lds	r18, 0x017B	; 0x80017b <cap+0x8>
    30aa:	30 91 7c 01 	lds	r19, 0x017C	; 0x80017c <cap+0x9>
    30ae:	40 91 7d 01 	lds	r20, 0x017D	; 0x80017d <cap+0xa>
    30b2:	50 91 7e 01 	lds	r21, 0x017E	; 0x80017e <cap+0xb>
    30b6:	dc 01       	movw	r26, r24
    30b8:	0e 94 33 33 	call	0x6666	; 0x6666 <__muluhisi3>
    30bc:	60 93 7b 01 	sts	0x017B, r22	; 0x80017b <cap+0x8>
    30c0:	70 93 7c 01 	sts	0x017C, r23	; 0x80017c <cap+0x9>
    30c4:	80 93 7d 01 	sts	0x017D, r24	; 0x80017d <cap+0xa>
    30c8:	90 93 7e 01 	sts	0x017E, r25	; 0x80017e <cap+0xb>
#endif
   cap.cval = cap.cval_uncorrected.dw;	// set result to uncorrected
    30cc:	60 93 73 01 	sts	0x0173, r22	; 0x800173 <cap>
    30d0:	70 93 74 01 	sts	0x0174, r23	; 0x800174 <cap+0x1>
    30d4:	80 93 75 01 	sts	0x0175, r24	; 0x800175 <cap+0x2>
    30d8:	90 93 76 01 	sts	0x0176, r25	; 0x800176 <cap+0x3>
   cap.cpre = -9;		// switch units to nF 
    30dc:	87 ef       	ldi	r24, 0xF7	; 247
    30de:	80 93 85 01 	sts	0x0185, r24	; 0x800185 <cap+0x12>
   Scale_C_with_vcc();		// value is below 100000 after this call, cpre is changed
    30e2:	22 dd       	rcall	.-1468   	; 0x2b28 <Scale_C_with_vcc>
   // cap.cval for this type is at least 40000nF, so the last digit will be never shown
#if WITH_MENU
   cap.cval *= (1000 - (int8_t)eeprom_read_byte((uint8_t *)&big_cap_corr));	// correct with C_H_KORR with 0.1% resolution, but prevent overflow
    30e4:	80 90 73 01 	lds	r8, 0x0173	; 0x800173 <cap>
    30e8:	90 90 74 01 	lds	r9, 0x0174	; 0x800174 <cap+0x1>
    30ec:	a0 90 75 01 	lds	r10, 0x0175	; 0x800175 <cap+0x2>
    30f0:	b0 90 76 01 	lds	r11, 0x0176	; 0x800176 <cap+0x3>
    30f4:	87 e0       	ldi	r24, 0x07	; 7
    30f6:	93 e0       	ldi	r25, 0x03	; 3
    30f8:	0e 94 5b 34 	call	0x68b6	; 0x68b6 <eeprom_read_byte>
#else
   cap.cval *= (1000 - C_H_KORR);	// correct with C_H_KORR with 0.1% resolution, but prevent overflow
#endif
   cap.cval /= 100;		// was multiplied with 1000, now divided by 100
    30fc:	a8 ee       	ldi	r26, 0xE8	; 232
    30fe:	b3 e0       	ldi	r27, 0x03	; 3
    3100:	a8 1b       	sub	r26, r24
    3102:	b1 09       	sbc	r27, r1
    3104:	87 fd       	sbrc	r24, 7
    3106:	b3 95       	inc	r27
    3108:	a5 01       	movw	r20, r10
    310a:	94 01       	movw	r18, r8
    310c:	0e 94 3d 33 	call	0x667a	; 0x667a <__mulshisi3>
    3110:	24 e6       	ldi	r18, 0x64	; 100
    3112:	30 e0       	ldi	r19, 0x00	; 0
    3114:	40 e0       	ldi	r20, 0x00	; 0
    3116:	50 e0       	ldi	r21, 0x00	; 0
    3118:	0e 94 e0 32 	call	0x65c0	; 0x65c0 <__udivmodsi4>
    311c:	20 93 73 01 	sts	0x0173, r18	; 0x800173 <cap>
    3120:	30 93 74 01 	sts	0x0174, r19	; 0x800174 <cap+0x1>
    3124:	40 93 75 01 	sts	0x0175, r20	; 0x800175 <cap+0x2>
    3128:	50 93 76 01 	sts	0x0176, r21	; 0x800176 <cap+0x3>
   DisplayValue(cap.cval,cap.cpre,'F',4);
   lcd_space();
   u2lcd(ovcnt16);
   wait_about3s();	/* debug delay */
#endif
   goto checkDiodes;
    312c:	33 cf       	rjmp	.-410    	; 0x2f94 <ReadCapacity+0x3ec>
  ADC_DDR =  TXD_MSK;		// switch all ADC ports to input
  ADC_PORT = TXD_VAL;		// switch all ADC outputs to GND, no pull up
  R_DDR = 0;			// switch all resistor ports to input
  R_PORT = 0; 			// switch all resistor outputs to GND, no pull up
  return;
 } // end ReadCapacity()
    312e:	cd b7       	in	r28, 0x3d	; 61
    3130:	de b7       	in	r29, 0x3e	; 62
    3132:	ec e0       	ldi	r30, 0x0C	; 12
    3134:	0c 94 ea 33 	jmp	0x67d4	; 0x67d4 <__epilogue_restores__+0xc>

00003138 <__vector_13>:
   cap.cval /= U_VCC;			// Factors are computed for U_VCC
}
#ifndef INHIBIT_SLEEP_MODE
/* Interrupt Service Routine for timer1 Overflow */
 ISR(TIMER1_OVF_vect, ISR_BLOCK)
{
    3138:	1f 92       	push	r1
    313a:	0f 92       	push	r0
    313c:	0f b6       	in	r0, 0x3f	; 63
    313e:	0f 92       	push	r0
    3140:	11 24       	eor	r1, r1
    3142:	8f 93       	push	r24
    3144:	9f 93       	push	r25
 if ((!(TI1_INT_FLAGS & (1<<ICF1)) && (unfinished !=0)) || ((TI1_INT_FLAGS & (1<<ICF1)) && (ICR1 < 250))) {
    3146:	b5 99       	sbic	0x16, 5	; 22
    3148:	04 c0       	rjmp	.+8      	; 0x3152 <__vector_13+0x1a>
    314a:	80 91 70 01 	lds	r24, 0x0170	; 0x800170 <unfinished>
    314e:	81 11       	cpse	r24, r1
    3150:	09 c0       	rjmp	.+18     	; 0x3164 <__vector_13+0x2c>
    3152:	b5 9b       	sbis	0x16, 5	; 22
    3154:	10 c0       	rjmp	.+32     	; 0x3176 <__vector_13+0x3e>
    3156:	80 91 86 00 	lds	r24, 0x0086	; 0x800086 <__TEXT_REGION_LENGTH__+0x7e0086>
    315a:	90 91 87 00 	lds	r25, 0x0087	; 0x800087 <__TEXT_REGION_LENGTH__+0x7e0087>
    315e:	8a 3f       	cpi	r24, 0xFA	; 250
    3160:	91 05       	cpc	r25, r1
    3162:	48 f4       	brcc	.+18     	; 0x3176 <__vector_13+0x3e>
    // Capture Event not pending or (Capture Event pending and ICR1 < 250
    // the ICR1H is buffered and can not examined alone, we must read the ICR1L first (with ICR1 access) !
   ovcnt16++;				// count Overflow
    3164:	80 91 51 01 	lds	r24, 0x0151	; 0x800151 <ovcnt16>
    3168:	90 91 52 01 	lds	r25, 0x0152	; 0x800152 <ovcnt16+0x1>
    316c:	01 96       	adiw	r24, 0x01	; 1
    316e:	90 93 52 01 	sts	0x0152, r25	; 0x800152 <ovcnt16+0x1>
    3172:	80 93 51 01 	sts	0x0151, r24	; 0x800151 <ovcnt16>
 }
}
    3176:	9f 91       	pop	r25
    3178:	8f 91       	pop	r24
    317a:	0f 90       	pop	r0
    317c:	0f be       	out	0x3f, r0	; 63
    317e:	0f 90       	pop	r0
    3180:	1f 90       	pop	r1
    3182:	18 95       	reti

00003184 <__vector_10>:
/* Interrupt Service Routine for timer1 capture event (Comparator) */
 ISR(TIMER1_CAPT_vect, ISR_BLOCK)
{
    3184:	1f 92       	push	r1
    3186:	0f 92       	push	r0
    3188:	0f b6       	in	r0, 0x3f	; 63
    318a:	0f 92       	push	r0
    318c:	11 24       	eor	r1, r1
    318e:	8f 93       	push	r24
    3190:	9f 93       	push	r25
 unfinished = 0;			// clear unfinished flag
    3192:	10 92 70 01 	sts	0x0170, r1	; 0x800170 <unfinished>
 // With unfinished set to 0, we prevent further counting the Overflow.s
 // Is already a Overflow detected?
 if((TI1_INT_FLAGS & (1<<TOV1))) {	// counter overflow, 65.536 ms @ 1MHz, 8.192ms @ 8MHz
    3196:	b0 9b       	sbis	0x16, 0	; 22
    3198:	10 c0       	rjmp	.+32     	; 0x31ba <__vector_10+0x36>
   //there is already a Overflow detected, before or after the capture event?
   // ICR1H is buffered and can not examined alone, we must read the ICR1L first (with ICR1 access) !
   if (ICR1 < 250) {
    319a:	80 91 86 00 	lds	r24, 0x0086	; 0x800086 <__TEXT_REGION_LENGTH__+0x7e0086>
    319e:	90 91 87 00 	lds	r25, 0x0087	; 0x800087 <__TEXT_REGION_LENGTH__+0x7e0087>
    31a2:	8a 3f       	cpi	r24, 0xFA	; 250
    31a4:	91 05       	cpc	r25, r1
    31a6:	48 f4       	brcc	.+18     	; 0x31ba <__vector_10+0x36>
     //  Yes, Input Capture Counter is low, Overflow has occured before the capture event
     ovcnt16++;				// count Overflow
    31a8:	80 91 51 01 	lds	r24, 0x0151	; 0x800151 <ovcnt16>
    31ac:	90 91 52 01 	lds	r25, 0x0152	; 0x800152 <ovcnt16+0x1>
    31b0:	01 96       	adiw	r24, 0x01	; 1
    31b2:	90 93 52 01 	sts	0x0152, r25	; 0x800152 <ovcnt16+0x1>
    31b6:	80 93 51 01 	sts	0x0151, r24	; 0x800151 <ovcnt16>
   }
 }
}
    31ba:	9f 91       	pop	r25
    31bc:	8f 91       	pop	r24
    31be:	0f 90       	pop	r0
    31c0:	0f be       	out	0x3f, r0	; 63
    31c2:	0f 90       	pop	r0
    31c4:	1f 90       	pop	r1
    31c6:	18 95       	reti

000031c8 <GetRLmultip>:

 .section .text

; unsigned int GetRLmultip(unsigned int cvolt) 
GetRLmultip:
	push    r0
    31c8:	0f 92       	push	r0
 	ldi	r18, hi8(RL_Tab_Beginn) 	; 1
    31ca:	21 e0       	ldi	r18, 0x01	; 1
 	cpi	r24, lo8(RL_Tab_Beginn)		; 44
    31cc:	8c 32       	cpi	r24, 0x2C	; 44
 	cpc	r25, r18
    31ce:	92 07       	cpc	r25, r18
 	brcc	is_bigger		;if (cvolt >= RL_Tab_Beginn) 
    31d0:	10 f4       	brcc	.+4      	; 0x31d6 <is_bigger>
        ldi	r24, lo8(RL_Tab_Beginn)		; uvolt = 0 = RL_Tab_Begin - RL_Tab_Begin
    31d2:	8c e2       	ldi	r24, 0x2C	; 44
        ldi	r25, hi8(RL_Tab_Beginn)		; limit to begin of table
    31d4:	91 e0       	ldi	r25, 0x01	; 1

000031d6 <is_bigger>:
is_bigger:
 	subi	r24, lo8(RL_Tab_Beginn)	;  uvolt = cvolt - RL_Tab_Beginn;
    31d6:	8c 52       	subi	r24, 0x2C	; 44
 	sbci	r25, hi8(RL_Tab_Beginn)	; 1
    31d8:	91 40       	sbci	r25, 0x01	; 1

 	ldi	r22, lo8(RL_Tab_Abstand)	; 25
    31da:	69 e1       	ldi	r22, 0x19	; 25
 	ldi	r23, hi8(RL_Tab_Abstand)	; 0
    31dc:	70 e0       	ldi	r23, 0x00	; 0
 	ACALL	__udivmodhi4 	;tabind = uvolt / RL_Tab_Abstand;
    31de:	0e 94 b9 32 	call	0x6572	; 0x6572 <__udivmodhi4>
;  r24:25 tabres = uvolt % RL_Tab_Abstand;  // r25 allways zero
;  tabres = RL_Tab_Abstand - tabres;
 	ldi	r25, RL_Tab_Abstand	; 25
    31e2:	99 e1       	ldi	r25, 0x19	; 25
 	cpi	r22, ((RL_Tab_Length/RL_Tab_Abstand)-1)	; if (tabind > ((RL_Tab_Length/RL_Tab_Abstand)-1)) 
    31e4:	6b 32       	cpi	r22, 0x2B	; 43
 	brcs	is_lower 
    31e6:	10 f0       	brcs	.+4      	; 0x31ec <is_lower>
	mov	r25, r24		; tabres = 0 = (RL_Tab_Abstand==tabres) - tabres
    31e8:	98 2f       	mov	r25, r24
 	ldi	r22, (RL_Tab_Length/RL_Tab_Abstand)-1; tabind = (RL_Tab_Length/RL_Tab_Abstand)-1;// limit to end of table
    31ea:	6b e2       	ldi	r22, 0x2B	; 43

000031ec <is_lower>:
is_lower:
 	sub	r25, r24		; tabres = RL_Tab_Abstand - tabres;
    31ec:	98 1b       	sub	r25, r24

	; r22 = tabind , r25 = tabres

	LDIZ	RLtab
    31ee:	e9 ea       	ldi	r30, 0xA9	; 169
    31f0:	f2 e0       	ldi	r31, 0x02	; 2
	add	r30, r22		; + tabind
    31f2:	e6 0f       	add	r30, r22
	adc	r31, zero_reg
    31f4:	f1 1d       	adc	r31, r1
	add	r30, r22		; + tabind (word access)
    31f6:	e6 0f       	add	r30, r22
	adc	r31, zero_reg
    31f8:	f1 1d       	adc	r31, r1

#ifdef MEM_EEPROM
        push	r25			; save tabres
    31fa:	9f 93       	push	r25
	movw	r24,r30
    31fc:	cf 01       	movw	r24, r30
	ACALL	eeprom_read_byte	; y1 = MEM_read_word(&RLtab[tabind]);
    31fe:	0e 94 5b 34 	call	0x68b6	; 0x68b6 <eeprom_read_byte>
	mov	r20, r24
    3202:	48 2f       	mov	r20, r24
	adiw	r30, 1			; address of high order byte
    3204:	31 96       	adiw	r30, 0x01	; 1
	movw	r24,r30
    3206:	cf 01       	movw	r24, r30
	ACALL	eeprom_read_byte	; y1 = MEM_read_word(&RLtab[tabind]);
    3208:	0e 94 5b 34 	call	0x68b6	; 0x68b6 <eeprom_read_byte>
	mov	r21, r24
    320c:	58 2f       	mov	r21, r24
	adiw	r30, 1			; tabind+1
    320e:	31 96       	adiw	r30, 0x01	; 1
	movw	r24,r30
    3210:	cf 01       	movw	r24, r30
	ACALL	eeprom_read_byte	; y2 = MEM_read_word(&RLtab[tabind+1]);
    3212:	0e 94 5b 34 	call	0x68b6	; 0x68b6 <eeprom_read_byte>
	mov	r18, r24
    3216:	28 2f       	mov	r18, r24
	adiw	r30, 1			; address of high order byte
    3218:	31 96       	adiw	r30, 0x01	; 1
	movw	r24,r30
    321a:	cf 01       	movw	r24, r30
	ACALL	eeprom_read_byte	; y2 = MEM_read_word(&RLtab[tabind+1]);
    321c:	0e 94 5b 34 	call	0x68b6	; 0x68b6 <eeprom_read_byte>
	mov	r19, r24
    3220:	38 2f       	mov	r19, r24
        pop	r22			; restore tabres in r22
    3222:	6f 91       	pop	r22
 	lpm	r19, Z+
 	mov	r22, r25
#endif
;  return ( ((y1 - y2) * tabres + (RL_Tab_Abstand/2)) / RL_Tab_Abstand + y2); // interpolate table
;; 	ldi	r23, 0x00	; hi8(tabres) allways zero
 	sub	r20, r18	; y1 - y2
    3224:	42 1b       	sub	r20, r18
 	sbc	r21, r19 	; maximum of 3466 need two registers
    3226:	53 0b       	sbc	r21, r19

 	mul	r22, r20	;lo8(tabres) * lo8(y1-y2)
    3228:	64 9f       	mul	r22, r20
 	movw	r24, r0		; r24:25 = *
    322a:	c0 01       	movw	r24, r0
 	mul	r22, r21	;lo8(tabres) * hi8(y1-y2)
    322c:	65 9f       	mul	r22, r21
 	add	r25, r0		; r25 + lo8(*)
    322e:	90 0d       	add	r25, r0
;; 	mul	r23, r20	;hi8(tabres) * lo8(y1-y2) , allways zero
;; 	add	r25, r0		; r25 + lo8(*)
 	eor	r1, r1
    3230:	11 24       	eor	r1, r1
 	adiw	r24, (RL_Tab_Abstand/2)		; 12
    3232:	0c 96       	adiw	r24, 0x0c	; 12
 	ldi	r22, lo8(RL_Tab_Abstand)	; 25
    3234:	69 e1       	ldi	r22, 0x19	; 25
 	ldi	r23, hi8(RL_Tab_Abstand)	; 0
    3236:	70 e0       	ldi	r23, 0x00	; 0
 	ACALL	__udivmodhi4	; ((y1 - y2) * tabres + (RL_Tab_Abstand/2)) / RL_Tab_Abstand 
    3238:	0e 94 b9 32 	call	0x6572	; 0x6572 <__udivmodhi4>
 	add	r22, r18			; + y2
    323c:	62 0f       	add	r22, r18
 	adc	r23, r19
    323e:	73 1f       	adc	r23, r19
 	movw	r24, r22
    3240:	cb 01       	movw	r24, r22
	pop	r0
    3242:	0f 90       	pop	r0
 	ret
    3244:	08 95       	ret

00003246 <Calibrate_UR>:
#include "Transistortester.h"
void Calibrate_UR(void) {
    3246:	a0 e0       	ldi	r26, 0x00	; 0
    3248:	b0 e0       	ldi	r27, 0x00	; 0
    324a:	e9 e2       	ldi	r30, 0x29	; 41
    324c:	f9 e1       	ldi	r31, 0x19	; 25
    324e:	0c 94 ce 33 	jmp	0x679c	; 0x679c <__prologue_saves__+0xc>
  uint16_t sum_rp;	// sum of 3 Pin voltages with 680 Ohm load
  uint16_t u680;	// 3 * (Voltage at 680 Ohm)
#endif


  adc_vcc_reference = U_VCC;     // set initial VCC Voltage to 5000mV
    3252:	88 e8       	ldi	r24, 0x88	; 136
    3254:	93 e1       	ldi	r25, 0x13	; 19
    3256:	90 93 1f 01 	sts	0x011F, r25	; 0x80011f <adc_vcc_reference+0x1>
    325a:	80 93 1e 01 	sts	0x011E, r24	; 0x80011e <adc_vcc_reference>
  ADCconfig.U_AVCC = adc_vcc_reference;	// set ADC to normal VCC value
    325e:	90 93 30 01 	sts	0x0130, r25	; 0x800130 <ADCconfig+0x5>
    3262:	80 93 2f 01 	sts	0x012F, r24	; 0x80012f <ADCconfig+0x4>
  ADCconfig.Samples = R_ANZ_MESS;	// set number of ADC reads near to maximum
    3266:	8e eb       	ldi	r24, 0xBE	; 190
    3268:	80 93 2b 01 	sts	0x012B, r24	; 0x80012b <ADCconfig>
                                        //############################################
#if FLASHEND > 0x1fff
  uint16_t mv2500;
  ADC_PORT = TXD_VAL;                   // switch to 0V
    326c:	c8 e0       	ldi	r28, 0x08	; 8
    326e:	c8 b9       	out	0x08, r28	; 8
  ADC_DDR = (1<<TPRELAY) | TXD_MSK;       // switch pin with 2.5V reference to GND
    3270:	88 e1       	ldi	r24, 0x18	; 24
    3272:	87 b9       	out	0x07, r24	; 7
  wait20us();			// switch only short time, so that the relais do not really switch
    3274:	0e 94 3e 05 	call	0xa7c	; 0xa7c <wait20us>
  ADC_DDR =  TXD_MSK;		// switch pin with reference back to input
    3278:	c7 b9       	out	0x07, r28	; 7
  mv2500 = W5msReadADC(TPREF); // read voltage of 2.5V precision reference
    327a:	84 e0       	ldi	r24, 0x04	; 4
    327c:	0e 94 7b 05 	call	0xaf6	; 0xaf6 <W5msReadADC>
    3280:	ac 01       	movw	r20, r24
  if ((mv2500 > 2250) && (mv2500 < 2750)) {
    3282:	8b 5c       	subi	r24, 0xCB	; 203
    3284:	98 40       	sbci	r25, 0x08	; 8
    3286:	83 3f       	cpi	r24, 0xF3	; 243
    3288:	91 40       	sbci	r25, 0x01	; 1
    328a:	a0 f4       	brcc	.+40     	; 0x32b4 <Calibrate_UR+0x6e>
     // precision voltage reference connected, update U_AVCC
     WithReference = 1;
    328c:	81 e0       	ldi	r24, 0x01	; 1
    328e:	80 93 3a 01 	sts	0x013A, r24	; 0x80013a <WithReference>
     adc_vcc_reference = (unsigned long)((unsigned long)ADCconfig.U_AVCC * 2495) / mv2500;
    3292:	20 91 2f 01 	lds	r18, 0x012F	; 0x80012f <ADCconfig+0x4>
    3296:	30 91 30 01 	lds	r19, 0x0130	; 0x800130 <ADCconfig+0x5>
    329a:	af eb       	ldi	r26, 0xBF	; 191
    329c:	b9 e0       	ldi	r27, 0x09	; 9
    329e:	0e 94 1e 33 	call	0x663c	; 0x663c <__umulhisi3>
    32a2:	9a 01       	movw	r18, r20
    32a4:	40 e0       	ldi	r20, 0x00	; 0
    32a6:	50 e0       	ldi	r21, 0x00	; 0
    32a8:	0e 94 e0 32 	call	0x65c0	; 0x65c0 <__udivmodsi4>
    32ac:	30 93 1f 01 	sts	0x011F, r19	; 0x80011f <adc_vcc_reference+0x1>
    32b0:	20 93 1e 01 	sts	0x011E, r18	; 0x80011e <adc_vcc_reference>
  }
  ADCconfig.U_AVCC = adc_vcc_reference;	// set ADC to normal VCC value
    32b4:	80 91 1e 01 	lds	r24, 0x011E	; 0x80011e <adc_vcc_reference>
    32b8:	90 91 1f 01 	lds	r25, 0x011F	; 0x80011f <adc_vcc_reference+0x1>
    32bc:	90 93 30 01 	sts	0x0130, r25	; 0x800130 <ADCconfig+0x5>
    32c0:	80 93 2f 01 	sts	0x012F, r24	; 0x80012f <ADCconfig+0x4>
#endif
#ifdef WITH_AUTO_REF
  (void) ReadADC(MUX_INT_REF);	// read reference voltage 
    32c4:	8e e0       	ldi	r24, 0x0E	; 14
    32c6:	0e 94 7f 05 	call	0xafe	; 0xafe <ReadADC>
  ref_mv = W5msReadADC(MUX_INT_REF);	// read reference voltage 
    32ca:	8e e0       	ldi	r24, 0x0E	; 14
    32cc:	0e 94 7b 05 	call	0xaf6	; 0xaf6 <W5msReadADC>
    32d0:	90 93 34 01 	sts	0x0134, r25	; 0x800134 <ref_mv+0x1>
    32d4:	80 93 33 01 	sts	0x0133, r24	; 0x800133 <ref_mv>
#else
  ref_mv = DEFAULT_BAND_GAP;    // set to default Reference Voltage
#endif
  (void) RefVoltage();			//compute RHmultip = f(reference voltage)
    32d8:	0e 94 4e 06 	call	0xc9c	; 0xc9c <RefVoltage>
                                        // ref_mv_offs, ADCconfig.U_Bandgap
                                        //############################################

  EntladePins();	// make sure, that no voltage is left from capacitors
    32dc:	95 db       	rcall	.-2262   	; 0x2a08 <EntladePins>
#ifdef AUTO_CAL
  // measurement of internal resistance of the ADC port outputs switched to GND
  ADC_PORT =  TXD_VAL;	//ADC-Ports to GND
    32de:	88 e0       	ldi	r24, 0x08	; 8
    32e0:	f8 2e       	mov	r15, r24
    32e2:	f8 b8       	out	0x08, r15	; 8
  ADC_DDR = 1<<TP1 | TXD_MSK;	//ADC-Pin  1 to output 0V
    32e4:	c9 e0       	ldi	r28, 0x09	; 9
    32e6:	c7 b9       	out	0x07, r28	; 7
 #ifdef PULLUP_DISABLE
  R_PORT = (1<<PIN_RL1) | (1<<PIN_RL2) | (1<<PIN_RL3);		//R_L-PORTs to VCC
    32e8:	85 e1       	ldi	r24, 0x15	; 21
    32ea:	85 b9       	out	0x05, r24	; 5
 #else
  R_PORT = 1<<PIN_RL1;		//R_L-PORT 1 to VCC
 #endif
  R_DDR = 1<<PIN_RL1;		//Pin 1 to output and over R_L to VCC
    32ec:	d1 e0       	ldi	r29, 0x01	; 1
    32ee:	d4 b9       	out	0x04, r29	; 4
  sum_rm = W5msReadADC(TP1);
    32f0:	80 e0       	ldi	r24, 0x00	; 0
    32f2:	0e 94 7b 05 	call	0xaf6	; 0xaf6 <W5msReadADC>
    32f6:	8c 01       	movw	r16, r24
// - - - - - - - 
  ADC_DDR = 1<<TP2 | TXD_MSK;	//ADC-Pin 2 to output 0V
    32f8:	9a e0       	ldi	r25, 0x0A	; 10
    32fa:	d9 2e       	mov	r13, r25
    32fc:	d7 b8       	out	0x07, r13	; 7
 #ifndef PULLUP_DISABLE
  R_PORT =  1<<PIN_RL2;		//R_L-PORT 2 to VCC
 #endif
  R_DDR = 1<<PIN_RL2;		//Pin 2 to output and over R_L to VCC
    32fe:	24 e0       	ldi	r18, 0x04	; 4
    3300:	b2 2e       	mov	r11, r18
    3302:	b4 b8       	out	0x04, r11	; 4
  sum_rm += W5msReadADC(TP2);
    3304:	81 e0       	ldi	r24, 0x01	; 1
    3306:	0e 94 7b 05 	call	0xaf6	; 0xaf6 <W5msReadADC>
    330a:	08 0f       	add	r16, r24
    330c:	19 1f       	adc	r17, r25
// - - - - - - - 
  ADC_DDR = 1<<TP3 | TXD_MSK;	//ADC-Pin 3 to output 0V
    330e:	3c e0       	ldi	r19, 0x0C	; 12
    3310:	e3 2e       	mov	r14, r19
    3312:	e7 b8       	out	0x07, r14	; 7
 #ifndef PULLUP_DISABLE
  R_PORT =  1<<PIN_RL3;		//R_L-PORT 3 to VCC
 #endif
  R_DDR = 1<<PIN_RL3;		//Pin 3 to output and over R_L to VCC
    3314:	40 e1       	ldi	r20, 0x10	; 16
    3316:	c4 2e       	mov	r12, r20
    3318:	c4 b8       	out	0x04, r12	; 4
  sum_rm += W5msReadADC(TP3);	//add all three values
    331a:	82 e0       	ldi	r24, 0x02	; 2
    331c:	0e 94 7b 05 	call	0xaf6	; 0xaf6 <W5msReadADC>
    3320:	08 0f       	add	r16, r24
    3322:	19 1f       	adc	r17, r25
// - - - - - - - 

  // measurement of internal resistance of the ADC port output switched to VCC
  R_PORT = 0;			// R-Ports to GND
    3324:	15 b8       	out	0x05, r1	; 5
  ADC_PORT = 1<<TP1 | TXD_VAL;	//ADC-Port 1 to VCC
    3326:	c8 b9       	out	0x08, r28	; 8
  ADC_DDR = 1<<TP1 | TXD_MSK;	//ADC-Pin  1 to output 0V
    3328:	c7 b9       	out	0x07, r28	; 7
  R_DDR = 1<<PIN_RL1;		//Pin 1 to output and over R_L to GND
    332a:	d4 b9       	out	0x04, r29	; 4
  sum_rp = vcc_diff(W5msReadADC(TP1));
    332c:	80 e0       	ldi	r24, 0x00	; 0
    332e:	0e 94 7b 05 	call	0xaf6	; 0xaf6 <W5msReadADC>
    3332:	0e 94 e3 05 	call	0xbc6	; 0xbc6 <vcc_diff>
    3336:	ec 01       	movw	r28, r24
// - - - - - - - 
      
  ADC_PORT = 1<<TP2 | TXD_VAL;	//ADC-Port 2 to VCC
    3338:	d8 b8       	out	0x08, r13	; 8
  ADC_DDR = 1<<TP2 | TXD_MSK;	//ADC-Pin  2 to output 0V
    333a:	d7 b8       	out	0x07, r13	; 7
  R_DDR = 1<<PIN_RL2;		//Pin 2 to output and over R_L to GND
    333c:	b4 b8       	out	0x04, r11	; 4
  sum_rp += vcc_diff(W5msReadADC(TP2));
    333e:	81 e0       	ldi	r24, 0x01	; 1
    3340:	0e 94 7b 05 	call	0xaf6	; 0xaf6 <W5msReadADC>
    3344:	0e 94 e3 05 	call	0xbc6	; 0xbc6 <vcc_diff>
    3348:	c8 0f       	add	r28, r24
    334a:	d9 1f       	adc	r29, r25
// - - - - - - - 

  ADC_PORT = 1<<TP3 | TXD_VAL;	//ADC-Port 3 to VCC
    334c:	e8 b8       	out	0x08, r14	; 8
  ADC_DDR = 1<<TP3 | TXD_MSK;	//ADC-Pin  3 to output 0V
    334e:	e7 b8       	out	0x07, r14	; 7
  R_DDR = 1<<PIN_RL3;		//Pin 3 to output and over R_L to GND
    3350:	c4 b8       	out	0x04, r12	; 4
  sum_rp += vcc_diff(W5msReadADC(TP3));
    3352:	82 e0       	ldi	r24, 0x02	; 2
    3354:	0e 94 7b 05 	call	0xaf6	; 0xaf6 <W5msReadADC>
    3358:	0e 94 e3 05 	call	0xbc6	; 0xbc6 <vcc_diff>
    335c:	c8 0f       	add	r28, r24
    335e:	d9 1f       	adc	r29, r25
// - - - - - - - 
  ADC_DDR =  TXD_MSK;	//ADC-Pins to input
    3360:	f7 b8       	out	0x07, r15	; 7
  ADC_PORT =  TXD_VAL;	//ADC-Ports to GND
    3362:	f8 b8       	out	0x08, r15	; 8
  R_DDR   = 0;
    3364:	14 b8       	out	0x04, r1	; 4

  u680 = ((ADCconfig.U_AVCC * 3) - sum_rm - sum_rp);	//three times the voltage at the 680 Ohm
  pin_rmi = (unsigned long)((unsigned long)sum_rm * (unsigned long)R_L_VAL) / (unsigned long)u680;
    3366:	20 91 2f 01 	lds	r18, 0x012F	; 0x80012f <ADCconfig+0x4>
    336a:	30 91 30 01 	lds	r19, 0x0130	; 0x800130 <ADCconfig+0x5>
    336e:	69 01       	movw	r12, r18
    3370:	cc 0c       	add	r12, r12
    3372:	dd 1c       	adc	r13, r13
    3374:	c2 0e       	add	r12, r18
    3376:	d3 1e       	adc	r13, r19
    3378:	c0 1a       	sub	r12, r16
    337a:	d1 0a       	sbc	r13, r17
    337c:	cc 1a       	sub	r12, r28
    337e:	dd 0a       	sbc	r13, r29
    3380:	e1 2c       	mov	r14, r1
    3382:	f1 2c       	mov	r15, r1
    3384:	98 01       	movw	r18, r16
    3386:	a0 e9       	ldi	r26, 0x90	; 144
    3388:	ba e1       	ldi	r27, 0x1A	; 26
    338a:	0e 94 1e 33 	call	0x663c	; 0x663c <__umulhisi3>
    338e:	a7 01       	movw	r20, r14
    3390:	96 01       	movw	r18, r12
    3392:	0e 94 e0 32 	call	0x65c0	; 0x65c0 <__udivmodsi4>
    3396:	49 01       	movw	r8, r18
    3398:	5a 01       	movw	r10, r20
    339a:	30 93 39 01 	sts	0x0139, r19	; 0x800139 <pin_rmi+0x1>
    339e:	20 93 38 01 	sts	0x0138, r18	; 0x800138 <pin_rmi>
//  adcmv[2] = pin_rm;	// for last output in row 2
  pin_rpl = (unsigned long)((unsigned long)sum_rp * (unsigned long)R_L_VAL) / (unsigned long)u680;
    33a2:	9e 01       	movw	r18, r28
    33a4:	a0 e9       	ldi	r26, 0x90	; 144
    33a6:	ba e1       	ldi	r27, 0x1A	; 26
    33a8:	0e 94 1e 33 	call	0x663c	; 0x663c <__umulhisi3>
    33ac:	a7 01       	movw	r20, r14
    33ae:	96 01       	movw	r18, r12
    33b0:	0e 94 e0 32 	call	0x65c0	; 0x65c0 <__udivmodsi4>
    33b4:	30 93 32 01 	sts	0x0132, r19	; 0x800132 <pin_rpl+0x1>
    33b8:	20 93 31 01 	sts	0x0131, r18	; 0x800131 <pin_rpl>
  resis680pl = pin_rpl + R_L_VAL;
    33bc:	20 57       	subi	r18, 0x70	; 112
    33be:	35 4e       	sbci	r19, 0xE5	; 229
    33c0:	30 93 1c 01 	sts	0x011C, r19	; 0x80011c <resis680pl+0x1>
    33c4:	20 93 1b 01 	sts	0x011B, r18	; 0x80011b <resis680pl>
  resis680mi = pin_rmi + R_L_VAL;
    33c8:	80 e7       	ldi	r24, 0x70	; 112
    33ca:	88 1a       	sub	r8, r24
    33cc:	85 ee       	ldi	r24, 0xE5	; 229
    33ce:	98 0a       	sbc	r9, r24
    33d0:	90 92 15 01 	sts	0x0115, r9	; 0x800115 <resis680mi+0x1>
    33d4:	80 92 14 01 	sts	0x0114, r8	; 0x800114 <resis680mi>
#endif

  ADCconfig.Samples = ANZ_MESS;	// set to configured number of ADC samples
    33d8:	89 e1       	ldi	r24, 0x19	; 25
    33da:	80 93 2b 01 	sts	0x012B, r24	; 0x80012b <ADCconfig>
 } 
    33de:	cd b7       	in	r28, 0x3d	; 61
    33e0:	de b7       	in	r29, 0x3e	; 62
    33e2:	ec e0       	ldi	r30, 0x0C	; 12
    33e4:	0c 94 ea 33 	jmp	0x67d4	; 0x67d4 <__epilogue_restores__+0xc>

000033e8 <show_resis>:
void show_resis(byte pin1, byte pin2, byte how)
// can be invoked both from main() and from show_Resis13()
// pin1 and pin2 are resistor's pin numbers, but ResistorList[0] should also be correctly filled
// assumes resistance has already been measured, but will do inductance measurements as appropriate
// "how" flag tells how to show the results: if set [R] or [RL] will be shown in top right corner
{
    33e8:	cf 92       	push	r12
    33ea:	df 92       	push	r13
    33ec:	ef 92       	push	r14
    33ee:	ff 92       	push	r15
    33f0:	0f 93       	push	r16
    33f2:	cf 93       	push	r28
    33f4:	df 93       	push	r29
    33f6:	f8 2e       	mov	r15, r24
    33f8:	d6 2f       	mov	r29, r22
    33fa:	c4 2f       	mov	r28, r20
 #ifdef RMETER_WITH_L
           lcd_testpin(pin1);
    33fc:	0e 94 0e 02 	call	0x41c	; 0x41c <lcd_testpin>
           lcd_MEM_string(Resistor_str);	// -[==]-
    3400:	88 e0       	ldi	r24, 0x08	; 8
    3402:	91 e0       	ldi	r25, 0x01	; 1
    3404:	0e 94 7c 02 	call	0x4f8	; 0x4f8 <lcd_fix_string>
           lcd_refresh();
	   ReadInductance();	// measure inductance, possible only with R<2.1k
    3408:	16 d2       	rcall	.+1068   	; 0x3836 <ReadInductance>

  #ifdef SamplingADC
           sampling_lc(pin1,pin2);    // measure inductance using resonance method
    340a:	6d 2f       	mov	r22, r29
    340c:	8f 2d       	mov	r24, r15
    340e:	0e 94 44 2b 	call	0x5688	; 0x5688 <sampling_lc>

           // draw first line: the pin numbers, RR and possibly LL symbol, and possibly [R] or [RL]
           byte lclx0=(lc_lx==0);
    3412:	c0 90 b6 01 	lds	r12, 0x01B6	; 0x8001b6 <lc_lx>
    3416:	d0 90 b7 01 	lds	r13, 0x01B7	; 0x8001b7 <lc_lx+0x1>
    341a:	e0 90 b8 01 	lds	r14, 0x01B8	; 0x8001b8 <lc_lx+0x2>
    341e:	f0 90 b9 01 	lds	r15, 0x01B9	; 0x8001b9 <lc_lx+0x3>
           if (inductor_lpre < 0 || !lclx0) 
    3422:	80 91 01 01 	lds	r24, 0x0101	; 0x800101 <inductor_lpre>
    3426:	87 fd       	sbrc	r24, 7
    3428:	05 c0       	rjmp	.+10     	; 0x3434 <show_resis+0x4c>
    342a:	c1 14       	cp	r12, r1
    342c:	d1 04       	cpc	r13, r1
    342e:	e1 04       	cpc	r14, r1
    3430:	f1 04       	cpc	r15, r1
    3432:	21 f0       	breq	.+8      	; 0x343c <show_resis+0x54>
  #else 
           if (inductor_lpre < 0)
  #endif

           {
              lcd_MEM_string(Inductor_str+1);            // "LL-"
    3434:	84 e0       	ldi	r24, 0x04	; 4
    3436:	91 e0       	ldi	r25, 0x01	; 1
    3438:	0e 94 7c 02 	call	0x4f8	; 0x4f8 <lcd_fix_string>
           }
           lcd_testpin(pin2);
    343c:	8d 2f       	mov	r24, r29
    343e:	0e 94 0e 02 	call	0x41c	; 0x41c <lcd_testpin>

           // second line: measured R value (but that goes on first line if lc_lx!=0), and measured inductance, if applicable

 #ifdef SamplingADC
           if (!lclx0) {  /* inductance measured by sampling method */
    3442:	c1 14       	cp	r12, r1
    3444:	d1 04       	cpc	r13, r1
    3446:	e1 04       	cpc	r14, r1
    3448:	f1 04       	cpc	r15, r1
    344a:	a1 f1       	breq	.+104    	; 0x34b4 <show_resis+0xcc>
              lcd_space();
    344c:	0e 94 11 02 	call	0x422	; 0x422 <lcd_space>
              RvalOut(ResistorList[0]);		// show Resistance, probably ESR, still on first line
    3450:	80 91 56 01 	lds	r24, 0x0156	; 0x800156 <ResistorList>
    3454:	0e 94 7d 03 	call	0x6fa	; 0x6fa <RvalOut>
           }
  #endif
 
  #if FLASHEND > 0x3fff
           if (how) {
    3458:	cc 23       	and	r28, r28
    345a:	09 f4       	brne	.+2      	; 0x345e <show_resis+0x76>
    345c:	7e c0       	rjmp	.+252    	; 0x355a <show_resis+0x172>
              // still need to write "[RL]" or "[R]" at the end of first line, if it fits
              if (_lcd_column<=LCD_LINE_LENGTH-4) {
    345e:	80 91 3b 01 	lds	r24, 0x013B	; 0x80013b <_lcd_column>
    3462:	8d 30       	cpi	r24, 0x0D	; 13
    3464:	28 f4       	brcc	.+10     	; 0x3470 <show_resis+0x88>
                 lcd_MEM_string(RL_METER_str+(_lcd_column-6));	// " [R]" or "[RL]"
    3466:	90 e0       	ldi	r25, 0x00	; 0
    3468:	88 5d       	subi	r24, 0xD8	; 216
    346a:	9c 4f       	sbci	r25, 0xFC	; 252
    346c:	0e 94 7c 02 	call	0x4f8	; 0x4f8 <lcd_fix_string>
           }
  #else
           lcd_clear_line();
  #endif
//           lcd_line2();
           lcd_next_line_wait(0);
    3470:	80 e0       	ldi	r24, 0x00	; 0
    3472:	0e 94 f7 02 	call	0x5ee	; 0x5ee <lcd_next_line_wait>
  #ifdef SamplingADC
           if (!lclx0) {  /* Frequency found */
    3476:	cd 28       	or	r12, r13
    3478:	ce 28       	or	r12, r14
    347a:	cf 28       	or	r12, r15
    347c:	01 f1       	breq	.+64     	; 0x34be <show_resis+0xd6>
//              lcd_next_line(0);
              DisplayValue(lc_lx,lc_lpre,'H',3);	// output inductance
    347e:	60 91 b6 01 	lds	r22, 0x01B6	; 0x8001b6 <lc_lx>
    3482:	70 91 b7 01 	lds	r23, 0x01B7	; 0x8001b7 <lc_lx+0x1>
    3486:	80 91 b8 01 	lds	r24, 0x01B8	; 0x8001b8 <lc_lx+0x2>
    348a:	90 91 b9 01 	lds	r25, 0x01B9	; 0x8001b9 <lc_lx+0x3>
    348e:	03 e0       	ldi	r16, 0x03	; 3
    3490:	28 e4       	ldi	r18, 0x48	; 72
    3492:	47 ef       	ldi	r20, 0xF7	; 247
    3494:	0e 94 05 04 	call	0x80a	; 0x80a <DisplayValue>
              lcd_MEM2_string(iF_str);		// " if "
    3498:	87 e1       	ldi	r24, 0x17	; 23
    349a:	91 e0       	ldi	r25, 0x01	; 1
    349c:	0e 94 7c 02 	call	0x4f8	; 0x4f8 <lcd_fix_string>
              uint16_t lc_cpar;    // value of parallel capacitor used for calculating inductance, in pF
              lc_cpar=eeprom_read_word((uint16_t *)&lc_cpar_ee);
    34a0:	89 e3       	ldi	r24, 0x39	; 57
    34a2:	93 e0       	ldi	r25, 0x03	; 3
    34a4:	0e 94 63 34 	call	0x68c6	; 0x68c6 <eeprom_read_word>
   #if (LCD_LINES<3) && (LCD_LINE_LENGTH<17)
              DisplayValue16(lc_cpar,-12,'F',2);	        // on 2-line dispaly show parallel capacitance with only 2 digits to make room for the '+' sign at the end of the line
    34a8:	22 e0       	ldi	r18, 0x02	; 2
    34aa:	46 e4       	ldi	r20, 0x46	; 70
    34ac:	64 ef       	ldi	r22, 0xF4	; 244
    34ae:	0e 94 ef 04 	call	0x9de	; 0x9de <DisplayValue16>
    34b2:	1f c0       	rjmp	.+62     	; 0x34f2 <show_resis+0x10a>
              RvalOut(ResistorList[0]);		// show Resistance, probably ESR, still on first line
           }
  #endif
 
  #if FLASHEND > 0x3fff
           if (how) {
    34b4:	c1 11       	cpse	r28, r1
    34b6:	d3 cf       	rjmp	.-90     	; 0x345e <show_resis+0x76>
           }
  #else
           lcd_clear_line();
  #endif
//           lcd_line2();
           lcd_next_line_wait(0);
    34b8:	80 e0       	ldi	r24, 0x00	; 0
    34ba:	0e 94 f7 02 	call	0x5ee	; 0x5ee <lcd_next_line_wait>
   #endif
           } else 
  #endif
           {
//              lcd_next_line_wait(0);
              RvalOut(ResistorList[0]);		// show Resistance, probably ESR
    34be:	80 91 56 01 	lds	r24, 0x0156	; 0x800156 <ResistorList>
    34c2:	0e 94 7d 03 	call	0x6fa	; 0x6fa <RvalOut>

              if (inductor_lpre < -2) {
    34c6:	80 91 01 01 	lds	r24, 0x0101	; 0x800101 <inductor_lpre>
    34ca:	8e 3f       	cpi	r24, 0xFE	; 254
    34cc:	94 f4       	brge	.+36     	; 0x34f2 <show_resis+0x10a>
                 // resistor has also inductance
                 lcd_MEM_string(Lis_str);		// "L="
    34ce:	81 e3       	ldi	r24, 0x31	; 49
    34d0:	91 e0       	ldi	r25, 0x01	; 1
    34d2:	0e 94 7c 02 	call	0x4f8	; 0x4f8 <lcd_fix_string>
                 DisplayValue(inductor_lx,inductor_lpre,'H',3);        // output classic inductance
    34d6:	60 91 09 01 	lds	r22, 0x0109	; 0x800109 <inductor_lx>
    34da:	70 91 0a 01 	lds	r23, 0x010A	; 0x80010a <inductor_lx+0x1>
    34de:	80 91 0b 01 	lds	r24, 0x010B	; 0x80010b <inductor_lx+0x2>
    34e2:	90 91 0c 01 	lds	r25, 0x010C	; 0x80010c <inductor_lx+0x3>
    34e6:	03 e0       	ldi	r16, 0x03	; 3
    34e8:	28 e4       	ldi	r18, 0x48	; 72
    34ea:	40 91 01 01 	lds	r20, 0x0101	; 0x800101 <inductor_lpre>
    34ee:	0e 94 05 04 	call	0x80a	; 0x80a <DisplayValue>

           }
           // third line: measured resonance frequency and Q, if applicable

  #ifdef SamplingADC
           if (lc_fx) {
    34f2:	80 91 ae 01 	lds	r24, 0x01AE	; 0x8001ae <lc_fx>
    34f6:	90 91 af 01 	lds	r25, 0x01AF	; 0x8001af <lc_fx+0x1>
    34fa:	a0 91 b0 01 	lds	r26, 0x01B0	; 0x8001b0 <lc_fx+0x2>
    34fe:	b0 91 b1 01 	lds	r27, 0x01B1	; 0x8001b1 <lc_fx+0x3>
    3502:	89 2b       	or	r24, r25
    3504:	8a 2b       	or	r24, r26
    3506:	8b 2b       	or	r24, r27
    3508:	f1 f0       	breq	.+60     	; 0x3546 <show_resis+0x15e>
              lcd_next_line_wait(0);
    350a:	80 e0       	ldi	r24, 0x00	; 0
    350c:	0e 94 f7 02 	call	0x5ee	; 0x5ee <lcd_next_line_wait>
              DisplayValue(lc_fx,lc_fpre,'H',4);
    3510:	60 91 ae 01 	lds	r22, 0x01AE	; 0x8001ae <lc_fx>
    3514:	70 91 af 01 	lds	r23, 0x01AF	; 0x8001af <lc_fx+0x1>
    3518:	80 91 b0 01 	lds	r24, 0x01B0	; 0x8001b0 <lc_fx+0x2>
    351c:	90 91 b1 01 	lds	r25, 0x01B1	; 0x8001b1 <lc_fx+0x3>
    3520:	04 e0       	ldi	r16, 0x04	; 4
    3522:	28 e4       	ldi	r18, 0x48	; 72
    3524:	40 e0       	ldi	r20, 0x00	; 0
    3526:	0e 94 05 04 	call	0x80a	; 0x80a <DisplayValue>
              lcd_MEM2_string(zQ_str);		// "z Q="
    352a:	82 e1       	ldi	r24, 0x12	; 18
    352c:	91 e0       	ldi	r25, 0x01	; 1
    352e:	0e 94 7c 02 	call	0x4f8	; 0x4f8 <lcd_fix_string>
              DisplayValue16(lc_qx, lc_qpre,' ',3);
    3532:	23 e0       	ldi	r18, 0x03	; 3
    3534:	40 e2       	ldi	r20, 0x20	; 32
    3536:	6f ef       	ldi	r22, 0xFF	; 255
    3538:	80 91 b4 01 	lds	r24, 0x01B4	; 0x8001b4 <lc_qx>
    353c:	90 91 b5 01 	lds	r25, 0x01B5	; 0x8001b5 <lc_qx+0x1>
    3540:	0e 94 ef 04 	call	0x9de	; 0x9de <DisplayValue16>
    3544:	07 c0       	rjmp	.+14     	; 0x3554 <show_resis+0x16c>
           } else {
//  #if LCD_LINES>2
//              // make sure we clean the third line, but only if the display actually has a 3rd line
//              lcd_next_line(0);
//  #endif
              lcd_next_line(0);
    3546:	80 e0       	ldi	r24, 0x00	; 0
    3548:	0e 94 de 02 	call	0x5bc	; 0x5bc <lcd_next_line>
	      if (last_line_used == 0) {
    354c:	80 91 3e 01 	lds	r24, 0x013E	; 0x80013e <last_line_used>
    3550:	81 11       	cpse	r24, r1
    3552:	07 c0       	rjmp	.+14     	; 0x3562 <show_resis+0x17a>
                 lcd_clear_line();
    3554:	0e 94 d8 02 	call	0x5b0	; 0x5b0 <lcd_clear_line>
 #else		/* without Inductance measurement, only show resistance */
           lcd_line2();
           inductor_lpre = -1;		// prevent ESR measurement because Inductance is not tested
           RvalOut(ResistorList[0]);	// show Resistance, no ESR
 #endif
}
    3558:	04 c0       	rjmp	.+8      	; 0x3562 <show_resis+0x17a>
           }
  #else
           lcd_clear_line();
  #endif
//           lcd_line2();
           lcd_next_line_wait(0);
    355a:	80 e0       	ldi	r24, 0x00	; 0
    355c:	0e 94 f7 02 	call	0x5ee	; 0x5ee <lcd_next_line_wait>
    3560:	8e cf       	rjmp	.-228    	; 0x347e <show_resis+0x96>
 #else		/* without Inductance measurement, only show resistance */
           lcd_line2();
           inductor_lpre = -1;		// prevent ESR measurement because Inductance is not tested
           RvalOut(ResistorList[0]);	// show Resistance, no ESR
 #endif
}
    3562:	df 91       	pop	r29
    3564:	cf 91       	pop	r28
    3566:	0f 91       	pop	r16
    3568:	ff 90       	pop	r15
    356a:	ef 90       	pop	r14
    356c:	df 90       	pop	r13
    356e:	cf 90       	pop	r12
    3570:	08 95       	ret

00003572 <show_cap>:
#if FLASHEND > 0x3fff
void show_cap(uint8_t how)
#else
void show_cap_simple(void)
#endif
{
    3572:	cf 92       	push	r12
    3574:	df 92       	push	r13
    3576:	ef 92       	push	r14
    3578:	ff 92       	push	r15
    357a:	0f 93       	push	r16
    357c:	cf 93       	push	r28
    357e:	c8 2f       	mov	r28, r24
//     lcd_MEM_string(Capacitor);
  lcd_line1();
    3580:	0e 94 3a 02 	call	0x474	; 0x474 <lcd_line1>
  lcd_testpin(cap.ca);               //Pin number 1
    3584:	80 91 83 01 	lds	r24, 0x0183	; 0x800183 <cap+0x10>
    3588:	0e 94 0e 02 	call	0x41c	; 0x41c <lcd_testpin>
  lcd_MEM_string(CapZeich);          // capacitor sign
    358c:	8d e4       	ldi	r24, 0x4D	; 77
    358e:	91 e0       	ldi	r25, 0x01	; 1
    3590:	0e 94 7c 02 	call	0x4f8	; 0x4f8 <lcd_fix_string>
#if FLASHEND > 0x1fff
  uint8_t present_res;	// true, if resistor symbol is shown in Row 1
  uint8_t present_esr;
  uint8_t present_vloss;
  GetVloss();              
    3594:	31 d5       	rcall	.+2658   	; 0x3ff8 <GetVloss>
  cap.esr = GetESR(cap.cb, cap.ca);          // get ESR of capacitor
    3596:	60 91 83 01 	lds	r22, 0x0183	; 0x800183 <cap+0x10>
    359a:	80 91 84 01 	lds	r24, 0x0184	; 0x800184 <cap+0x11>
    359e:	85 d3       	rcall	.+1802   	; 0x3caa <GetESR>
    35a0:	7c 01       	movw	r14, r24
    35a2:	90 93 80 01 	sts	0x0180, r25	; 0x800180 <cap+0xd>
    35a6:	80 93 7f 01 	sts	0x017F, r24	; 0x80017f <cap+0xc>

  present_esr = (cap.esr < 65530);
  present_vloss = (cap.v_loss != 0);
    35aa:	c0 90 81 01 	lds	r12, 0x0181	; 0x800181 <cap+0xe>
    35ae:	d0 90 82 01 	lds	r13, 0x0182	; 0x800182 <cap+0xf>
 #if (LCD_LINES > 2)
  present_res = present_esr; // show every time a well ESR value is detected, Vloss extra line
 #else
  #if FLASHEND > 0x3fff
  present_res = (present_esr  && (!present_vloss || how));
    35b2:	8a ef       	ldi	r24, 0xFA	; 250
    35b4:	e8 16       	cp	r14, r24
    35b6:	8f ef       	ldi	r24, 0xFF	; 255
    35b8:	f8 06       	cpc	r15, r24
    35ba:	78 f4       	brcc	.+30     	; 0x35da <show_cap+0x68>
    35bc:	c1 14       	cp	r12, r1
    35be:	d1 04       	cpc	r13, r1
    35c0:	41 f0       	breq	.+16     	; 0x35d2 <show_cap+0x60>
    35c2:	81 e0       	ldi	r24, 0x01	; 1
    35c4:	90 e0       	ldi	r25, 0x00	; 0
    35c6:	c1 11       	cpse	r28, r1
    35c8:	02 c0       	rjmp	.+4      	; 0x35ce <show_cap+0x5c>
    35ca:	80 e0       	ldi	r24, 0x00	; 0
    35cc:	90 e0       	ldi	r25, 0x00	; 0
  #else
  present_res = (present_esr  && (!present_vloss));
  #endif
  // show Vloss additionally in line 2 , or no Vloss
 #endif
  if (present_res)
    35ce:	89 2b       	or	r24, r25
    35d0:	21 f0       	breq	.+8      	; 0x35da <show_cap+0x68>
  {
     lcd_MEM_string(Resistor_str+1);   // [=]-
    35d2:	89 e0       	ldi	r24, 0x09	; 9
    35d4:	91 e0       	ldi	r25, 0x01	; 1
    35d6:	0e 94 7c 02 	call	0x4f8	; 0x4f8 <lcd_fix_string>
  }
#endif   /* FLASHEND > 0x1fff */
  lcd_testpin(cap.cb);               //Pin number 2
    35da:	80 91 84 01 	lds	r24, 0x0184	; 0x800184 <cap+0x11>
    35de:	0e 94 0e 02 	call	0x41c	; 0x41c <lcd_testpin>

#if FLASHEND > 0x1fff
 #if FLASHEND > 0x3fff
  if (how) {
    35e2:	cc 23       	and	r28, r28
    35e4:	59 f0       	breq	.+22     	; 0x35fc <show_cap+0x8a>
     // Vloss is allways shown in separate line
     lcd_spaces(LCD_LINE_LENGTH - 3 - _lcd_column);
    35e6:	90 91 3b 01 	lds	r25, 0x013B	; 0x80013b <_lcd_column>
    35ea:	8d e0       	ldi	r24, 0x0D	; 13
    35ec:	89 1b       	sub	r24, r25
    35ee:	0e 94 14 02 	call	0x428	; 0x428 <lcd_spaces>
     lcd_MEM2_string(CMETER_13_str);       // "[C]" at the end of line 1
    35f2:	89 e6       	ldi	r24, 0x69	; 105
    35f4:	90 e0       	ldi	r25, 0x00	; 0
    35f6:	0e 94 7c 02 	call	0x4f8	; 0x4f8 <lcd_fix_string>
    35fa:	15 c0       	rjmp	.+42     	; 0x3626 <show_cap+0xb4>
  } else {
 #endif  /* FLASHENF > 0x3fff */

 #if (LCD_LINES <= 2) /* Vloss in line 1 */
     if (cap.v_loss != 0) {
    35fc:	80 91 81 01 	lds	r24, 0x0181	; 0x800181 <cap+0xe>
    3600:	90 91 82 01 	lds	r25, 0x0182	; 0x800182 <cap+0xf>
    3604:	89 2b       	or	r24, r25
    3606:	69 f0       	breq	.+26     	; 0x3622 <show_cap+0xb0>
        lcd_MEM_string(VLOSS_str);      // " Vloss=" 
    3608:	84 e3       	ldi	r24, 0x34	; 52
    360a:	91 e0       	ldi	r25, 0x01	; 1
    360c:	0e 94 7c 02 	call	0x4f8	; 0x4f8 <lcd_fix_string>
        DisplayValue16(cap.v_loss,-1,'%',2);
    3610:	22 e0       	ldi	r18, 0x02	; 2
    3612:	45 e2       	ldi	r20, 0x25	; 37
    3614:	6f ef       	ldi	r22, 0xFF	; 255
    3616:	80 91 81 01 	lds	r24, 0x0181	; 0x800181 <cap+0xe>
    361a:	90 91 82 01 	lds	r25, 0x0182	; 0x800182 <cap+0xf>
    361e:	0e 94 ef 04 	call	0x9de	; 0x9de <DisplayValue16>
     }
 #endif
     lcd_clear_line();		// clear to end of line
    3622:	0e 94 d8 02 	call	0x5b0	; 0x5b0 <lcd_clear_line>
#else
  lcd_clear_line();		// clear to end of line
#endif  /* FLASHEND > 0x1fff */

// - - - - - - - - - - - - - - - - - - - - - -
  lcd_line2();                       //2. row 
    3626:	0e 94 48 02 	call	0x490	; 0x490 <lcd_line2>
  DisplayValue(cap.cval_max,cap.cpre_max,'F',4);
    362a:	60 91 77 01 	lds	r22, 0x0177	; 0x800177 <cap+0x4>
    362e:	70 91 78 01 	lds	r23, 0x0178	; 0x800178 <cap+0x5>
    3632:	80 91 79 01 	lds	r24, 0x0179	; 0x800179 <cap+0x6>
    3636:	90 91 7a 01 	lds	r25, 0x017A	; 0x80017a <cap+0x7>
    363a:	04 e0       	ldi	r16, 0x04	; 4
    363c:	26 e4       	ldi	r18, 0x46	; 70
    363e:	40 91 86 01 	lds	r20, 0x0186	; 0x800186 <cap+0x13>
    3642:	0e 94 05 04 	call	0x80a	; 0x80a <DisplayValue>

#if FLASHEND > 0x1fff
  if (present_esr) {
    3646:	8a ef       	ldi	r24, 0xFA	; 250
    3648:	e8 16       	cp	r14, r24
    364a:	8f ef       	ldi	r24, 0xFF	; 255
    364c:	f8 06       	cpc	r15, r24
    364e:	68 f4       	brcc	.+26     	; 0x366a <show_cap+0xf8>
     lcd_MEM_string(ESR_str);        // " ESR="
    3650:	8c e3       	ldi	r24, 0x3C	; 60
    3652:	91 e0       	ldi	r25, 0x01	; 1
    3654:	0e 94 7c 02 	call	0x4f8	; 0x4f8 <lcd_fix_string>
     DisplayValue16(cap.esr,-2,LCD_CHAR_OMEGA,2);
    3658:	22 e0       	ldi	r18, 0x02	; 2
    365a:	44 ef       	ldi	r20, 0xF4	; 244
    365c:	6e ef       	ldi	r22, 0xFE	; 254
    365e:	80 91 7f 01 	lds	r24, 0x017F	; 0x80017f <cap+0xc>
    3662:	90 91 80 01 	lds	r25, 0x0180	; 0x800180 <cap+0xd>
    3666:	0e 94 ef 04 	call	0x9de	; 0x9de <DisplayValue16>
  }
  lcd_clear_line();
    366a:	0e 94 d8 02 	call	0x5b0	; 0x5b0 <lcd_clear_line>
        DisplayValue16(cap.v_loss,-1,'%',2);
     }
     lcd_clear_line();
 #else  /* only two lines */
  #if FLASHEND > 0x3fff
  if (how && present_vloss)
    366e:	cc 23       	and	r28, r28
    3670:	91 f0       	breq	.+36     	; 0x3696 <show_cap+0x124>
    3672:	cd 28       	or	r12, r13
    3674:	81 f0       	breq	.+32     	; 0x3696 <show_cap+0x124>
  {
     lcd_next_line_wait(0);		// show vloss after waiting
    3676:	80 e0       	ldi	r24, 0x00	; 0
    3678:	0e 94 f7 02 	call	0x5ee	; 0x5ee <lcd_next_line_wait>
     lcd_MEM_string(&VLOSS_str[1]);      // "Vloss=" 
    367c:	85 e3       	ldi	r24, 0x35	; 53
    367e:	91 e0       	ldi	r25, 0x01	; 1
    3680:	0e 94 7c 02 	call	0x4f8	; 0x4f8 <lcd_fix_string>
     DisplayValue16(cap.v_loss,-1,'%',2);
    3684:	22 e0       	ldi	r18, 0x02	; 2
    3686:	45 e2       	ldi	r20, 0x25	; 37
    3688:	6f ef       	ldi	r22, 0xFF	; 255
    368a:	80 91 81 01 	lds	r24, 0x0181	; 0x800181 <cap+0xe>
    368e:	90 91 82 01 	lds	r25, 0x0182	; 0x800182 <cap+0xf>
    3692:	0e 94 ef 04 	call	0x9de	; 0x9de <DisplayValue16>
  }
  lcd_clear_line();		// clear to end of line
    3696:	0e 94 d8 02 	call	0x5b0	; 0x5b0 <lcd_clear_line>
  #endif
 #endif
#else
  lcd_clear_line();
#endif  /* FLASHEND > 0x1fff */
} /* end show_cap or show_cap_simple */
    369a:	cf 91       	pop	r28
    369c:	0f 91       	pop	r16
    369e:	ff 90       	pop	r15
    36a0:	ef 90       	pop	r14
    36a2:	df 90       	pop	r13
    36a4:	cf 90       	pop	r12
    36a6:	08 95       	ret

000036a8 <Bat_update>:
#endif  /* FLASHEND > 0x3fff */

#if defined(POWER_OFF) && defined(BAT_CHECK)
// monitor Battery in line 4 or line2, if a two line display 
void Bat_update(uint8_t tt) {
  if((tt % 16) == 0) {
    36a8:	8f 70       	andi	r24, 0x0F	; 15
    36aa:	51 f4       	brne	.+20     	; 0x36c0 <Bat_update+0x18>
 #if (LCD_LINES > 3)
     lcd_line4();
     Battery_check();
 #else
     wait_about1s();	/* time delay before overwiting line2 with Bat= message */
    36ac:	88 ec       	ldi	r24, 0xC8	; 200
    36ae:	0e 94 47 05 	call	0xa8e	; 0xa8e <sleep_5ms>
  #if (LCD_LINES == 3)
     lcd_line3();	// use the last line for Bat=
  #else
     lcd_line2();	// use the last line for Bat=
    36b2:	0e 94 48 02 	call	0x490	; 0x490 <lcd_line2>
  #endif
     Battery_check();
    36b6:	0e 94 58 0b 	call	0x16b0	; 0x16b0 <Battery_check>
     wait_about1s();	/* time delay for reading the Bat= message */
    36ba:	88 ec       	ldi	r24, 0xC8	; 200
    36bc:	0c 94 47 05 	jmp	0xa8e	; 0xa8e <sleep_5ms>
    36c0:	08 95       	ret

000036c2 <Pwr_mode_check>:
};	/* end Bat_update() */
#endif
#if defined(POWER_OFF)
uint8_t Pwr_mode_check(uint8_t tt) {
 #if FLASHEND > 0x1fff
 if ((tt == 15) && (DC_Pwr_mode == 1)) return(0);  // when DC_Mode, next cycle start with 0
    36c2:	8f 30       	cpi	r24, 0x0F	; 15
    36c4:	21 f4       	brne	.+8      	; 0x36ce <Pwr_mode_check+0xc>
    36c6:	90 91 35 01 	lds	r25, 0x0135	; 0x800135 <DC_Pwr_mode>
    36ca:	91 30       	cpi	r25, 0x01	; 1
    36cc:	11 f0       	breq	.+4      	; 0x36d2 <Pwr_mode_check+0x10>
 #else
 if (tt == 15)  return(0);  // when DC_Mode, next cycle start with 0
 #endif
 return(tt + 1);	// otherwise increase
    36ce:	8f 5f       	subi	r24, 0xFF	; 255
    36d0:	08 95       	ret
};	/* end Bat_update() */
#endif
#if defined(POWER_OFF)
uint8_t Pwr_mode_check(uint8_t tt) {
 #if FLASHEND > 0x1fff
 if ((tt == 15) && (DC_Pwr_mode == 1)) return(0);  // when DC_Mode, next cycle start with 0
    36d2:	80 e0       	ldi	r24, 0x00	; 0
 #else
 if (tt == 15)  return(0);  // when DC_Mode, next cycle start with 0
 #endif
 return(tt + 1);	// otherwise increase
};
    36d4:	08 95       	ret

000036d6 <show_Resis13>:
/* ****************************************************************** */
/* show_Resis13 measures the resistance of a part connected to TP1 and TP3 */
/* if RMETER_WITH_L is configured, inductance is also measured */
/* ****************************************************************** */

void show_Resis13(void) {
    36d6:	cf 93       	push	r28
  uint8_t key_pressed;
  message_key_released(RESIS_13_str);	// "1-|=|-3 .."
    36d8:	84 e7       	ldi	r24, 0x74	; 116
    36da:	90 e0       	ldi	r25, 0x00	; 0
    36dc:	0e 94 2f 26 	call	0x4c5e	; 0x4c5e <message_key_released>
  lcd_set_cursor(0,6);
  lcd_MEM_string(RL_METER_str);	// " [R]" or "[RL]"
#endif
#ifdef POWER_OFF
  uint8_t times;
  for (times=0;times<250;) 
    36e0:	c0 e0       	ldi	r28, 0x00	; 0
 #else
  while (1)		/* wait endless without the POWER_OFF option */
 #endif
  {
        init_parts();		// set all parts to nothing found 
    36e2:	0e 94 f0 06 	call	0xde0	; 0xde0 <init_parts>
        GetResistance(TP3, TP1);
    36e6:	60 e0       	ldi	r22, 0x00	; 0
    36e8:	82 e0       	ldi	r24, 0x02	; 2
    36ea:	0e 94 d5 12 	call	0x25aa	; 0x25aa <GetResistance>
        GetResistance(TP1, TP3);
    36ee:	62 e0       	ldi	r22, 0x02	; 2
    36f0:	80 e0       	ldi	r24, 0x00	; 0
    36f2:	0e 94 d5 12 	call	0x25aa	; 0x25aa <GetResistance>
	lcd_line1();		// lcd_set_cursor(0,0);
    36f6:	0e 94 3a 02 	call	0x474	; 0x474 <lcd_line1>
        if (ResistorsFound != 0) {
    36fa:	80 91 6f 01 	lds	r24, 0x016F	; 0x80016f <ResistorsFound>
    36fe:	88 23       	and	r24, r24
    3700:	29 f0       	breq	.+10     	; 0x370c <show_Resis13+0x36>
           show_resis(TP1,TP3,1);
    3702:	41 e0       	ldi	r20, 0x01	; 1
    3704:	62 e0       	ldi	r22, 0x02	; 2
    3706:	80 e0       	ldi	r24, 0x00	; 0
    3708:	6f de       	rcall	.-802    	; 0x33e8 <show_resis>
    370a:	0f c0       	rjmp	.+30     	; 0x372a <show_Resis13+0x54>
        } else {		/* no resistor found */
 #if defined(SamplingADC) && defined(AUTO_LC_CAP)
	   sampling_lc_calibrate(249);		// try a short time to fetch new capacity value
 #endif
 #ifdef RMETER_WITH_L
           lcd_MEM_string(RESIS_13_str);
    370c:	84 e7       	ldi	r24, 0x74	; 116
    370e:	90 e0       	ldi	r25, 0x00	; 0
    3710:	0e 94 7c 02 	call	0x4f8	; 0x4f8 <lcd_fix_string>
           lcd_MEM_string(RL_METER_str+4);	// " [R]" or "[RL]"
    3714:	82 e3       	ldi	r24, 0x32	; 50
    3716:	93 e0       	ldi	r25, 0x03	; 3
    3718:	0e 94 7c 02 	call	0x4f8	; 0x4f8 <lcd_fix_string>
 #endif
           lcd_line2();
    371c:	0e 94 48 02 	call	0x490	; 0x490 <lcd_line2>
           lcd_data('?');		// too big
    3720:	8f e3       	ldi	r24, 0x3F	; 63
    3722:	0e 94 d8 01 	call	0x3b0	; 0x3b0 <lcd_data>
 #if LCD_LINES>2
           lcd_next_line(0);
 #endif
           lcd_clear_line();
    3726:	0e 94 d8 02 	call	0x5b0	; 0x5b0 <lcd_clear_line>
        }
 #if defined(POWER_OFF) && defined(BAT_CHECK)
     Bat_update(times);
    372a:	8c 2f       	mov	r24, r28
    372c:	bd df       	rcall	.-134    	; 0x36a8 <Bat_update>
 #endif
     key_pressed = wait_for_key_ms(1000);
    372e:	88 ee       	ldi	r24, 0xE8	; 232
    3730:	93 e0       	ldi	r25, 0x03	; 3
    3732:	0e 94 f1 05 	call	0xbe2	; 0xbe2 <wait_for_key_ms>
 #ifdef WITH_ROTARY_SWITCH
     if ((key_pressed != 0) || (rotary.incre > 3)) break;
 #else
     if (key_pressed != 0) break;
    3736:	81 11       	cpse	r24, r1
 #endif
 #if defined(POWER_OFF)
     times = Pwr_mode_check(times);	// no time limit with DC_Pwr_mode
    3738:	05 c0       	rjmp	.+10     	; 0x3744 <show_Resis13+0x6e>
    373a:	8c 2f       	mov	r24, r28
    373c:	c2 df       	rcall	.-124    	; 0x36c2 <Pwr_mode_check>
    373e:	c8 2f       	mov	r28, r24
  lcd_set_cursor(0,6);
  lcd_MEM_string(RL_METER_str);	// " [R]" or "[RL]"
#endif
#ifdef POWER_OFF
  uint8_t times;
  for (times=0;times<250;) 
    3740:	8a 3f       	cpi	r24, 0xFA	; 250
    3742:	78 f2       	brcs	.-98     	; 0x36e2 <show_Resis13+0xc>
 #endif
 #if defined(POWER_OFF)
     times = Pwr_mode_check(times);	// no time limit with DC_Pwr_mode
 #endif
  }  /* end for times */
  lcd_clear();
    3744:	0e 94 42 02 	call	0x484	; 0x484 <lcd_clear>
} /* end show_Resis13() */
    3748:	cf 91       	pop	r28
    374a:	08 95       	ret

0000374c <show_Cap13>:
 #if (LCD_LINES > 2)
  #define SCREEN_TIME 1000
 #else
  #define SCREEN_TIME 2000	/* line 2 is multi use, wait longer to read */
 #endif
void show_Cap13(void) {
    374c:	0f 93       	push	r16
    374e:	1f 93       	push	r17
    3750:	cf 93       	push	r28
    3752:	df 93       	push	r29
  uint8_t key_pressed;

//  lcd_clear();
 #ifdef POWER_OFF
  uint8_t times;
  for (times=0;times<250;) 
    3754:	c0 e0       	ldi	r28, 0x00	; 0
 #endif
  {
     init_parts();		// set all parts to nothing found 
//     cap.v_loss = 0;		// clear vloss  for low capacity values (<25pF)!
     ReadCapacity(TP3, TP1);
     PartFound = PART_CAPACITOR;
    3756:	d8 e0       	ldi	r29, 0x08	; 8
       cap.cval_max = cap.cval;
       show_cap(1);		// with [C] at the end of line
     } else { /* no cap detected */
       lcd_line1();
       lcd_MEM2_string(CAP_13_str);	// 1-||-3
       lcd_spaces(LCD_LINE_LENGTH - 3 - _lcd_column);
    3758:	12 ef       	ldi	r17, 0xF2	; 242
  for (times=0;times<250;) 
 #else
  while (1)		/* wait endless without the POWER_OFF option */
 #endif
  {
     init_parts();		// set all parts to nothing found 
    375a:	0d e0       	ldi	r16, 0x0D	; 13
    375c:	0e 94 f0 06 	call	0xde0	; 0xde0 <init_parts>
//     cap.v_loss = 0;		// clear vloss  for low capacity values (<25pF)!
     ReadCapacity(TP3, TP1);
    3760:	60 e0       	ldi	r22, 0x00	; 0
    3762:	82 e0       	ldi	r24, 0x02	; 2
    3764:	21 da       	rcall	.-3006   	; 0x2ba8 <ReadCapacity>
     PartFound = PART_CAPACITOR;
    3766:	d0 93 1a 01 	sts	0x011A, r29	; 0x80011a <PartFound>
 #ifdef SamplingADC
     if (cap.cpre==-12 && cap.cval<100) {
    376a:	80 91 85 01 	lds	r24, 0x0185	; 0x800185 <cap+0x12>
    376e:	84 3f       	cpi	r24, 0xF4	; 244
    3770:	e1 f4       	brne	.+56     	; 0x37aa <show_Cap13+0x5e>
    3772:	80 91 73 01 	lds	r24, 0x0173	; 0x800173 <cap>
    3776:	90 91 74 01 	lds	r25, 0x0174	; 0x800174 <cap+0x1>
    377a:	a0 91 75 01 	lds	r26, 0x0175	; 0x800175 <cap+0x2>
    377e:	b0 91 76 01 	lds	r27, 0x0176	; 0x800176 <cap+0x3>
    3782:	84 36       	cpi	r24, 0x64	; 100
    3784:	91 05       	cpc	r25, r1
    3786:	a1 05       	cpc	r26, r1
    3788:	b1 05       	cpc	r27, r1
    378a:	78 f4       	brcc	.+30     	; 0x37aa <show_Cap13+0x5e>
        // if below 100 pF, try the alternative measuring method for small capacitors
        cap.cval = sampling_cap(TP3,TP1,0);
    378c:	40 e0       	ldi	r20, 0x00	; 0
    378e:	60 e0       	ldi	r22, 0x00	; 0
    3790:	82 e0       	ldi	r24, 0x02	; 2
    3792:	0e 94 ef 28 	call	0x51de	; 0x51de <sampling_cap>
    3796:	60 93 73 01 	sts	0x0173, r22	; 0x800173 <cap>
    379a:	70 93 74 01 	sts	0x0174, r23	; 0x800174 <cap+0x1>
    379e:	80 93 75 01 	sts	0x0175, r24	; 0x800175 <cap+0x2>
    37a2:	90 93 76 01 	sts	0x0176, r25	; 0x800176 <cap+0x3>
        cap.cpre = sampling_cap_pre;
    37a6:	10 93 85 01 	sts	0x0185, r17	; 0x800185 <cap+0x12>
     }
 #endif
     if (cap.cpre > -15) {	/* Capacity below the detection limit */
    37aa:	80 91 85 01 	lds	r24, 0x0185	; 0x800185 <cap+0x12>
    37ae:	82 3f       	cpi	r24, 0xF2	; 242
    37b0:	ac f0       	brlt	.+42     	; 0x37dc <show_Cap13+0x90>
       cap.cpre_max = cap.cpre;		// show_cap will display the cap.cval_max value
    37b2:	80 93 86 01 	sts	0x0186, r24	; 0x800186 <cap+0x13>
       cap.cval_max = cap.cval;
    37b6:	80 91 73 01 	lds	r24, 0x0173	; 0x800173 <cap>
    37ba:	90 91 74 01 	lds	r25, 0x0174	; 0x800174 <cap+0x1>
    37be:	a0 91 75 01 	lds	r26, 0x0175	; 0x800175 <cap+0x2>
    37c2:	b0 91 76 01 	lds	r27, 0x0176	; 0x800176 <cap+0x3>
    37c6:	80 93 77 01 	sts	0x0177, r24	; 0x800177 <cap+0x4>
    37ca:	90 93 78 01 	sts	0x0178, r25	; 0x800178 <cap+0x5>
    37ce:	a0 93 79 01 	sts	0x0179, r26	; 0x800179 <cap+0x6>
    37d2:	b0 93 7a 01 	sts	0x017A, r27	; 0x80017a <cap+0x7>
       show_cap(1);		// with [C] at the end of line
    37d6:	81 e0       	ldi	r24, 0x01	; 1
    37d8:	cc de       	rcall	.-616    	; 0x3572 <show_cap>
    37da:	18 c0       	rjmp	.+48     	; 0x380c <show_Cap13+0xc0>
     } else { /* no cap detected */
       lcd_line1();
    37dc:	0e 94 3a 02 	call	0x474	; 0x474 <lcd_line1>
       lcd_MEM2_string(CAP_13_str);	// 1-||-3
    37e0:	8d e6       	ldi	r24, 0x6D	; 109
    37e2:	90 e0       	ldi	r25, 0x00	; 0
    37e4:	0e 94 7c 02 	call	0x4f8	; 0x4f8 <lcd_fix_string>
       lcd_spaces(LCD_LINE_LENGTH - 3 - _lcd_column);
    37e8:	80 91 3b 01 	lds	r24, 0x013B	; 0x80013b <_lcd_column>
    37ec:	90 2f       	mov	r25, r16
    37ee:	98 1b       	sub	r25, r24
    37f0:	89 2f       	mov	r24, r25
    37f2:	0e 94 14 02 	call	0x428	; 0x428 <lcd_spaces>
       lcd_MEM2_string(CMETER_13_str);       // "[C]" at the end of line 1
    37f6:	89 e6       	ldi	r24, 0x69	; 105
    37f8:	90 e0       	ldi	r25, 0x00	; 0
    37fa:	0e 94 7c 02 	call	0x4f8	; 0x4f8 <lcd_fix_string>
       lcd_line2();
    37fe:	0e 94 48 02 	call	0x490	; 0x490 <lcd_line2>
       lcd_data('?');
    3802:	8f e3       	ldi	r24, 0x3F	; 63
    3804:	0e 94 d8 01 	call	0x3b0	; 0x3b0 <lcd_data>
       lcd_clear_line();		// clear to end of line 2
    3808:	0e 94 d8 02 	call	0x5b0	; 0x5b0 <lcd_clear_line>
       lcd_line3();	
       lcd_clear_line();	// clear old Vloss= message
 #endif
     }
 #if defined(POWER_OFF) && defined(BAT_CHECK)
     Bat_update(times);
    380c:	8c 2f       	mov	r24, r28
 #endif
     key_pressed = wait_for_key_ms(SCREEN_TIME);
    380e:	4c df       	rcall	.-360    	; 0x36a8 <Bat_update>
    3810:	80 ed       	ldi	r24, 0xD0	; 208
    3812:	97 e0       	ldi	r25, 0x07	; 7
    3814:	0e 94 f1 05 	call	0xbe2	; 0xbe2 <wait_for_key_ms>
 #ifdef WITH_ROTARY_SWITCH
     if ((key_pressed != 0) || (rotary.incre > 3)) break;
 #else
     if (key_pressed != 0) break;
    3818:	81 11       	cpse	r24, r1
 #endif
 #if defined(POWER_OFF)
     times = Pwr_mode_check(times);	// no time limit with DC_Pwr_mode
    381a:	06 c0       	rjmp	.+12     	; 0x3828 <show_Cap13+0xdc>
    381c:	8c 2f       	mov	r24, r28
    381e:	51 df       	rcall	.-350    	; 0x36c2 <Pwr_mode_check>
    3820:	c8 2f       	mov	r28, r24
  uint8_t key_pressed;

//  lcd_clear();
 #ifdef POWER_OFF
  uint8_t times;
  for (times=0;times<250;) 
    3822:	8a 3f       	cpi	r24, 0xFA	; 250
    3824:	08 f4       	brcc	.+2      	; 0x3828 <show_Cap13+0xdc>
    3826:	9a cf       	rjmp	.-204    	; 0x375c <show_Cap13+0x10>
 #endif
 #if defined(POWER_OFF)
     times = Pwr_mode_check(times);	// no time limit with DC_Pwr_mode
 #endif
  }  /* end for times */
  lcd_clear();		// clear to end of line
    3828:	0e 94 42 02 	call	0x484	; 0x484 <lcd_clear>
} /* end show_Cap13() */
    382c:	df 91       	pop	r29
    382e:	cf 91       	pop	r28
    3830:	1f 91       	pop	r17
    3832:	0f 91       	pop	r16
    3834:	08 95       	ret

00003836 <ReadInductance>:
#include <stdlib.h>
#include "Transistortester.h"


//=================================================================
void ReadInductance(void) {
    3836:	a4 e1       	ldi	r26, 0x14	; 20
    3838:	b0 e0       	ldi	r27, 0x00	; 0
    383a:	e1 e2       	ldi	r30, 0x21	; 33
    383c:	fc e1       	ldi	r31, 0x1C	; 28
    383e:	0c 94 c8 33 	jmp	0x6790	; 0x6790 <__prologue_saves__>
  uint16_t pw;		// return value from Rnum2pins()
  uint8_t pb[2];	// the pin numbers LowPin and HighPin
  } rpins;	// resistor pin structure to prevent two return parameters


  inductor_lpre = 2;	// H units, mark inductor as 1, if resistor is too big
    3842:	82 e0       	ldi	r24, 0x02	; 2
    3844:	80 93 01 01 	sts	0x0101, r24	; 0x800101 <inductor_lpre>
  if(PartFound != PART_RESISTOR) {
    3848:	80 91 1a 01 	lds	r24, 0x011A	; 0x80011a <PartFound>
    384c:	81 30       	cpi	r24, 0x01	; 1
    384e:	09 f0       	breq	.+2      	; 0x3852 <ReadInductance+0x1c>
    3850:	28 c2       	rjmp	.+1104   	; 0x3ca2 <ReadInductance+0x46c>
     return;	//We have found no resistor  
  }
  if (ResistorsFound != 1) {
    3852:	80 91 6f 01 	lds	r24, 0x016F	; 0x80016f <ResistorsFound>
    3856:	81 30       	cpi	r24, 0x01	; 1
    3858:	09 f0       	breq	.+2      	; 0x385c <ReadInductance+0x26>
    385a:	23 c2       	rjmp	.+1094   	; 0x3ca2 <ReadInductance+0x46c>
     return;	// do not search for inductance, more than 1 resistor
  }
     res_num = ResistorList[0];
    385c:	00 91 56 01 	lds	r16, 0x0156	; 0x800156 <ResistorList>
     if (ResistorVal[res_num] > 21000) return;
    3860:	24 e0       	ldi	r18, 0x04	; 4
    3862:	02 9f       	mul	r16, r18
    3864:	f0 01       	movw	r30, r0
    3866:	11 24       	eor	r1, r1
    3868:	ee 55       	subi	r30, 0x5E	; 94
    386a:	fe 4f       	sbci	r31, 0xFE	; 254
    386c:	80 81       	ld	r24, Z
    386e:	91 81       	ldd	r25, Z+1	; 0x01
    3870:	a2 81       	ldd	r26, Z+2	; 0x02
    3872:	b3 81       	ldd	r27, Z+3	; 0x03
    3874:	89 30       	cpi	r24, 0x09	; 9
    3876:	32 e5       	ldi	r19, 0x52	; 82
    3878:	93 07       	cpc	r25, r19
    387a:	a1 05       	cpc	r26, r1
    387c:	b1 05       	cpc	r27, r1
    387e:	08 f0       	brcs	.+2      	; 0x3882 <ReadInductance+0x4c>
    3880:	10 c2       	rjmp	.+1056   	; 0x3ca2 <ReadInductance+0x46c>
     resistor = ResistorVal[res_num];
    3882:	4c 01       	movw	r8, r24

     // we can check for Inductance, if resistance is below 2100 Ohm
     for (count=0;count<4;count++) {
    3884:	10 e0       	ldi	r17, 0x00	; 0
        // Try four times (different direction and with delayed counter start)
        if (count < 2) {
           // first and second pass, direction 1
           rpins.pw = Rnum2pins(res_num);	// compute the two pinnumbers for resistor res_num
    3886:	80 2f       	mov	r24, r16
     resistor = ResistorVal[res_num];

     // we can check for Inductance, if resistance is below 2100 Ohm
     for (count=0;count<4;count++) {
        // Try four times (different direction and with delayed counter start)
        if (count < 2) {
    3888:	12 30       	cpi	r17, 0x02	; 2
    388a:	28 f4       	brcc	.+10     	; 0x3896 <ReadInductance+0x60>
           // first and second pass, direction 1
           rpins.pw = Rnum2pins(res_num);	// compute the two pinnumbers for resistor res_num
    388c:	0e 94 73 03 	call	0x6e6	; 0x6e6 <Rnum2pins>
    3890:	58 2e       	mov	r5, r24
    3892:	49 2e       	mov	r4, r25
    3894:	03 c0       	rjmp	.+6      	; 0x389c <ReadInductance+0x66>
        } else {
           // third and fourth pass, direction 2
           rpins.pw = Rnum2pins(res_num);	// compute the two pinnumbers for resistor res_num
    3896:	0e 94 73 03 	call	0x6e6	; 0x6e6 <Rnum2pins>
           ii = rpins.pb[0];
           rpins.pb[0] = rpins.pb[1];		// swap the pins LowPin and HighPin
           rpins.pb[1] = ii;
    389a:	2c 01       	movw	r4, r24
        }
#if (((PIN_RL1 + 1) != PIN_RH1) || ((PIN_RL2 + 1) != PIN_RH2) || ((PIN_RL3 + 1) != PIN_RH3))
        HiADC = pgm_read_byte((&PinRLRHADCtab[6])+rpins.pb[1]-TP_MIN);	// Table of ADC Pins including | TXD_VAL
#else
        HiADC = pgm_read_byte((&PinRLRHADCtab[3])+rpins.pb[1]-TP_MIN);	// Table of ADC Pins including | TXD_VAL
    389c:	e4 2d       	mov	r30, r4
    389e:	f0 e0       	ldi	r31, 0x00	; 0
    38a0:	e1 57       	subi	r30, 0x71	; 113
    38a2:	fe 4f       	sbci	r31, 0xFE	; 254
    38a4:	24 90       	lpm	r2, Z
#endif
        LoPinR_L = pgm_read_byte(&PinRLRHADCtab[rpins.pb[0]]-TP_MIN);	//R_L mask for HighPin R_L load
    38a6:	85 2d       	mov	r24, r5
    38a8:	90 e0       	ldi	r25, 0x00	; 0
    38aa:	fc 01       	movw	r30, r24
    38ac:	e4 57       	subi	r30, 0x74	; 116
    38ae:	fe 4f       	sbci	r31, 0xFE	; 254
    38b0:	e4 91       	lpm	r30, Z
        //==================================================================================
        // Measurement of Inductance values
        R_PORT = 0;		// switch R port to GND
    38b2:	15 b8       	out	0x05, r1	; 5
        ADC_PORT =   TXD_VAL;		// switch ADC-Port to GND
    38b4:	28 e0       	ldi	r18, 0x08	; 8
    38b6:	28 b9       	out	0x08, r18	; 8
        if ((resistor < 240) && ((count & 0x01) == 0)) {
    38b8:	30 ef       	ldi	r19, 0xF0	; 240
    38ba:	83 16       	cp	r8, r19
    38bc:	91 04       	cpc	r9, r1
    38be:	b8 f4       	brcc	.+46     	; 0x38ee <ReadInductance+0xb8>
    38c0:	10 fd       	sbrc	r17, 0
    38c2:	15 c0       	rjmp	.+42     	; 0x38ee <ReadInductance+0xb8>
           // we can use PinR_L for measurement
           mess_r = RR680MI - R_L_VAL;			// use only pin output resistance
    38c4:	a0 90 14 01 	lds	r10, 0x0114	; 0x800114 <resis680mi>
    38c8:	b0 90 15 01 	lds	r11, 0x0115	; 0x800115 <resis680mi+0x1>
    38cc:	20 e9       	ldi	r18, 0x90	; 144
    38ce:	a2 1a       	sub	r10, r18
    38d0:	2a e1       	ldi	r18, 0x1A	; 26
    38d2:	b2 0a       	sbc	r11, r18
           ADC_DDR = HiADC | (1<<rpins.pb[0]) | TXD_MSK;	// switch HiADC and Low Pin to GND, 
    38d4:	21 e0       	ldi	r18, 0x01	; 1
    38d6:	30 e0       	ldi	r19, 0x00	; 0
    38d8:	05 2c       	mov	r0, r5
    38da:	02 c0       	rjmp	.+4      	; 0x38e0 <ReadInductance+0xaa>
    38dc:	22 0f       	add	r18, r18
    38de:	33 1f       	adc	r19, r19
    38e0:	0a 94       	dec	r0
    38e2:	e2 f7       	brpl	.-8      	; 0x38dc <ReadInductance+0xa6>
    38e4:	c9 01       	movw	r24, r18
    38e6:	88 60       	ori	r24, 0x08	; 8
    38e8:	82 29       	or	r24, r2
    38ea:	87 b9       	out	0x07, r24	; 7
    38ec:	08 c0       	rjmp	.+16     	; 0x38fe <ReadInductance+0xc8>
        } else {
           R_DDR = LoPinR_L;   		// switch R_L resistor port for LowPin to output (GND)
    38ee:	e4 b9       	out	0x04, r30	; 4
           ADC_DDR = HiADC | TXD_MSK;	// switch HiADC Pin to GND 
    38f0:	82 2d       	mov	r24, r2
    38f2:	88 60       	ori	r24, 0x08	; 8
    38f4:	87 b9       	out	0x07, r24	; 7
           mess_r = RR680MI;			// use 680 Ohm and PinR_L for current measurement
    38f6:	a0 90 14 01 	lds	r10, 0x0114	; 0x800114 <resis680mi>
    38fa:	b0 90 15 01 	lds	r11, 0x0115	; 0x800115 <resis680mi+0x1>
     res_num = ResistorList[0];
     if (ResistorVal[res_num] > 21000) return;
     resistor = ResistorVal[res_num];

     // we can check for Inductance, if resistance is below 2100 Ohm
     for (count=0;count<4;count++) {
    38fe:	f4 e1       	ldi	r31, 0x14	; 20
    3900:	3f 2e       	mov	r3, r31
           mess_r = RR680MI;			// use 680 Ohm and PinR_L for current measurement
        }
        // Look, if we can detect any current
        for (ii=0;ii<20;ii++) {
            // wait for current is near zero
            umax = W10msReadADC(rpins.pb[0]);
    3902:	85 2d       	mov	r24, r5
    3904:	0e 94 77 05 	call	0xaee	; 0xaee <W10msReadADC>
    3908:	3c 01       	movw	r6, r24
            total_r =  ReadADC(rpins.pb[1]);
    390a:	84 2d       	mov	r24, r4
    390c:	0e 94 7f 05 	call	0xafe	; 0xafe <ReadADC>
            if ((umax < CAP_EMPTY_LEVEL) && (total_r < CAP_EMPTY_LEVEL)) break;	// low current detected
    3910:	34 e0       	ldi	r19, 0x04	; 4
    3912:	63 16       	cp	r6, r19
    3914:	71 04       	cpc	r7, r1
    3916:	10 f4       	brcc	.+4      	; 0x391c <ReadInductance+0xe6>
    3918:	04 97       	sbiw	r24, 0x04	; 4
    391a:	18 f0       	brcs	.+6      	; 0x3922 <ReadInductance+0xec>
    391c:	3a 94       	dec	r3
           R_DDR = LoPinR_L;   		// switch R_L resistor port for LowPin to output (GND)
           ADC_DDR = HiADC | TXD_MSK;	// switch HiADC Pin to GND 
           mess_r = RR680MI;			// use 680 Ohm and PinR_L for current measurement
        }
        // Look, if we can detect any current
        for (ii=0;ii<20;ii++) {
    391e:	31 10       	cpse	r3, r1
    3920:	f0 cf       	rjmp	.-32     	; 0x3902 <ReadInductance+0xcc>
            umax = W10msReadADC(rpins.pb[0]);
            total_r =  ReadADC(rpins.pb[1]);
            if ((umax < CAP_EMPTY_LEVEL) && (total_r < CAP_EMPTY_LEVEL)) break;	// low current detected
        }
        // setup Analog Comparator
        ADC_COMP_CONTROL = (1<<ACME);			//enable Analog Comparator Multiplexer
    3922:	80 e4       	ldi	r24, 0x40	; 64
    3924:	80 93 7b 00 	sts	0x007B, r24	; 0x80007b <__TEXT_REGION_LENGTH__+0x7e007b>
        ACSR =  (1<<ACBG) | (1<<ACI)  | (1<<ACIC);	// enable, 1.3V, no Interrupt, Connect to Timer1 
    3928:	94 e5       	ldi	r25, 0x54	; 84
    392a:	90 bf       	out	0x30, r25	; 48
        ADMUX = (1<<REFS0) | rpins.pb[0];			// switch Mux to Low-Pin
    392c:	85 2d       	mov	r24, r5
    392e:	80 64       	ori	r24, 0x40	; 64
    3930:	80 93 7c 00 	sts	0x007C, r24	; 0x80007c <__TEXT_REGION_LENGTH__+0x7e007c>
        ADCSRA = (1<<ADIF) | AUTO_CLOCK_DIV; //disable ADC
    3934:	27 e1       	ldi	r18, 0x17	; 23
    3936:	20 93 7a 00 	sts	0x007A, r18	; 0x80007a <__TEXT_REGION_LENGTH__+0x7e007a>
   
      // setup Counter1
        timeconstant.w[1] = 0;		// set ov counter to 0
    393a:	e1 2c       	mov	r14, r1
    393c:	f1 2c       	mov	r15, r1
        TCCR1A = 0;			// set Counter1 to normal Mode
    393e:	10 92 80 00 	sts	0x0080, r1	; 0x800080 <__TEXT_REGION_LENGTH__+0x7e0080>
        TCNT1 = 0;			//set Counter to 0
    3942:	10 92 85 00 	sts	0x0085, r1	; 0x800085 <__TEXT_REGION_LENGTH__+0x7e0085>
    3946:	10 92 84 00 	sts	0x0084, r1	; 0x800084 <__TEXT_REGION_LENGTH__+0x7e0084>
        TI1_INT_FLAGS = (1<<ICF1) | (1<<OCF1B) | (1<<OCF1A) | (1<<TOV1);	// reset TIFR or TIFR1
    394a:	87 e2       	ldi	r24, 0x27	; 39
    394c:	86 bb       	out	0x16, r24	; 22
//        HiADC |= TXD_VAL;
        wait200us();			// wait for bandgap to start up
    394e:	0e 94 39 05 	call	0xa72	; 0xa72 <wait200us>
        if ((count & 0x01) == 0 ) {
    3952:	31 2f       	mov	r19, r17
    3954:	31 70       	andi	r19, 0x01	; 1
    3956:	33 2e       	mov	r3, r19
    3958:	10 fd       	sbrc	r17, 0
    395a:	05 c0       	rjmp	.+10     	; 0x3966 <ReadInductance+0x130>
           //first start counter, then start current
           TCCR1B =  (1<<ICNC1) | (0<<ICES1) | (1<<CS10);	//start counter 1MHz or 8MHz
    395c:	81 e8       	ldi	r24, 0x81	; 129
    395e:	80 93 81 00 	sts	0x0081, r24	; 0x800081 <__TEXT_REGION_LENGTH__+0x7e0081>
           ADC_PORT = HiADC;		// switch ADC-Port to VCC
    3962:	28 b8       	out	0x08, r2	; 8
    3964:	08 c0       	rjmp	.+16     	; 0x3976 <ReadInductance+0x140>
        } else {
           //first start current, then start counter with delay
           //parasitic capacity of coil can cause high current at the beginning
           ADC_PORT = HiADC;		// switch ADC-Port to VCC
    3966:	28 b8       	out	0x08, r2	; 8
      #if F_CPU >= 8000000UL
           wait3us();		// ignore current peak from capacity
    3968:	0e 94 42 05 	call	0xa84	; 0xa84 <wait3us>
      #else
           wdt_reset();			// delay
           wdt_reset();			// delay
      #endif
           TI1_INT_FLAGS = (1<<ICF1);	// Reset Input Capture
    396c:	80 e2       	ldi	r24, 0x20	; 32
    396e:	86 bb       	out	0x16, r24	; 22
           TCCR1B =  (1<<ICNC1) | (0<<ICES1) | (1<<CS10);	//start counter 1MHz or 8MHz
    3970:	81 e8       	ldi	r24, 0x81	; 129
    3972:	80 93 81 00 	sts	0x0081, r24	; 0x800081 <__TEXT_REGION_LENGTH__+0x7e0081>
        }
      
      //******************************
        while(1) {
           // Wait, until  Input Capture is set
           ii = TI1_INT_FLAGS;		//read Timer flags
    3976:	86 b3       	in	r24, 0x16	; 22
           if (ii & (1<<ICF1))  {
    3978:	85 ff       	sbrs	r24, 5
    397a:	13 c0       	rjmp	.+38     	; 0x39a2 <ReadInductance+0x16c>
              if(timeconstant.w[1] == (F_CPU/100000UL)) {
                 break; 	//Timeout for Charging, above 0.65 s
              }
           }
        }
        ADC_PORT = TXD_VAL;		// switch ADC-Port to GND
    397c:	98 e0       	ldi	r25, 0x08	; 8
    397e:	98 b9       	out	0x08, r25	; 8
        TCCR1B = (0<<ICNC1) | (0<<ICES1) | (0<<CS10);  // stop counter
    3980:	10 92 81 00 	sts	0x0081, r1	; 0x800081 <__TEXT_REGION_LENGTH__+0x7e0081>
        TI1_INT_FLAGS = (1<<ICF1);			// Reset Input Capture
    3984:	20 e2       	ldi	r18, 0x20	; 32
    3986:	26 bb       	out	0x16, r18	; 22
        timeconstant.w[0] = ICR1;		// get previous Input Capture Counter flag
    3988:	20 91 86 00 	lds	r18, 0x0086	; 0x800086 <__TEXT_REGION_LENGTH__+0x7e0086>
    398c:	30 91 87 00 	lds	r19, 0x0087	; 0x800087 <__TEXT_REGION_LENGTH__+0x7e0087>
    3990:	69 01       	movw	r12, r18
      // check actual counter, if an additional overflow must be added
        if((TCNT1 > timeconstant.w[0]) && (ii & (1<<TOV1))) {
    3992:	40 91 84 00 	lds	r20, 0x0084	; 0x800084 <__TEXT_REGION_LENGTH__+0x7e0084>
    3996:	50 91 85 00 	lds	r21, 0x0085	; 0x800085 <__TEXT_REGION_LENGTH__+0x7e0085>
    399a:	24 17       	cp	r18, r20
    399c:	35 07       	cpc	r19, r21
    399e:	70 f0       	brcs	.+28     	; 0x39bc <ReadInductance+0x186>
    39a0:	14 c0       	rjmp	.+40     	; 0x39ca <ReadInductance+0x194>
           // Wait, until  Input Capture is set
           ii = TI1_INT_FLAGS;		//read Timer flags
           if (ii & (1<<ICF1))  {
              break;
           }
           if((ii & (1<<TOV1))) {		// counter overflow, 65.536 ms @ 1MHz, 8.192ms @ 8MHz
    39a2:	80 ff       	sbrs	r24, 0
    39a4:	e8 cf       	rjmp	.-48     	; 0x3976 <ReadInductance+0x140>
              TI1_INT_FLAGS = (1<<TOV1);	// Reset OV Flag
    39a6:	31 e0       	ldi	r19, 0x01	; 1
    39a8:	36 bb       	out	0x16, r19	; 22
              wdt_reset();
    39aa:	a8 95       	wdr
              timeconstant.w[1]++;		// count one OV
    39ac:	97 01       	movw	r18, r14
    39ae:	2f 5f       	subi	r18, 0xFF	; 255
    39b0:	3f 4f       	sbci	r19, 0xFF	; 255
    39b2:	79 01       	movw	r14, r18
              if(timeconstant.w[1] == (F_CPU/100000UL)) {
    39b4:	20 3a       	cpi	r18, 0xA0	; 160
    39b6:	31 05       	cpc	r19, r1
    39b8:	f1 f6       	brne	.-68     	; 0x3976 <ReadInductance+0x140>
    39ba:	e0 cf       	rjmp	.-64     	; 0x397c <ReadInductance+0x146>
        ADC_PORT = TXD_VAL;		// switch ADC-Port to GND
        TCCR1B = (0<<ICNC1) | (0<<ICES1) | (0<<CS10);  // stop counter
        TI1_INT_FLAGS = (1<<ICF1);			// Reset Input Capture
        timeconstant.w[0] = ICR1;		// get previous Input Capture Counter flag
      // check actual counter, if an additional overflow must be added
        if((TCNT1 > timeconstant.w[0]) && (ii & (1<<TOV1))) {
    39bc:	80 ff       	sbrs	r24, 0
    39be:	05 c0       	rjmp	.+10     	; 0x39ca <ReadInductance+0x194>
           // this OV was not counted, but was before the Input Capture
           TI1_INT_FLAGS = (1<<TOV1);		// Reset OV Flag
    39c0:	81 e0       	ldi	r24, 0x01	; 1
    39c2:	86 bb       	out	0x16, r24	; 22
           timeconstant.w[1]++;			// count one additional OV
    39c4:	9f ef       	ldi	r25, 0xFF	; 255
    39c6:	e9 1a       	sub	r14, r25
    39c8:	f9 0a       	sbc	r15, r25
        }

//        ADC_PORT = TXD_VAL;		// switch ADC-Port to GND
        ADCSRA = (1<<ADEN) | (1<<ADIF) | AUTO_CLOCK_DIV; //enable ADC
    39ca:	87 e9       	ldi	r24, 0x97	; 151
    39cc:	80 93 7a 00 	sts	0x007A, r24	; 0x80007a <__TEXT_REGION_LENGTH__+0x7e007a>
    39d0:	e4 e1       	ldi	r30, 0x14	; 20
    39d2:	2e 2e       	mov	r2, r30
        for (ii=0;ii<20;ii++) {
            // wait for current is near zero
            umax = W10msReadADC(rpins.pb[0]);
    39d4:	85 2d       	mov	r24, r5
    39d6:	0e 94 77 05 	call	0xaee	; 0xaee <W10msReadADC>
    39da:	3c 01       	movw	r6, r24
            total_r =  ReadADC(rpins.pb[1]);
    39dc:	84 2d       	mov	r24, r4
    39de:	0e 94 7f 05 	call	0xafe	; 0xafe <ReadADC>
            if ((umax < CAP_EMPTY_LEVEL) && (total_r < CAP_EMPTY_LEVEL)) break;	// low current detected
    39e2:	24 e0       	ldi	r18, 0x04	; 4
    39e4:	62 16       	cp	r6, r18
    39e6:	71 04       	cpc	r7, r1
    39e8:	10 f4       	brcc	.+4      	; 0x39ee <ReadInductance+0x1b8>
    39ea:	04 97       	sbiw	r24, 0x04	; 4
    39ec:	18 f0       	brcs	.+6      	; 0x39f4 <ReadInductance+0x1be>
    39ee:	2a 94       	dec	r2
           timeconstant.w[1]++;			// count one additional OV
        }

//        ADC_PORT = TXD_VAL;		// switch ADC-Port to GND
        ADCSRA = (1<<ADEN) | (1<<ADIF) | AUTO_CLOCK_DIV; //enable ADC
        for (ii=0;ii<20;ii++) {
    39f0:	21 10       	cpse	r2, r1
    39f2:	f0 cf       	rjmp	.-32     	; 0x39d4 <ReadInductance+0x19e>
//  #undef CNT_ZERO_42
//  #undef CNT_ZERO_720
//  #define CNT_ZERO_42 7
//  #define CNT_ZERO_720 10
//#endif
        total_r = (mess_r + resistor + RRpinMI);
    39f4:	40 90 38 01 	lds	r4, 0x0138	; 0x800138 <pin_rmi>
    39f8:	50 90 39 01 	lds	r5, 0x0139	; 0x800139 <pin_rmi+0x1>
    39fc:	48 0c       	add	r4, r8
    39fe:	59 1c       	adc	r5, r9
    3a00:	4a 0c       	add	r4, r10
    3a02:	5b 1c       	adc	r5, r11
//        cnt_diff = 0;
//        if (total_r > 7000) cnt_diff = 1;
//        if (total_r > 14000) cnt_diff = 2;
        cnt_diff = total_r / ((14000UL * 8) / (F_CPU/1000000UL));
        tmpint = ref_mv_offs;		// corrected reference voltage (for C)
    3a04:	20 91 16 01 	lds	r18, 0x0116	; 0x800116 <ref_mv_offs>
    3a08:	30 91 17 01 	lds	r19, 0x0117	; 0x800117 <ref_mv_offs+0x1>
        if (mess_r < R_L_VAL) {
    3a0c:	80 e9       	ldi	r24, 0x90	; 144
    3a0e:	a8 16       	cp	r10, r24
    3a10:	8a e1       	ldi	r24, 0x1A	; 26
    3a12:	b8 06       	cpc	r11, r24
    3a14:	b0 f4       	brcc	.+44     	; 0x3a42 <ReadInductance+0x20c>
           // measurement without 680 Ohm
           cnt_diff = CNT_ZERO_42;
           if (timeconstant.dw < 225) {
    3a16:	91 ee       	ldi	r25, 0xE1	; 225
    3a18:	c9 16       	cp	r12, r25
    3a1a:	d1 04       	cpc	r13, r1
    3a1c:	e1 04       	cpc	r14, r1
    3a1e:	f1 04       	cpc	r15, r1
    3a20:	38 f4       	brcc	.+14     	; 0x3a30 <ReadInductance+0x1fa>
              ukorr = (timeconstant.w[0] / 5) - 20;
    3a22:	c6 01       	movw	r24, r12
    3a24:	65 e0       	ldi	r22, 0x05	; 5
    3a26:	70 e0       	ldi	r23, 0x00	; 0
    3a28:	0e 94 b9 32 	call	0x6572	; 0x6572 <__udivmodhi4>
    3a2c:	64 51       	subi	r22, 0x14	; 20
    3a2e:	01 c0       	rjmp	.+2      	; 0x3a32 <ReadInductance+0x1fc>
           } else {
              ukorr = 25;
    3a30:	69 e1       	ldi	r22, 0x19	; 25
    3a32:	28 52       	subi	r18, 0x28	; 40
    3a34:	31 09       	sbc	r19, r1
           }
           tmpint -= (((REF_L_KORR * 10) / 10) + ukorr);
    3a36:	26 1b       	sub	r18, r22
    3a38:	31 09       	sbc	r19, r1
    3a3a:	67 fd       	sbrc	r22, 7
    3a3c:	33 95       	inc	r19
//        if (total_r > 14000) cnt_diff = 2;
        cnt_diff = total_r / ((14000UL * 8) / (F_CPU/1000000UL));
        tmpint = ref_mv_offs;		// corrected reference voltage (for C)
        if (mess_r < R_L_VAL) {
           // measurement without 680 Ohm
           cnt_diff = CNT_ZERO_42;
    3a3e:	86 e0       	ldi	r24, 0x06	; 6
    3a40:	09 c0       	rjmp	.+18     	; 0x3a54 <ReadInductance+0x21e>
//#endif
        total_r = (mess_r + resistor + RRpinMI);
//        cnt_diff = 0;
//        if (total_r > 7000) cnt_diff = 1;
//        if (total_r > 14000) cnt_diff = 2;
        cnt_diff = total_r / ((14000UL * 8) / (F_CPU/1000000UL));
    3a42:	c2 01       	movw	r24, r4
    3a44:	68 e5       	ldi	r22, 0x58	; 88
    3a46:	7b e1       	ldi	r23, 0x1B	; 27
    3a48:	0e 94 b9 32 	call	0x6572	; 0x6572 <__udivmodhi4>
           }
           tmpint -= (((REF_L_KORR * 10) / 10) + ukorr);
        } else {
           // measurement with 680 Ohm resistor
           // if 680 Ohm resistor is used, use REF_L_KORR for correction
           cnt_diff += CNT_ZERO_720;
    3a4c:	87 e0       	ldi	r24, 0x07	; 7
    3a4e:	86 0f       	add	r24, r22
           tmpint += REF_L_KORR;
    3a50:	28 5d       	subi	r18, 0xD8	; 216
    3a52:	3f 4f       	sbci	r19, 0xFF	; 255
        }
        if (timeconstant.dw > cnt_diff) timeconstant.dw -= cnt_diff;
    3a54:	90 e0       	ldi	r25, 0x00	; 0
    3a56:	a0 e0       	ldi	r26, 0x00	; 0
    3a58:	b0 e0       	ldi	r27, 0x00	; 0
    3a5a:	8c 15       	cp	r24, r12
    3a5c:	9d 05       	cpc	r25, r13
    3a5e:	ae 05       	cpc	r26, r14
    3a60:	bf 05       	cpc	r27, r15
    3a62:	28 f4       	brcc	.+10     	; 0x3a6e <ReadInductance+0x238>
    3a64:	c8 1a       	sub	r12, r24
    3a66:	d9 0a       	sbc	r13, r25
    3a68:	ea 0a       	sbc	r14, r26
    3a6a:	fb 0a       	sbc	r15, r27
    3a6c:	03 c0       	rjmp	.+6      	; 0x3a74 <ReadInductance+0x23e>
        else          timeconstant.dw = 0;
    3a6e:	c1 2c       	mov	r12, r1
    3a70:	d1 2c       	mov	r13, r1
    3a72:	76 01       	movw	r14, r12
       
        if ((count&0x01) == 1) {
    3a74:	33 20       	and	r3, r3
    3a76:	29 f0       	breq	.+10     	; 0x3a82 <ReadInductance+0x24c>
           // second pass with delayed counter start
           timeconstant.dw += (3 * (F_CPU/1000000UL))+10;
    3a78:	8a e3       	ldi	r24, 0x3A	; 58
    3a7a:	c8 0e       	add	r12, r24
    3a7c:	d1 1c       	adc	r13, r1
    3a7e:	e1 1c       	adc	r14, r1
    3a80:	f1 1c       	adc	r15, r1
        }
        if (timeconstant.w[1] >= (F_CPU/100000UL)) timeconstant.dw = 0; // no transition found
    3a82:	90 ea       	ldi	r25, 0xA0	; 160
    3a84:	e9 16       	cp	r14, r25
    3a86:	f1 04       	cpc	r15, r1
    3a88:	18 f0       	brcs	.+6      	; 0x3a90 <ReadInductance+0x25a>
    3a8a:	c1 2c       	mov	r12, r1
    3a8c:	d1 2c       	mov	r13, r1
    3a8e:	76 01       	movw	r14, r12
        if (timeconstant.dw > 10) {
    3a90:	8b e0       	ldi	r24, 0x0B	; 11
    3a92:	c8 16       	cp	r12, r24
    3a94:	d1 04       	cpc	r13, r1
    3a96:	e1 04       	cpc	r14, r1
    3a98:	f1 04       	cpc	r15, r1
    3a9a:	28 f0       	brcs	.+10     	; 0x3aa6 <ReadInductance+0x270>
           timeconstant.dw -= 1;
    3a9c:	91 e0       	ldi	r25, 0x01	; 1
    3a9e:	c9 1a       	sub	r12, r25
    3aa0:	d1 08       	sbc	r13, r1
    3aa2:	e1 08       	sbc	r14, r1
    3aa4:	f1 08       	sbc	r15, r1
        }
        // compute the maximum Voltage umax with the Resistor of the coil
        umax = ((unsigned long)mess_r * (unsigned long)ADCconfig.U_AVCC) / total_r;
    3aa6:	40 91 2f 01 	lds	r20, 0x012F	; 0x80012f <ADCconfig+0x4>
    3aaa:	50 91 30 01 	lds	r21, 0x0130	; 0x800130 <ADCconfig+0x5>
    3aae:	61 2c       	mov	r6, r1
    3ab0:	71 2c       	mov	r7, r1
        per_ref1 = ((unsigned long)tmpint * 1000) / umax;
//        per_ref2 = (uint8_t)MEM2_read_byte(&LogTab[per_ref1]);	// -log(1 - per_ref1/100)
        per_ref2 = get_log(per_ref1);		// -1000*log(1 - per_ref1/1000)
    3ab2:	a8 ee       	ldi	r26, 0xE8	; 232
    3ab4:	b3 e0       	ldi	r27, 0x03	; 3
    3ab6:	0e 94 1e 33 	call	0x663c	; 0x663c <__umulhisi3>
    3aba:	69 8b       	std	Y+17, r22	; 0x11
    3abc:	7a 8b       	std	Y+18, r23	; 0x12
    3abe:	8b 8b       	std	Y+19, r24	; 0x13
    3ac0:	9c 8b       	std	Y+20, r25	; 0x14
    3ac2:	95 01       	movw	r18, r10
    3ac4:	da 01       	movw	r26, r20
    3ac6:	0e 94 1e 33 	call	0x663c	; 0x663c <__umulhisi3>
    3aca:	a3 01       	movw	r20, r6
    3acc:	92 01       	movw	r18, r4
    3ace:	0e 94 e0 32 	call	0x65c0	; 0x65c0 <__udivmodsi4>
    3ad2:	44 27       	eor	r20, r20
    3ad4:	55 27       	eor	r21, r21
    3ad6:	69 89       	ldd	r22, Y+17	; 0x11
    3ad8:	7a 89       	ldd	r23, Y+18	; 0x12
    3ada:	8b 89       	ldd	r24, Y+19	; 0x13
    3adc:	9c 89       	ldd	r25, Y+20	; 0x14
    3ade:	0e 94 e0 32 	call	0x65c0	; 0x65c0 <__udivmodsi4>
    3ae2:	c9 01       	movw	r24, r18
    3ae4:	0e 94 a6 06 	call	0xd4c	; 0xd4c <get_log>
    3ae8:	fc 01       	movw	r30, r24
          }
#endif
/* ********************************************************* */
        // inductor_lx in 0.01mH units,  L = Tau * R
        per_ref1 = ((per_ref2 * (F_CPU/1000000UL)) + 5) / 10;
        inductance[count] = (timeconstant.dw * total_r ) / per_ref1;
    3aea:	a3 01       	movw	r20, r6
    3aec:	92 01       	movw	r18, r4
    3aee:	c7 01       	movw	r24, r14
    3af0:	b6 01       	movw	r22, r12
    3af2:	0e 94 9e 32 	call	0x653c	; 0x653c <__mulsi3>
    3af6:	2b 01       	movw	r4, r22
    3af8:	3c 01       	movw	r6, r24
    3afa:	cf 01       	movw	r24, r30
    3afc:	a0 e0       	ldi	r26, 0x00	; 0
    3afe:	b0 e0       	ldi	r27, 0x00	; 0
    3b00:	74 e0       	ldi	r23, 0x04	; 4
    3b02:	88 0f       	add	r24, r24
    3b04:	99 1f       	adc	r25, r25
    3b06:	aa 1f       	adc	r26, r26
    3b08:	bb 1f       	adc	r27, r27
    3b0a:	7a 95       	dec	r23
    3b0c:	d1 f7       	brne	.-12     	; 0x3b02 <ReadInductance+0x2cc>
    3b0e:	bc 01       	movw	r22, r24
    3b10:	cd 01       	movw	r24, r26
    3b12:	6b 5f       	subi	r22, 0xFB	; 251
    3b14:	7f 4f       	sbci	r23, 0xFF	; 255
    3b16:	8f 4f       	sbci	r24, 0xFF	; 255
    3b18:	9f 4f       	sbci	r25, 0xFF	; 255
    3b1a:	2a e0       	ldi	r18, 0x0A	; 10
    3b1c:	30 e0       	ldi	r19, 0x00	; 0
    3b1e:	40 e0       	ldi	r20, 0x00	; 0
    3b20:	50 e0       	ldi	r21, 0x00	; 0
    3b22:	0e 94 e0 32 	call	0x65c0	; 0x65c0 <__udivmodsi4>
    3b26:	44 27       	eor	r20, r20
    3b28:	55 27       	eor	r21, r21
    3b2a:	c3 01       	movw	r24, r6
    3b2c:	b2 01       	movw	r22, r4
    3b2e:	0e 94 e0 32 	call	0x65c0	; 0x65c0 <__udivmodsi4>
    3b32:	e1 2f       	mov	r30, r17
    3b34:	f0 e0       	ldi	r31, 0x00	; 0
    3b36:	a1 e0       	ldi	r26, 0x01	; 1
    3b38:	b0 e0       	ldi	r27, 0x00	; 0
    3b3a:	ac 0f       	add	r26, r28
    3b3c:	bd 1f       	adc	r27, r29
    3b3e:	84 e0       	ldi	r24, 0x04	; 4
    3b40:	18 9f       	mul	r17, r24
    3b42:	a0 0d       	add	r26, r0
    3b44:	b1 1d       	adc	r27, r1
    3b46:	11 24       	eor	r1, r1
    3b48:	2d 93       	st	X+, r18
    3b4a:	3d 93       	st	X+, r19
    3b4c:	4d 93       	st	X+, r20
    3b4e:	5c 93       	st	X, r21
    3b50:	13 97       	sbiw	r26, 0x03	; 3
        if (((count&0x01) == 0) && (timeconstant.dw > ((F_CPU/1000000UL)+3))) {
    3b52:	31 10       	cpse	r3, r1
    3b54:	16 c0       	rjmp	.+44     	; 0x3b82 <ReadInductance+0x34c>
    3b56:	94 e1       	ldi	r25, 0x14	; 20
    3b58:	c9 16       	cp	r12, r25
    3b5a:	d1 04       	cpc	r13, r1
    3b5c:	e1 04       	cpc	r14, r1
    3b5e:	f1 04       	cpc	r15, r1
    3b60:	80 f0       	brcs	.+32     	; 0x3b82 <ReadInductance+0x34c>
           // transition is found, measurement with delayed counter start is not necessary
           inductance[count+1] = inductance[count];	// set delayed measurement to same value
    3b62:	31 96       	adiw	r30, 0x01	; 1
    3b64:	ee 0f       	add	r30, r30
    3b66:	ff 1f       	adc	r31, r31
    3b68:	ee 0f       	add	r30, r30
    3b6a:	ff 1f       	adc	r31, r31
    3b6c:	81 e0       	ldi	r24, 0x01	; 1
    3b6e:	90 e0       	ldi	r25, 0x00	; 0
    3b70:	8c 0f       	add	r24, r28
    3b72:	9d 1f       	adc	r25, r29
    3b74:	e8 0f       	add	r30, r24
    3b76:	f9 1f       	adc	r31, r25
    3b78:	20 83       	st	Z, r18
    3b7a:	31 83       	std	Z+1, r19	; 0x01
    3b7c:	42 83       	std	Z+2, r20	; 0x02
    3b7e:	53 83       	std	Z+3, r21	; 0x03
           count++;		// skip the delayed measurement
    3b80:	1f 5f       	subi	r17, 0xFF	; 255
        }
        wdt_reset();
    3b82:	a8 95       	wdr
     res_num = ResistorList[0];
     if (ResistorVal[res_num] > 21000) return;
     resistor = ResistorVal[res_num];

     // we can check for Inductance, if resistance is below 2100 Ohm
     for (count=0;count<4;count++) {
    3b84:	1f 5f       	subi	r17, 0xFF	; 255
    3b86:	14 30       	cpi	r17, 0x04	; 4
    3b88:	08 f4       	brcc	.+2      	; 0x3b8c <ReadInductance+0x356>
    3b8a:	7d ce       	rjmp	.-774    	; 0x3886 <ReadInductance+0x50>
           inductance[count+1] = inductance[count];	// set delayed measurement to same value
           count++;		// skip the delayed measurement
        }
        wdt_reset();
     }  //end for count
     ADC_PORT = TXD_VAL;		// switch ADC Port to GND
    3b8c:	88 e0       	ldi	r24, 0x08	; 8
    3b8e:	88 b9       	out	0x08, r24	; 8
     wait_about20ms();
    3b90:	84 e0       	ldi	r24, 0x04	; 4
    3b92:	0e 94 47 05 	call	0xa8e	; 0xa8e <sleep_5ms>
     nr_pol1 = 0;
     if (inductance[1] > inductance[0]) { nr_pol1 = 1; } 
    3b96:	91 e0       	ldi	r25, 0x01	; 1
    3b98:	0d 81       	ldd	r16, Y+5	; 0x05
    3b9a:	1e 81       	ldd	r17, Y+6	; 0x06
    3b9c:	2f 81       	ldd	r18, Y+7	; 0x07
    3b9e:	38 85       	ldd	r19, Y+8	; 0x08
    3ba0:	49 81       	ldd	r20, Y+1	; 0x01
    3ba2:	5a 81       	ldd	r21, Y+2	; 0x02
    3ba4:	6b 81       	ldd	r22, Y+3	; 0x03
    3ba6:	7c 81       	ldd	r23, Y+4	; 0x04
    3ba8:	40 17       	cp	r20, r16
    3baa:	51 07       	cpc	r21, r17
    3bac:	62 07       	cpc	r22, r18
    3bae:	73 07       	cpc	r23, r19
    3bb0:	08 f0       	brcs	.+2      	; 0x3bb4 <ReadInductance+0x37e>
    3bb2:	90 e0       	ldi	r25, 0x00	; 0
     nr_pol2 = 2;
     if (inductance[3] > inductance[2]) { nr_pol2 = 3; } 
    3bb4:	0d 85       	ldd	r16, Y+13	; 0x0d
    3bb6:	1e 85       	ldd	r17, Y+14	; 0x0e
    3bb8:	2f 85       	ldd	r18, Y+15	; 0x0f
    3bba:	38 89       	ldd	r19, Y+16	; 0x10
    3bbc:	49 85       	ldd	r20, Y+9	; 0x09
    3bbe:	5a 85       	ldd	r21, Y+10	; 0x0a
    3bc0:	6b 85       	ldd	r22, Y+11	; 0x0b
    3bc2:	7c 85       	ldd	r23, Y+12	; 0x0c
    3bc4:	40 17       	cp	r20, r16
    3bc6:	51 07       	cpc	r21, r17
    3bc8:	62 07       	cpc	r22, r18
    3bca:	73 07       	cpc	r23, r19
    3bcc:	10 f4       	brcc	.+4      	; 0x3bd2 <ReadInductance+0x39c>
    3bce:	83 e0       	ldi	r24, 0x03	; 3
    3bd0:	01 c0       	rjmp	.+2      	; 0x3bd4 <ReadInductance+0x39e>
     }  //end for count
     ADC_PORT = TXD_VAL;		// switch ADC Port to GND
     wait_about20ms();
     nr_pol1 = 0;
     if (inductance[1] > inductance[0]) { nr_pol1 = 1; } 
     nr_pol2 = 2;
    3bd2:	82 e0       	ldi	r24, 0x02	; 2
     if (inductance[3] > inductance[2]) { nr_pol2 = 3; } 
     if (inductance[nr_pol2] < inductance[nr_pol1]) nr_pol1 = nr_pol2;
    3bd4:	e9 2f       	mov	r30, r25
    3bd6:	f0 e0       	ldi	r31, 0x00	; 0
    3bd8:	ee 0f       	add	r30, r30
    3bda:	ff 1f       	adc	r31, r31
    3bdc:	ee 0f       	add	r30, r30
    3bde:	ff 1f       	adc	r31, r31
    3be0:	21 e0       	ldi	r18, 0x01	; 1
    3be2:	30 e0       	ldi	r19, 0x00	; 0
    3be4:	2c 0f       	add	r18, r28
    3be6:	3d 1f       	adc	r19, r29
    3be8:	e2 0f       	add	r30, r18
    3bea:	f3 1f       	adc	r31, r19
    3bec:	d9 01       	movw	r26, r18
    3bee:	34 e0       	ldi	r19, 0x04	; 4
    3bf0:	83 9f       	mul	r24, r19
    3bf2:	a0 0d       	add	r26, r0
    3bf4:	b1 1d       	adc	r27, r1
    3bf6:	11 24       	eor	r1, r1
    3bf8:	0d 91       	ld	r16, X+
    3bfa:	1d 91       	ld	r17, X+
    3bfc:	2d 91       	ld	r18, X+
    3bfe:	3c 91       	ld	r19, X
    3c00:	40 81       	ld	r20, Z
    3c02:	51 81       	ldd	r21, Z+1	; 0x01
    3c04:	62 81       	ldd	r22, Z+2	; 0x02
    3c06:	73 81       	ldd	r23, Z+3	; 0x03
    3c08:	04 17       	cp	r16, r20
    3c0a:	15 07       	cpc	r17, r21
    3c0c:	26 07       	cpc	r18, r22
    3c0e:	37 07       	cpc	r19, r23
    3c10:	08 f0       	brcs	.+2      	; 0x3c14 <ReadInductance+0x3de>
        }
        wdt_reset();
     }  //end for count
     ADC_PORT = TXD_VAL;		// switch ADC Port to GND
     wait_about20ms();
     nr_pol1 = 0;
    3c12:	89 2f       	mov	r24, r25
     if (inductance[1] > inductance[0]) { nr_pol1 = 1; } 
     nr_pol2 = 2;
     if (inductance[3] > inductance[2]) { nr_pol2 = 3; } 
     if (inductance[nr_pol2] < inductance[nr_pol1]) nr_pol1 = nr_pol2;
     inductor_lx = inductance[nr_pol1];
    3c14:	e1 e0       	ldi	r30, 0x01	; 1
    3c16:	f0 e0       	ldi	r31, 0x00	; 0
    3c18:	ec 0f       	add	r30, r28
    3c1a:	fd 1f       	adc	r31, r29
    3c1c:	94 e0       	ldi	r25, 0x04	; 4
    3c1e:	89 9f       	mul	r24, r25
    3c20:	e0 0d       	add	r30, r0
    3c22:	f1 1d       	adc	r31, r1
    3c24:	11 24       	eor	r1, r1
    3c26:	40 81       	ld	r20, Z
    3c28:	51 81       	ldd	r21, Z+1	; 0x01
    3c2a:	62 81       	ldd	r22, Z+2	; 0x02
    3c2c:	73 81       	ldd	r23, Z+3	; 0x03
    3c2e:	40 93 09 01 	sts	0x0109, r20	; 0x800109 <inductor_lx>
    3c32:	50 93 0a 01 	sts	0x010A, r21	; 0x80010a <inductor_lx+0x1>
    3c36:	60 93 0b 01 	sts	0x010B, r22	; 0x80010b <inductor_lx+0x2>
    3c3a:	70 93 0c 01 	sts	0x010C, r23	; 0x80010c <inductor_lx+0x3>
     inductor_lpre = -5;	// 10 uH units
     if (((nr_pol1 & 1) == 1) || (resistor >= 240)) {
    3c3e:	80 fd       	sbrc	r24, 0
    3c40:	08 c0       	rjmp	.+16     	; 0x3c52 <ReadInductance+0x41c>
    3c42:	20 ef       	ldi	r18, 0xF0	; 240
    3c44:	82 16       	cp	r8, r18
    3c46:	91 04       	cpc	r9, r1
    3c48:	20 f4       	brcc	.+8      	; 0x3c52 <ReadInductance+0x41c>
     if (inductance[1] > inductance[0]) { nr_pol1 = 1; } 
     nr_pol2 = 2;
     if (inductance[3] > inductance[2]) { nr_pol2 = 3; } 
     if (inductance[nr_pol2] < inductance[nr_pol1]) nr_pol1 = nr_pol2;
     inductor_lx = inductance[nr_pol1];
     inductor_lpre = -5;	// 10 uH units
    3c4a:	8b ef       	ldi	r24, 0xFB	; 251
    3c4c:	80 93 01 01 	sts	0x0101, r24	; 0x800101 <inductor_lpre>
    3c50:	17 c0       	rjmp	.+46     	; 0x3c80 <ReadInductance+0x44a>
     if (((nr_pol1 & 1) == 1) || (resistor >= 240)) {
        // with 680 Ohm resistor total_r is more than 7460
        inductor_lpre = -4;	// 100 uH units
    3c52:	8c ef       	ldi	r24, 0xFC	; 252
    3c54:	80 93 01 01 	sts	0x0101, r24	; 0x800101 <inductor_lpre>
        inductor_lx = (inductor_lx + 5) / 10;
    3c58:	cb 01       	movw	r24, r22
    3c5a:	ba 01       	movw	r22, r20
    3c5c:	6b 5f       	subi	r22, 0xFB	; 251
    3c5e:	7f 4f       	sbci	r23, 0xFF	; 255
    3c60:	8f 4f       	sbci	r24, 0xFF	; 255
    3c62:	9f 4f       	sbci	r25, 0xFF	; 255
    3c64:	2a e0       	ldi	r18, 0x0A	; 10
    3c66:	30 e0       	ldi	r19, 0x00	; 0
    3c68:	40 e0       	ldi	r20, 0x00	; 0
    3c6a:	50 e0       	ldi	r21, 0x00	; 0
    3c6c:	0e 94 e0 32 	call	0x65c0	; 0x65c0 <__udivmodsi4>
    3c70:	20 93 09 01 	sts	0x0109, r18	; 0x800109 <inductor_lx>
    3c74:	30 93 0a 01 	sts	0x010A, r19	; 0x80010a <inductor_lx+0x1>
    3c78:	40 93 0b 01 	sts	0x010B, r20	; 0x80010b <inductor_lx+0x2>
    3c7c:	50 93 0c 01 	sts	0x010C, r21	; 0x80010c <inductor_lx+0x3>
     } 
     if (inductor_lx == 0) inductor_lpre = 0;	//mark as zero
    3c80:	80 91 09 01 	lds	r24, 0x0109	; 0x800109 <inductor_lx>
    3c84:	90 91 0a 01 	lds	r25, 0x010A	; 0x80010a <inductor_lx+0x1>
    3c88:	a0 91 0b 01 	lds	r26, 0x010B	; 0x80010b <inductor_lx+0x2>
    3c8c:	b0 91 0c 01 	lds	r27, 0x010C	; 0x80010c <inductor_lx+0x3>
    3c90:	89 2b       	or	r24, r25
    3c92:	8a 2b       	or	r24, r26
    3c94:	8b 2b       	or	r24, r27
    3c96:	11 f4       	brne	.+4      	; 0x3c9c <ReadInductance+0x466>
    3c98:	10 92 01 01 	sts	0x0101, r1	; 0x800101 <inductor_lpre>

  // switch all ports to input
  ADC_DDR =  TXD_MSK;		// switch all ADC ports to input
    3c9c:	88 e0       	ldi	r24, 0x08	; 8
    3c9e:	87 b9       	out	0x07, r24	; 7
  R_DDR = 0;			// switch all resistor ports to input
    3ca0:	14 b8       	out	0x04, r1	; 4
#endif
  return;
 } // end ReadInductance()
    3ca2:	64 96       	adiw	r28, 0x14	; 20
    3ca4:	e2 e1       	ldi	r30, 0x12	; 18
    3ca6:	0c 94 e4 33 	jmp	0x67c8	; 0x67c8 <__epilogue_restores__>

00003caa <GetESR>:
       	out	_SFR_IO_ADDR(SREG), r0;
	out	_SFR_IO_ADDR(SPL), r28;
#else
 .extern __prologue_saves__
 .extern __epilogue_restores__
	ldi	r26, 30			;
    3caa:	ae e1       	ldi	r26, 0x1E	; 30
	ldi	r27, 0			;
    3cac:	b0 e0       	ldi	r27, 0x00	; 0
	ldi	r30, lo8(gs(Retur2))	;
    3cae:	eb e5       	ldi	r30, 0x5B	; 91
	ldi	r31, hi8(gs(Retur2))	;
    3cb0:	fe e1       	ldi	r31, 0x1E	; 30
	jmp	__prologue_saves__ 	;
    3cb2:	0c 94 c8 33 	jmp	0x6790	; 0x6790 <__prologue_saves__>

00003cb6 <Retur2>:

#if TP_MIN > 0
	subi	r22, TP_MIN
	subi	r24, TP_MIN
#endif
	mov	SelectLowPin, r22;
    3cb6:	66 2e       	mov	r6, r22
	mov	SelectHighPin, r24;
    3cb8:	b8 2e       	mov	r11, r24
        add	r24, r22;
    3cba:	86 0f       	add	r24, r22
	std	Y+1, r24;
    3cbc:	89 83       	std	Y+1, r24	; 0x01

	lds	r18, PartFound;		/* if (PartFound == PART_CAPACITOR) { */
    3cbe:	20 91 1a 01 	lds	r18, 0x011A	; 0x80011a <PartFound>
	cpi	r18, PART_CAPACITOR;	
    3cc2:	28 30       	cpi	r18, 0x08	; 8
; 	brne	ad_35e4;
	brne	load_max;
    3cc4:	59 f5       	brne	.+86     	; 0x3d1c <load_max>
	lds	r18, cap+cval_max;      /* cap_val_nF = cap.cval_max; */
    3cc6:	20 91 77 01 	lds	r18, 0x0177	; 0x800177 <cap+0x4>
	lds	r19, cap+cval_max+1;
    3cca:	30 91 78 01 	lds	r19, 0x0178	; 0x800178 <cap+0x5>
	lds	r20, cap+cval_max+2;
    3cce:	40 91 79 01 	lds	r20, 0x0179	; 0x800179 <cap+0x6>
	lds	r21, cap+cval_max+3;
    3cd2:	50 91 7a 01 	lds	r21, 0x017A	; 0x80017a <cap+0x7>
        sbrc	r21, 7;			/* negativ bit is set */
    3cd6:	57 fd       	sbrc	r21, 7
	rjmp	set_high
    3cd8:	15 c0       	rjmp	.+42     	; 0x3d04 <set_high>
	lds	r17, cap+cpre_max;      /* prefix = cap.cpre_max; */
    3cda:	10 91 86 01 	lds	r17, 0x0186	; 0x800186 <cap+0x13>
	rjmp	ad_35ba;
    3cde:	09 c0       	rjmp	.+18     	; 0x3cf2 <ad_35ba>

00003ce0 <ad_35ac>:

ad_35ac:
	movw	r24, r20;               /* cval /= 10;          // reduce value by factor ten */
    3ce0:	ca 01       	movw	r24, r20
	movw	r22, r18
    3ce2:	b9 01       	movw	r22, r18
	ldi	r18, 0x0A; 10
    3ce4:	2a e0       	ldi	r18, 0x0A	; 10
	mov	r19, zero_reg
    3ce6:	31 2d       	mov	r19, r1
	mov	r20, zero_reg
    3ce8:	41 2d       	mov	r20, r1
	mov	r21, zero_reg
    3cea:	51 2d       	mov	r21, r1
	call	__udivmodsi4;           /* r18:21 = r22:25  / r18:21 */
    3cec:	0e 94 e0 32 	call	0x65c0	; 0x65c0 <__udivmodsi4>
	subi	r17, 0xFF;              /* prefix++;            // take next decimal prefix */
    3cf0:	1f 5f       	subi	r17, 0xFF	; 255

00003cf2 <ad_35ba>:

ad_35ba:
	cpi	r17, -9;                /* while (prefix < -9) { // set cval to nF unit */
    3cf2:	17 3f       	cpi	r17, 0xF7	; 247
	brlt	ad_35ac;                /*  } */
    3cf4:	ac f3       	brlt	.-22     	; 0x3ce0 <ad_35ac>
        brne    load_max;		/* load max value for correction */
    3cf6:	91 f4       	brne	.+36     	; 0x3d1c <load_max>


;	cpi	r18, lo8(900/10);       /* if (cap_val_nF < (900/10)) return(0xffff);   //capacity lower than 90 nF */
;	ldi	r22, hi8(900/10)
	cpi	r18, lo8(200/10);       /* if (cap_val_nF < (200/10)) return(0xffff);   //capacity lower than 20 nF */
    3cf8:	24 31       	cpi	r18, 0x14	; 20
	ldi	r22, hi8(200/10)
    3cfa:	60 e0       	ldi	r22, 0x00	; 0
	cpc	r19, r22
    3cfc:	36 07       	cpc	r19, r22
	cpc	r20, zero_reg
    3cfe:	41 05       	cpc	r20, r1
	cpc	r21, zero_reg
    3d00:	51 05       	cpc	r21, r1
	brcc	ad_35e4
    3d02:	18 f4       	brcc	.+6      	; 0x3d0a <ad_35e4>

00003d04 <set_high>:
set_high:
	ldi	r24, 0xff;
    3d04:	8f ef       	ldi	r24, 0xFF	; 255
	ldi	r25, 0xff;
    3d06:	9f ef       	ldi	r25, 0xFF	; 255
	rjmp	ad_exit; 
    3d08:	44 c1       	rjmp	.+648    	; 0x3f92 <ad_exit>

00003d0a <ad_35e4>:
ad_35e4:				/* } */
	cpi	r17, -9;		/* if ((pp > -9) || (cap_val_nF > 32000)) { */
    3d0a:	17 3f       	cpi	r17, 0xF7	; 247
	brne	load_max;
    3d0c:	39 f4       	brne	.+14     	; 0x3d1c <load_max>
	ldi	r24, lo8(32000);
    3d0e:	80 e0       	ldi	r24, 0x00	; 0
	cp	r18, r24
    3d10:	28 17       	cp	r18, r24
        ldi	r24, hi8(32000);
    3d12:	8d e7       	ldi	r24, 0x7D	; 125
	cpc	r19, r24;
    3d14:	38 07       	cpc	r19, r24
;	ldi	r24, hlo8(32000);
;	cpc	r20, r24;
	cpc	r20, r1;
    3d16:	41 05       	cpc	r20, r1
;	ldi	r24, hhi8(32000);
;	cpc	r21, r24;
	cpc	r20, r1;
    3d18:	41 05       	cpc	r20, r1
	brcs	store_cvn;
    3d1a:	10 f0       	brcs	.+4      	; 0x3d20 <store_cvn>

00003d1c <load_max>:
load_max:
	ldi	r18, lo8(32000);		/* cap_val_nF = 65000 */
    3d1c:	20 e0       	ldi	r18, 0x00	; 0
	ldi	r19, hi8(32000);
    3d1e:	3d e7       	ldi	r19, 0x7D	; 125

00003d20 <store_cvn>:
;	ldi	r20, hlo8(32000);		/* upper word is allways zero */
;	ldi	r21, hhi8(32000);		/* upper word is allways zero */
store_cvn:
	std	Y+cap_val_nF, r18
    3d20:	2c 8b       	std	Y+20, r18	; 0x14
	std	Y+cap_val_nF+1, r19
    3d22:	3d 8b       	std	Y+21, r19	; 0x15
     /* normal ADC-speed, ADC-Clock 8us */
	ldi	r25, (1<<ADEN) | (1<<ADIF) | (1<<ADIE) | AUTO_CLOCK_DIV; /* enable ADC and Interrupt */
	mov	StartADCmsk, r25;
	sts	ADCSRA, StartADCmsk; 	/*  ADCSRA = StartADCmsk;	// enable ADC and Interrupt */
#else
	ldi	r18, (1<<ADSC) | (1<<ADEN) | (1<<ADIF) | AUTO_CLOCK_DIV; /* enable and start ADC */
    3d24:	27 ed       	ldi	r18, 0xD7	; 215
	mov	StartADCmsk, r18;
    3d26:	a2 2e       	mov	r10, r18
#endif

#if (((PIN_RL1 + 1) != PIN_RH1) || ((PIN_RL2 + 1) != PIN_RH2) || ((PIN_RL3 + 1) != PIN_RH3))
	LDIZ	PinRLRHADCtab+6; 	/* LoADC = pgm_read_byte((&PinRLRHADCtab[6])+cap.ca) | TXD_MSK; */
#else
	LDIZ	PinRLRHADCtab+3; 	/* LoADC = pgm_read_byte((&PinRLRHADCtab[3])+cap.ca) | TXD_MSK; */
    3d28:	ef e8       	ldi	r30, 0x8F	; 143
    3d2a:	f1 e0       	ldi	r31, 0x01	; 1
#endif
	add	r30, SelectLowPin;
    3d2c:	e6 0d       	add	r30, r6
	adc	r31, zero_reg;
    3d2e:	f1 1d       	adc	r31, r1
	lpm	r24, Z+;
    3d30:	85 91       	lpm	r24, Z+
	ori	r24, TXD_MSK;
    3d32:	88 60       	ori	r24, 0x08	; 8
	std	Y+LoADC, r24;
    3d34:	8e 87       	std	Y+14, r24	; 0x0e

#if (((PIN_RL1 + 1) != PIN_RH1) || ((PIN_RL2 + 1) != PIN_RH2) || ((PIN_RL3 + 1) != PIN_RH3))
	LDIZ	PinRLRHADCtab+6; 	/* HiADC = pgm_read_byte((&PinRLRHADCtab[6])+cap.cb) | TXD_MSK; */
#else
	LDIZ	PinRLRHADCtab+3; 	/* HiADC = pgm_read_byte((&PinRLRHADCtab[3])+cap.cb) | TXD_MSK; */
    3d36:	ef e8       	ldi	r30, 0x8F	; 143
    3d38:	f1 e0       	ldi	r31, 0x01	; 1
#endif
	add	r30, SelectHighPin;
    3d3a:	eb 0d       	add	r30, r11
	adc	r31, zero_reg;
    3d3c:	f1 1d       	adc	r31, r1
	lpm	r24, Z+;
    3d3e:	85 91       	lpm	r24, Z+
	ori	r24, TXD_MSK;
    3d40:	88 60       	ori	r24, 0x08	; 8
	std	Y+HiADC, r24;
    3d42:	8f 87       	std	Y+15, r24	; 0x0f

	LDIZ	PinRLRHADCtab;	/* LoPinR_L = pgm_read_byte(&PinRLRHADCtab[cap.ca]);  //R_L mask for LowPin R_L load */
    3d44:	ec e8       	ldi	r30, 0x8C	; 140
    3d46:	f1 e0       	ldi	r31, 0x01	; 1
	add	r30, SelectLowPin;
    3d48:	e6 0d       	add	r30, r6
	adc	r31, zero_reg;
    3d4a:	f1 1d       	adc	r31, r1
	lpm	LoPinR_L, Z+;
    3d4c:	75 90       	lpm	r7, Z+

	LDIZ	PinRLRHADCtab;	/* HiPinR_L = pgm_read_byte(&PinRLRHADCtab[cap.cb]);	//R_L mask for HighPin R_L load */
    3d4e:	ec e8       	ldi	r30, 0x8C	; 140
    3d50:	f1 e0       	ldi	r31, 0x01	; 1
	add	r30, SelectHighPin;
    3d52:	eb 0d       	add	r30, r11
	adc	r31, zero_reg;
    3d54:	f1 1d       	adc	r31, r1
	lpm	HiPinR_L, Z+;
    3d56:	c5 90       	lpm	r12, Z+
	or	SelectLowPin, r25;
	//  SelectHighPin = (cap.cb | (1<<REFS1) | (0<<REFS0));	// switch ADC to HighPin, Internal Ref. 
	or	SelectHighPin, r25;
#else
	//  SelectLowPin = (cap.ca | (1<<REFS1) | (1<<REFS0));	// switch ADC to LowPin, Internal Ref. 
	ldi	r25, (1<<REFS1)|(1<<REFS0);	0xC0
    3d58:	90 ec       	ldi	r25, 0xC0	; 192
	or	SelectLowPin, r25;
    3d5a:	69 2a       	or	r6, r25
	//  SelectHighPin = (cap.cb | (1<<REFS1) | (1<<REFS0));	// switch ADC to HighPin, Internal Ref. 
	or	SelectHighPin, r25;
    3d5c:	b9 2a       	or	r11, r25
#endif


	// Measurement of ESR of capacitors AC Mode
	ldi	r24, 0x01; 	/* sumvolt0 = 1;	// set sum of LowPin voltage to 1 to prevent divide by zero */
    3d5e:	81 e0       	ldi	r24, 0x01	; 1
	mov	r14, r24;
    3d60:	e8 2e       	mov	r14, r24
	mov	r15, zero_reg;
    3d62:	f1 2c       	mov	r15, r1
	mov	r16, zero_reg;
    3d64:	01 2d       	mov	r16, r1
	mov	r17, zero_reg;
    3d66:	11 2d       	mov	r17, r1
	std	Y+sumvolt1, r24;	/* sumvolt1 = 1;	// clear sum of HighPin voltage with current */
    3d68:	8e 83       	std	Y+6, r24	; 0x06
	//                                // offset is about (x*10*200)/34000 in 0.01 Ohm units
	std	Y+sumvolt1+1, zero_reg;
    3d6a:	1f 82       	std	Y+7, r1	; 0x07
	std	Y+sumvolt1+2, zero_reg;
    3d6c:	18 86       	std	Y+8, r1	; 0x08
	std	Y+sumvolt1+3, zero_reg;
    3d6e:	19 86       	std	Y+9, r1	; 0x09
	std	Y+sumvolt2, zero_reg;	/* sumvolt2 = 0;	// clear sum of HighPin voltage without current */
    3d70:	1a 86       	std	Y+10, r1	; 0x0a
	std	Y+sumvolt2+1, zero_reg;
    3d72:	1b 86       	std	Y+11, r1	; 0x0b
	std	Y+sumvolt2+2, zero_reg;
    3d74:	1c 86       	std	Y+12, r1	; 0x0c
	std	Y+sumvolt2+3, zero_reg;
    3d76:	1d 86       	std	Y+13, r1	; 0x0d
	std	Y+LowUpCount, zero_reg;
    3d78:	18 8e       	std	Y+24, r1	; 0x18
	std	Y+HighUpCount, zero_reg;
    3d7a:	19 8e       	std	Y+25, r1	; 0x19
	std	Y+HighTooHigh, zero_reg;
    3d7c:	1b 8e       	std	Y+27, r1	; 0x1b
	std	Y+LowTooHigh, zero_reg;
    3d7e:	1a 8e       	std	Y+26, r1	; 0x1a
	call	EntladePins;	/* EntladePins();	// discharge capacitor */
    3d80:	0e 94 04 15 	call	0x2a08	; 0x2a08 <EntladePins>
	ldi	r24, TXD_VAL;
    3d84:	88 e0       	ldi	r24, 0x08	; 8
	AOUT	ADC_PORT, r24; /* ADC_PORT = TXD_VAL;	// switch ADC-Port to GND */
    3d86:	88 b9       	out	0x08, r24	; 8
	sts	ADMUX, SelectLowPin;	/* ADMUX = SelectLowPin;	// set Mux input and Voltage Reference to internal 1.1V */
    3d88:	60 92 7c 00 	sts	0x007C, r6	; 0x80007c <__TEXT_REGION_LENGTH__+0x7e007c>
#ifdef NO_AREF_CAP
	call	wait100us;			/* time for voltage stabilization */
    3d8c:	0e 94 3a 05 	call	0xa74	; 0xa74 <wait100us>
#else
	call	wait10ms;    		/* time for voltage stabilization with 100nF */
#endif
	/* start voltage should be negativ */
	ldd	r19, Y+HiADC;		/* ADC_DDR = HiADC;	// switch High Pin to GND */
    3d90:	3f 85       	ldd	r19, Y+15	; 0x0f
	AOUT	ADC_DDR, r19;		/* switch High Pin to GND */
    3d92:	37 b9       	out	0x07, r19	; 7
	AOUT	R_PORT, LoPinR_L	/* r7 */
    3d94:	75 b8       	out	0x05, r7	; 5
	AOUT	R_DDR, LoPinR_L		/* r7 */
    3d96:	74 b8       	out	0x04, r7	; 4
	ldi	r21, (HALF_PULSE_LENGTH_TICS/3)
    3d98:	55 e0       	ldi	r21, 0x05	; 5

00003d9a <plop1>:
plop1:
	dec	r21
    3d9a:	5a 95       	dec	r21
	brne	plop1
    3d9c:	f1 f7       	brne	.-4      	; 0x3d9a <plop1>
#if (HALF_PULSE_LENGTH_TICS % 3) > 1
	nop
#endif
#if (HALF_PULSE_LENGTH_TICS % 3) > 0
	nop
    3d9e:	00 00       	nop
#endif
	AOUT	R_DDR, zero_reg;	/* R_DDR = 0 */
    3da0:	14 b8       	out	0x04, r1	; 4
	AOUT	R_PORT, zero_reg;	/* R_PORT = 0 */
    3da2:	15 b8       	out	0x05, r1	; 5

	   // Measurement frequency is given by sum of ADC-Reads < 1116 Hz for normal ADC speed.
	   // ADC Sample and Hold (SH) is done 1.5 ADC clock number after real start of conversion.
	   // Real ADC-conversion is started with the next ADC-Clock (125kHz) after setting the ADSC bit.
	eor	r13, r13;			/* for(ii=0;ii<MAX_CNT;ii++) { */
    3da4:	dd 24       	eor	r13, r13

00003da6 <esr_loop>:
						// That will cause too high voltage without current.
	//         adcv[0] = ADCW;		// Voltage LowPin with current
	//         ADMUX = SelectHighPin;
	      /* ********* Forward direction, connect Low side with GND *********** */
esr_loop:
	ldd	r19, Y+LoADC;
    3da6:	3e 85       	ldd	r19, Y+14	; 0x0e
	AOUT	ADC_DDR, r19;		/* ADC_DDR = LoADC;	// switch Low-Pin to output (GND) */
    3da8:	37 b9       	out	0x07, r19	; 7
	AOUT	R_PORT, LoPinR_L;	/* R_PORT = LoPinR_L (r7) */
    3daa:	75 b8       	out	0x05, r7	; 5
	AOUT	R_DDR, LoPinR_L;	/* R_DDR = LoPinR_L (r7) */
    3dac:	74 b8       	out	0x04, r7	; 4
	sts	ADMUX, SelectLowPin;		/* ADMUX = SelectLowPin; */
    3dae:	60 92 7c 00 	sts	0x007C, r6	; 0x80007c <__TEXT_REGION_LENGTH__+0x7e007c>

	wdr	;				/* wdt_reset(); */
    3db2:	a8 95       	wdr
;=#=	StartADCwait			/* start ADC and wait */
	StartADCwait			/* start ADC and wait */
    3db4:	a0 92 7a 00 	sts	0x007A, r10	; 0x80007a <__TEXT_REGION_LENGTH__+0x7e007a>
    3db8:	80 91 7a 00 	lds	r24, 0x007A	; 0x80007a <__TEXT_REGION_LENGTH__+0x7e007a>
    3dbc:	86 fd       	sbrc	r24, 6
    3dbe:	fc cf       	rjmp	.-8      	; 0x3db8 <esr_loop+0x12>
	lds	adcv0L, ADCW;			/* adcv[0] = ADCW;	// Voltage LowPin reference */
    3dc0:	20 90 78 00 	lds	r2, 0x0078	; 0x800078 <__TEXT_REGION_LENGTH__+0x7e0078>
	lds	adcv0H, ADCW+1;
    3dc4:	30 90 79 00 	lds	r3, 0x0079	; 0x800079 <__TEXT_REGION_LENGTH__+0x7e0079>
	sts	ADMUX, SelectHighPin;		/* ADMUX = SelectHighPin; */
    3dc8:	b0 92 7c 00 	sts	0x007C, r11	; 0x80007c <__TEXT_REGION_LENGTH__+0x7e007c>

	mov	r20, HiPinR_L
    3dcc:	4c 2d       	mov	r20, r12
	rcall	strtADC_pulse		; start ADC, generate pulse and wait 
    3dce:	e5 d0       	rcall	.+458    	; 0x3f9a <strtADC_pulse>

	lds	r18, ADCW;		/* adcv[1] = ADCW;	// Voltage HighPin with current */
    3dd0:	20 91 78 00 	lds	r18, 0x0078	; 0x800078 <__TEXT_REGION_LENGTH__+0x7e0078>
	lds	r19, ADCW+1;
    3dd4:	30 91 79 00 	lds	r19, 0x0079	; 0x800079 <__TEXT_REGION_LENGTH__+0x7e0079>
	sts	ADCSRA, StartADCmsk; 	/*  ADCSRA = StartADCmsk;	// enable ADC and Interrupt */
#endif

;=======

	std	Y+adcvv1, r18;
    3dd8:	28 8b       	std	Y+16, r18	; 0x10
	std	Y+adcvv1+1, r19;
    3dda:	39 8b       	std	Y+17, r19	; 0x11

	      /* ********* Reverse direction, connect High side with GND *********** */
	ldd	r19, Y+HiADC;		/* ADC_DDR = HiADC;	// switch High Pin to GND */
    3ddc:	3f 85       	ldd	r19, Y+15	; 0x0f
	AOUT	ADC_DDR, r19;		/* ADC_DDR = HiADC;	// switch High-Pin to output (GND) */
    3dde:	37 b9       	out	0x07, r19	; 7
	AOUT	R_PORT, HiPinR_L;	/* R_PORT = HiPinR_L (r12);	// switch R-Port to VCC */
    3de0:	c5 b8       	out	0x05, r12	; 5
	AOUT	R_DDR, HiPinR_L;	/* R_DDR = HiPinR_L (r12);	// switch R_L port for HighPin to output (VCC) */
    3de2:	c4 b8       	out	0x04, r12	; 4

	wdr	;			/* wdt_reset(); */
    3de4:	a8 95       	wdr
	sts	ADMUX, SelectHighPin;	/* ADMUX = SelectHighPin; */
    3de6:	b0 92 7c 00 	sts	0x007C, r11	; 0x80007c <__TEXT_REGION_LENGTH__+0x7e007c>

;=#=	StartADCwait		/* start ADC and wait */
	StartADCwait		/* start ADC and wait */
    3dea:	a0 92 7a 00 	sts	0x007A, r10	; 0x80007a <__TEXT_REGION_LENGTH__+0x7e007a>
    3dee:	80 91 7a 00 	lds	r24, 0x007A	; 0x80007a <__TEXT_REGION_LENGTH__+0x7e007a>
    3df2:	86 fd       	sbrc	r24, 6
    3df4:	fc cf       	rjmp	.-8      	; 0x3dee <esr_loop+0x48>

	lds	r22, ADCW;         	/* adcv[2] = ADCW;	// Reverse Reference Voltage HighPin  */
    3df6:	60 91 78 00 	lds	r22, 0x0078	; 0x800078 <__TEXT_REGION_LENGTH__+0x7e0078>
	lds	r23, ADCW+1;
    3dfa:	70 91 79 00 	lds	r23, 0x0079	; 0x800079 <__TEXT_REGION_LENGTH__+0x7e0079>
	sts	ADMUX, SelectLowPin;	/*  ADMUX = SelectLowPin; */
    3dfe:	60 92 7c 00 	sts	0x007C, r6	; 0x80007c <__TEXT_REGION_LENGTH__+0x7e007c>
	// ****** Polling mode big cap
	mov	r20, LoPinR_L
    3e02:	47 2d       	mov	r20, r7
	rcall	strtADC_pulse		; start ADC, generate pulse and wait 
    3e04:	ca d0       	rcall	.+404    	; 0x3f9a <strtADC_pulse>

	lds	r20, ADCW;		/* adcv[3] = ADCW;	//  Voltage LowPin with current */
    3e06:	40 91 78 00 	lds	r20, 0x0078	; 0x800078 <__TEXT_REGION_LENGTH__+0x7e0078>
	lds	r21, ADCW+1;
    3e0a:	50 91 79 00 	lds	r21, 0x0079	; 0x800079 <__TEXT_REGION_LENGTH__+0x7e0079>
#ifdef ADC_Sleep_Mode
	sts	ADCSRA, StartADCmsk; 	/*  ADCSRA = StartADCmsk;	// enable ADC and Interrupt */
#endif

	AOUT	R_DDR, zero_reg; 	/* R_DDR = 0; // switch current off */
    3e0e:	14 b8       	out	0x04, r1	; 4

	movw	r24, r22;		/*  adcv[2] */
    3e10:	cb 01       	movw	r24, r22
	add	r24, adcv0L;		/* adcv[0] + adcv[2] // add sum of both LowPin voltages with current */
    3e12:	82 0d       	add	r24, r2
	adc	r25, adcv0H;
    3e14:	93 1d       	adc	r25, r3

	add	r14, r24;		/* r14:17 = sumvolt0 += (adcv[0] + adcv[2]); */
    3e16:	e8 0e       	add	r14, r24
	adc	r15, r25;
    3e18:	f9 1e       	adc	r15, r25
	adc	r16, zero_reg;
    3e1a:	01 1d       	adc	r16, r1
	adc	r17, zero_reg;
    3e1c:	11 1d       	adc	r17, r1
	std	Y+sumvolt0, r14;
    3e1e:	ea 82       	std	Y+2, r14	; 0x02
	std	Y+sumvolt0+1, r15;
    3e20:	fb 82       	std	Y+3, r15	; 0x03
	std	Y+sumvolt0+2, r16;
    3e22:	0c 83       	std	Y+4, r16	; 0x04
	std	Y+sumvolt0+3, r17;
    3e24:	1d 83       	std	Y+5, r17	; 0x05
	ldd	r24, Y+adcvv1;		/* add HighPin voltages with current */
    3e26:	88 89       	ldd	r24, Y+16	; 0x10
	ldd	r25, Y+adcvv1+1; 
    3e28:	99 89       	ldd	r25, Y+17	; 0x11
	add	r24, r20;		/* adcv[1] + adcv[3] */
    3e2a:	84 0f       	add	r24, r20
	adc	r25, r21;
    3e2c:	95 1f       	adc	r25, r21
	ldd	r18, Y+sumvolt1;	/* sumvolt1 += (adcv[1] + adcv[3]); */
    3e2e:	2e 81       	ldd	r18, Y+6	; 0x06
	ldd	r19, Y+sumvolt1+1;
    3e30:	3f 81       	ldd	r19, Y+7	; 0x07
	ldd	r22, Y+sumvolt1+2;
    3e32:	68 85       	ldd	r22, Y+8	; 0x08
	ldd	r23, Y+sumvolt1+3;
    3e34:	79 85       	ldd	r23, Y+9	; 0x09
	add	r18, r24;
    3e36:	28 0f       	add	r18, r24
	adc	r19, r25;
    3e38:	39 1f       	adc	r19, r25
	adc	r22, zero_reg;
    3e3a:	61 1d       	adc	r22, r1
	adc	r23, zero_reg;
    3e3c:	71 1d       	adc	r23, r1
	std	Y+sumvolt1, r18;
    3e3e:	2e 83       	std	Y+6, r18	; 0x06
	std	Y+sumvolt1+1, r19;
    3e40:	3f 83       	std	Y+7, r19	; 0x07
	std	Y+sumvolt1+2, r22;
    3e42:	68 87       	std	Y+8, r22	; 0x08
	std	Y+sumvolt1+3, r23;
    3e44:	79 87       	std	Y+9, r23	; 0x09

/*===================================================================================================*/
/*      Range Check for voltages  */
  	/* Y+adcvv1 is still the voltage of forward direction, r20:21 the voltage of reverse direction */
	ldi	r18, lo8(50);
    3e46:	22 e3       	ldi	r18, 0x32	; 50
	cp	r18, r20;
    3e48:	24 17       	cp	r18, r20
	cpc	zero_reg, r21;
    3e4a:	15 06       	cpc	r1, r21
	brcs	is_ok1;		/* r20:21 >= 50 */
    3e4c:	50 f0       	brcs	.+20     	; 0x3e62 <is_ok1>
	AOUT	R_PORT, LoPinR_L;	/* R_PORT = LoPinR_L (r7);  */
    3e4e:	75 b8       	out	0x05, r7	; 5
	AOUT	R_DDR, LoPinR_L;	/* R_DDR = LoPinR_L (r7);	// switch LowPin with 680 Ohm to VCC */
    3e50:	74 b8       	out	0x04, r7	; 4
	call	wait1us;			/* additional charge the capacitor */
    3e52:	0e 94 44 05 	call	0xa88	; 0xa88 <wait1us>
	AOUT	R_DDR, zero_reg; 	// switch current off
    3e56:	14 b8       	out	0x04, r1	; 4
	AOUT	R_PORT, zero_reg; 
    3e58:	15 b8       	out	0x05, r1	; 5
	ldd	r24, Y+LowUpCount; 	/* count additional load pulses at Low side */
    3e5a:	88 8d       	ldd	r24, Y+24	; 0x18
	inc	r24;
    3e5c:	83 95       	inc	r24
	std	Y+LowUpCount, r24;
    3e5e:	88 8f       	std	Y+24, r24	; 0x18
	rjmp	is_ok1b;
    3e60:	07 c0       	rjmp	.+14     	; 0x3e70 <is_ok1b>

00003e62 <is_ok1>:
is_ok1:
	cpi	r20, lo8(1000);
    3e62:	48 3e       	cpi	r20, 0xE8	; 232
        ldi	r23, hi8(1000);
    3e64:	73 e0       	ldi	r23, 0x03	; 3
	cpc	r21, r23;
    3e66:	57 07       	cpc	r21, r23
        brcs	is_ok1b;			/* voltage reverse direction < 1000 */
    3e68:	18 f0       	brcs	.+6      	; 0x3e70 <is_ok1b>
	ldd	r24, Y+LowTooHigh; 	/* count  pulses with too high voltage at Low side */
    3e6a:	8a 8d       	ldd	r24, Y+26	; 0x1a
	inc	r24;
    3e6c:	83 95       	inc	r24
	std	Y+LowTooHigh, r24;
    3e6e:	8a 8f       	std	Y+26, r24	; 0x1a

00003e70 <is_ok1b>:
is_ok1b:
	ldd	r24, Y+adcvv1;
    3e70:	88 89       	ldd	r24, Y+16	; 0x10
	ldd	r25, Y+adcvv1+1;
    3e72:	99 89       	ldd	r25, Y+17	; 0x11
	cp	r18, r24;
    3e74:	28 17       	cp	r18, r24
	cpc	zero_reg, r25;	/* adcvv1 >= 50 */
    3e76:	19 06       	cpc	r1, r25
	brcs	is_ok2;
    3e78:	60 f0       	brcs	.+24     	; 0x3e92 <is_ok2>
	ldd	r19, Y+LoADC;
    3e7a:	3e 85       	ldd	r19, Y+14	; 0x0e
	AOUT	ADC_DDR, r19;		/* ADC_DDR = LoADC;	// switch Low-Pin to output (GND) */
    3e7c:	37 b9       	out	0x07, r19	; 7
	AOUT	R_PORT, HiPinR_L;	/* R_PORT = HiPinR_L (r12);	// switch R-Port to VCC */
    3e7e:	c5 b8       	out	0x05, r12	; 5
	AOUT	R_DDR, HiPinR_L;	/* R_DDR = HiPinR_L (r12);	// switch R_L port for HighPin to output (VCC) */
    3e80:	c4 b8       	out	0x04, r12	; 4
	call	wait1us;			/* additional charge the capacitor */
    3e82:	0e 94 44 05 	call	0xa88	; 0xa88 <wait1us>
;##	DelayBigCap;			/* wait the time defined by macro */
	AOUT	R_DDR, zero_reg;	/* R_DDR = 0; // switch current off,  SH is 1.5 ADC clock behind real start */
    3e86:	14 b8       	out	0x04, r1	; 4
	AOUT	R_PORT, zero_reg;	/* R_PORT = 0; */
    3e88:	15 b8       	out	0x05, r1	; 5
	ldd	r24, Y+HighUpCount;	/* count additional load pulses at High side */
    3e8a:	89 8d       	ldd	r24, Y+25	; 0x19
	inc	r24;
    3e8c:	83 95       	inc	r24
	std	Y+HighUpCount, r24;
    3e8e:	89 8f       	std	Y+25, r24	; 0x19
	rjmp	is_ok2b;
    3e90:	07 c0       	rjmp	.+14     	; 0x3ea0 <is_ok2b>

00003e92 <is_ok2>:
is_ok2:
	cpi	r24, lo8(1000);
    3e92:	88 3e       	cpi	r24, 0xE8	; 232
        ldi	r23, hi8(1000);
    3e94:	73 e0       	ldi	r23, 0x03	; 3
	cpc	r25, r23;
    3e96:	97 07       	cpc	r25, r23
        brcs	is_ok2b;			/* voltage forward direction < 1000 */
    3e98:	18 f0       	brcs	.+6      	; 0x3ea0 <is_ok2b>
	ldd	r24, Y+HighTooHigh; 	/* count  pulses with too high voltage at High side */
    3e9a:	8b 8d       	ldd	r24, Y+27	; 0x1b
	inc	r24;
    3e9c:	83 95       	inc	r24
	std	Y+HighTooHigh, r24;
    3e9e:	8b 8f       	std	Y+27, r24	; 0x1b

00003ea0 <is_ok2b>:
is_ok2b:
/*===================================================================================================*/
	inc	r13;			/* for(    ;ii<MAX_CNT;ii++)  */
    3ea0:	d3 94       	inc	r13
	mov	r21, r13;
    3ea2:	5d 2d       	mov	r21, r13
	cpi	r21, MAX_CNT;
    3ea4:	5f 3f       	cpi	r21, 0xFF	; 255
	breq	ad_38ac;
    3ea6:	49 f0       	breq	.+18     	; 0x3eba <ad_38ac>
#if FLASHEND > 0x3fff
  /* use additional 470k only with processors with more than 16k */
        cpi	r21, MAX_CNT/2;
    3ea8:	5f 37       	cpi	r21, 0x7F	; 127
        brne	jesr_loop
    3eaa:	31 f4       	brne	.+12     	; 0x3eb8 <jesr_loop>
	add	r30, r21;
	adc	r31, zero_reg;
	lpm	r21, Z+;
	add	LoPinR_L, r21		; enable also the 470k resistor
 #else
	mov	r21, HiPinR_L
    3eac:	5c 2d       	mov	r21, r12
	add	r21, r21	; quick and dirty: usually is double HiPinR_H
    3eae:	55 0f       	add	r21, r21
	add	HiPinR_L, r21
    3eb0:	c5 0e       	add	r12, r21
	mov	r21, LoPinR_L
    3eb2:	57 2d       	mov	r21, r7
	add	r21, r21	; quick and dirty: usually is double LoPinR_H
    3eb4:	55 0f       	add	r21, r21
	add	LoPinR_L, r21
    3eb6:	75 0e       	add	r7, r21

00003eb8 <jesr_loop>:
 #endif
jesr_loop:
#endif
	rjmp	esr_loop;		/* } // end for */
    3eb8:	76 cf       	rjmp	.-276    	; 0x3da6 <esr_loop>

00003eba <ad_38ac>:

#if RRpinMI == PIN_RM
	ldi	r18, lo8(PIN_RM*10);
	ldi	r19, hi8(PIN_RM*10);
#else
	lds	r4, RRpinMI;		/*  pin_rmi */
    3eba:	40 90 38 01 	lds	r4, 0x0138	; 0x800138 <pin_rmi>
	lds	r5, RRpinMI+1;
    3ebe:	50 90 39 01 	lds	r5, 0x0139	; 0x800139 <pin_rmi+0x1>
	add	r4, r4;		RRpinMI*2
    3ec2:	44 0c       	add	r4, r4
	adc	r5, r5;
    3ec4:	55 1c       	adc	r5, r5
	movw	r18, r4;
    3ec6:	92 01       	movw	r18, r4
	ldi	r30, 4;
    3ec8:	e4 e0       	ldi	r30, 0x04	; 4

00003eca <ad_2r>:
ad_2r:
	add	r18, r4;		+ 4*(2*RRpinMI)
    3eca:	24 0d       	add	r18, r4
	adc	r19, r5;
    3ecc:	35 1d       	adc	r19, r5
	dec	r30;
    3ece:	ea 95       	dec	r30
	brne	ad_2r;			add next (2*RRpinMI)
    3ed0:	e1 f7       	brne	.-8      	; 0x3eca <ad_2r>
#endif
	movw	r4, r18;		/* r4:5 = 10 * RRpinMI */
    3ed2:	29 01       	movw	r4, r18
	movw	r10, r14;		/* r10:13 = r14:17 = sumvolt0 */
    3ed4:	57 01       	movw	r10, r14
	movw	r12, r16;
    3ed6:	68 01       	movw	r12, r16

	ldd	r6, Y+sumvolt1;
    3ed8:	6e 80       	ldd	r6, Y+6	; 0x06
	ldd	r7, Y+sumvolt1+1;
    3eda:	7f 80       	ldd	r7, Y+7	; 0x07
	ldd	r8, Y+sumvolt1+2;
    3edc:	88 84       	ldd	r8, Y+8	; 0x08
	ldd	r9, Y+sumvolt1+3;
    3ede:	99 84       	ldd	r9, Y+9	; 0x09
/* ############################################################ */
	lds	r18, PartFound;		/* if (PartFound == PART_CAPACITOR) { */
    3ee0:	20 91 1a 01 	lds	r18, 0x011A	; 0x80011a <PartFound>
	cpi	r18, PART_CAPACITOR;	
    3ee4:	28 30       	cpi	r18, 0x08	; 8
 	brne	no_sub;			/* it is not a capacitor */
    3ee6:	c1 f4       	brne	.+48     	; 0x3f18 <no_sub>
/* Aproximation of 5000*(1 - exp(13.5e-6/(cap_val_nF*1.e-9*(0.1*(PIN_RM+PIN_RP+R_L_VAL)))) - 2500*(1 - exp(-27e-6/(cap_val_nF*1.e-9*(0.1*(PIN_RM+PIN_RP+R_L_VAL))))) */
/*  is done by ((6744116/(PIN_RM+PIN_RP+R_L_VAL))*(6744116/(PIN_RM+PIN_RP+R_L_VAL))) / (cap_val_nF * (cap_val_nF + (137180/(PIN_RM+PIN_RP+R_L_VAL)))) */
/*  is done by 872520 / (cap_val_nF * (cap_val_nF + 19)) */
; #define FAKTOR_ESR (9537620/(PIN_RM+PIN_RP+R_L_VAL))

	ldd	r22, Y+cap_val_nF;	/* sumvolt1 -= (1745098UL*MAX_CNT) / (cap_val_nF * (cap_val_nF + 19)); */
    3ee8:	6c 89       	ldd	r22, Y+20	; 0x14
	ldd	r23, Y+cap_val_nF+1;
    3eea:	7d 89       	ldd	r23, Y+21	; 0x15
;	ldd	r24, Y+cap_val_nF+2;
	mov	r24, r1			/* upper bits of cap_val_nF are allway zero */
    3eec:	81 2d       	mov	r24, r1
;	ldd	r25, Y+cap_val_nF+3;
	mov	r25, r1			/* upper bits of cap_val_nF are allway zero */
    3eee:	91 2d       	mov	r25, r1
;#define FAKTOR_ESR (780000/(PIN_RM+PIN_RP+R_L_VAL))	/* 127 */
 #else
;#define FAKTOR_ESR (920000/(PIN_RM+PIN_RP+R_L_VAL))	/* 127 */
;#define CAP_OFFSET (433200/(PIN_RM+PIN_RP+R_L_VAL))	/* 60 nF */
 #endif
      	subi	r22, lo8(CAP_OFFSET); 0xED; 237
    3ef0:	65 50       	subi	r22, 0x05	; 5
      	sbci	r23, hi8(CAP_OFFSET); 0xFF; 255
    3ef2:	70 40       	sbci	r23, 0x00	; 0
      	sbci	r24, hlo8(CAP_OFFSET); 0xFF; 255
    3ef4:	80 40       	sbci	r24, 0x00	; 0
      	sbci	r25, hhi8(CAP_OFFSET); 0xFF; 255
    3ef6:	90 40       	sbci	r25, 0x00	; 0
	movw	r18, r22;		/* r18:21 = r22:25 = (cap_val_nF-60); */
    3ef8:	9b 01       	movw	r18, r22
	movw	r20, r24;
    3efa:	ac 01       	movw	r20, r24
	call	__mulsi3;		/* (cap_val_nF - 60) * (cap_val_nF - 60) */
    3efc:	0e 94 9e 32 	call	0x653c	; 0x653c <__mulsi3>

       	movw	r18, r22;
    3f00:	9b 01       	movw	r18, r22
       	movw	r20, r24;
    3f02:	ac 01       	movw	r20, r24
       	ldi	r22, lo8(FAKTOR_ESR*FAKTOR_ESR*MAX_CNT); 0x36; 54
    3f04:	60 e7       	ldi	r22, 0x70	; 112
       	ldi	r23, hi8(FAKTOR_ESR*FAKTOR_ESR*MAX_CNT); 0x29; 41
    3f06:	79 e7       	ldi	r23, 0x79	; 121
       	ldi	r24, hlo8(FAKTOR_ESR*FAKTOR_ESR*MAX_CNT); 0x86; 134
    3f08:	86 e1       	ldi	r24, 0x16	; 22
       	ldi	r25, hhi8(FAKTOR_ESR*FAKTOR_ESR*MAX_CNT); 0x1A; 26
    3f0a:	90 e0       	ldi	r25, 0x00	; 0
	call	__udivmodsi4;
    3f0c:	0e 94 e0 32 	call	0x65c0	; 0x65c0 <__udivmodsi4>
	sub	r6, r18
    3f10:	62 1a       	sub	r6, r18
	sbc	r7, r19
    3f12:	73 0a       	sbc	r7, r19
	sbc	r8, r20
    3f14:	84 0a       	sbc	r8, r20
	sbc	r9, r21
    3f16:	95 0a       	sbc	r9, r21

00003f18 <no_sub>:
no_sub:				/* } */
/* ############################################################ */

	cp	r10, r6;		/* if (sumvolt1 > sumvolt0) {  */
    3f18:	a6 14       	cp	r10, r6
	cpc	r11, r7;
    3f1a:	b7 04       	cpc	r11, r7
	cpc	r12, r8;
    3f1c:	c8 04       	cpc	r12, r8
	cpc	r13, r9;
    3f1e:	d9 04       	cpc	r13, r9
	brcc	ad_396c;
    3f20:	28 f4       	brcc	.+10     	; 0x3f2c <ad_396c>
	sub	r6, r10;		/* sumvolt1 -= sumvolt0;	// difference HighPin - LowPin Voltage with current */
    3f22:	6a 18       	sub	r6, r10
	sbc	r7, r11;
    3f24:	7b 08       	sbc	r7, r11
	sbc	r8, r12;
    3f26:	8c 08       	sbc	r8, r12
	sbc	r9, r13;
    3f28:	9d 08       	sbc	r9, r13
	rjmp	ad_3972;		/* } else { */
    3f2a:	03 c0       	rjmp	.+6      	; 0x3f32 <ad_3972>

00003f2c <ad_396c>:
ad_396c:
	eor	r6, r6;			/* sumvolt1 = 0; */
    3f2c:	66 24       	eor	r6, r6
	eor	r7, r7
    3f2e:	77 24       	eor	r7, r7
	movw	r8, r6
    3f30:	43 01       	movw	r8, r6

00003f32 <ad_3972>:
	ldi	r20, '#';
	ldi	r18, 4	;
	call	DisplayValue16;
	call	wait2s
#endif
	movw	r22, r4
    3f32:	b2 01       	movw	r22, r4
	ldi	r24, 0x00;
    3f34:	80 e0       	ldi	r24, 0x00	; 0
	ldi	r25, 0x00;	/*  r22:25 = 10 * (unsigned long)RRpinMI)  */
    3f36:	90 e0       	ldi	r25, 0x00	; 0
	      // mean voltage at the capacitor is higher with current
	      // sumvolt0 is the sum of voltages at LowPin, caused by output resistance of Port
	      // RRpinMI is the port output resistance in 0.1 Ohm units.
	      // we scale up the difference voltage with 10 to get 0.01 Ohm units of ESR
		/* esrvalue = (sumvolt1 * 10 * (unsigned long)RRpinMI) / sumvolt0; */
	movw	r18, r6;		/* r18:21 = r6:9 = sumvolt1 */
    3f38:	93 01       	movw	r18, r6
	movw	r20, r8;
    3f3a:	a4 01       	movw	r20, r8
	call	__mulsi3;		/* r22:25 = r22:25 * r18:21 */
    3f3c:	0e 94 9e 32 	call	0x653c	; 0x653c <__mulsi3>
	movw	r18, r10;	/* r18:21 = r10:13 = sumvolt0 */
    3f40:	95 01       	movw	r18, r10
	movw	r20, r12;
    3f42:	a6 01       	movw	r20, r12
	call	__udivmodsi4;		/* r18:21 = r22:25  / r18:21 */
    3f44:	0e 94 e0 32 	call	0x65c0	; 0x65c0 <__udivmodsi4>
	ldi	r24, lo8(EE_ESR_ZEROtab);	/* esr0 = (int8_t)eeprom_read_byte(&EE_ESR_ZEROtab[lopin+hipin]); */
    3f48:	83 e0       	ldi	r24, 0x03	; 3
	ldi	r25, hi8(EE_ESR_ZEROtab);
    3f4a:	93 e0       	ldi	r25, 0x03	; 3
        ldd	r23, Y+1;
    3f4c:	79 81       	ldd	r23, Y+1	; 0x01
        add	r24, r23;
    3f4e:	87 0f       	add	r24, r23
	adc	r25, zero_reg;
    3f50:	91 1d       	adc	r25, r1
	call	eeprom_read_byte;
    3f52:	0e 94 5b 34 	call	0x68b6	; 0x68b6 <eeprom_read_byte>
	mov	r6, r24;
    3f56:	68 2e       	mov	r6, r24
	movw	r24,r18;	/* r24:25 = r18:19 = esrvalue */
    3f58:	c9 01       	movw	r24, r18
	ldi	r22, 16;
    3f5a:	60 e1       	ldi	r22, 0x10	; 16
	ldi	r23, 0;
    3f5c:	70 e0       	ldi	r23, 0x00	; 0
	call	__udivmodhi4	/* r22:23 = r24:25 / r22:23 */
    3f5e:	0e 94 b9 32 	call	0x6572	; 0x6572 <__udivmodhi4>
	add	r18, r22;	/* esrvalue += esrvalue / 16; */
    3f62:	26 0f       	add	r18, r22
	adc	r19, r23;
    3f64:	37 1f       	adc	r19, r23
	movw	r24,r18;	/* esrvalue */
    3f66:	c9 01       	movw	r24, r18
	cp	r6, r24;		/* if (esrvalue > esr0) esrvalue -= esr0; */
    3f68:	68 16       	cp	r6, r24
	cpc	zero_reg, r25;
    3f6a:	19 06       	cpc	r1, r25
	brcc	esr_too_less;
    3f6c:	18 f4       	brcc	.+6      	; 0x3f74 <esr_too_less>
	sub	r24, r6;		/* - esr0 */ 
    3f6e:	86 19       	sub	r24, r6
	sbc	r25, zero_reg;
    3f70:	91 09       	sbc	r25, r1
	rjmp	ad_exit;
    3f72:	0f c0       	rjmp	.+30     	; 0x3f92 <ad_exit>

00003f74 <esr_too_less>:
esr_too_less:
#ifdef AUTO_CAL
        subi	r24, lo8(-R_LIMIT_TO_UNCALIBRATED);		/* + 0.20 Ohm */
    3f74:	8c 5e       	subi	r24, 0xEC	; 236
        sbci	r25, hi8(-R_LIMIT_TO_UNCALIBRATED);		/* esrvalue + 20 */
    3f76:	9f 4f       	sbci	r25, 0xFF	; 255
	cp	r24, r6;		/* if ((esrvalue+20) < esr0) ; */
    3f78:	86 15       	cp	r24, r6
	cpc	r25, zero_reg;
    3f7a:	91 05       	cpc	r25, r1
	brcc	esr_too_less2;
    3f7c:	40 f4       	brcc	.+16     	; 0x3f8e <esr_too_less2>
	ldd	r24, Y+cap_val_nF;	/* mark only, if cap_val_nF > 4500 */
    3f7e:	8c 89       	ldd	r24, Y+20	; 0x14
	ldd     r25, Y+cap_val_nF+1;
    3f80:	9d 89       	ldd	r25, Y+21	; 0x15
;	ldd	r26, Y+cap_val_nF+2;	/* the upper bits (cap_val_nF+2|3) are always zero */ 
	cpi	r24, lo8(4500);
    3f82:	84 39       	cpi	r24, 0x94	; 148
	ldi	r24, hi8(4500);
    3f84:	81 e1       	ldi	r24, 0x11	; 17
	cpc	r25, r24;
    3f86:	98 07       	cpc	r25, r24
	brcs	esr_too_less2;
    3f88:	10 f0       	brcs	.+4      	; 0x3f8e <esr_too_less2>
	call	mark_as_uncalibrated;
    3f8a:	0e 94 ff 0a 	call	0x15fe	; 0x15fe <mark_as_uncalibrated>

00003f8e <esr_too_less2>:
/*	ldi	r24,'<'; */
/*	call	lcd_data; */
esr_too_less2:
#endif
	mov	r24, zero_reg;
    3f8e:	81 2d       	mov	r24, r1
	mov	r25, zero_reg;
    3f90:	91 2d       	mov	r25, r1

00003f92 <ad_exit>:
	pop	r4;
	pop	r3;
	pop	r2;
	ret;
#else
	adiw	r28, 30
    3f92:	6e 96       	adiw	r28, 0x1e	; 30
	ldi	r30, 18
    3f94:	e2 e1       	ldi	r30, 0x12	; 18
	jmp	__epilogue_restores__
    3f96:	0c 94 e4 33 	jmp	0x67c8	; 0x67c8 <__epilogue_restores__>

00003f9a <strtADC_pulse>:
    delay to pin high: lds,sbrc,sts and out Instructions are 7 clock tics */
  #define PIN_HIGH_DELAY (6+OUT_DELAY + 3 + (F_CPU_HZ/4000000))
 #endif
 #define WAST_TICS (((TICS_PER_ADC_CLOCK*5)/2) - HALF_PULSE_LENGTH_TICS - PIN_HIGH_DELAY)
#else
	sts	TCCR1B, r1		; stop counter1
    3f9a:	10 92 81 00 	sts	0x0081, r1	; 0x800081 <__TEXT_REGION_LENGTH__+0x7e0081>
	sts	TCCR1A, r1		; TCCR1A = 0 , normal port operation
    3f9e:	10 92 80 00 	sts	0x0080, r1	; 0x800080 <__TEXT_REGION_LENGTH__+0x7e0080>
	sts	TIMSK1, r1		; disable all timer1 interrupts
    3fa2:	10 92 6f 00 	sts	0x006F, r1	; 0x80006f <__TEXT_REGION_LENGTH__+0x7e006f>
	sts	OCR1BH, r1		; OCR!B = 0
    3fa6:	10 92 8b 00 	sts	0x008B, r1	; 0x80008b <__TEXT_REGION_LENGTH__+0x7e008b>
	sts	OCR1BL, r1
    3faa:	10 92 8a 00 	sts	0x008A, r1	; 0x80008a <__TEXT_REGION_LENGTH__+0x7e008a>
	ldi	r21, (1<<OCF1B) | (1<<OCF1A) | (1<<TOV1)
    3fae:	57 e0       	ldi	r21, 0x07	; 7
	AOUT	TIFR1, r21			; clear flags
    3fb0:	56 bb       	out	0x16, r21	; 22
	ldi	r21, 0xff
    3fb2:	5f ef       	ldi	r21, 0xFF	; 255
	sts	TCNT1H, r21		; TCNT1 = -1
    3fb4:	50 93 85 00 	sts	0x0085, r21	; 0x800085 <__TEXT_REGION_LENGTH__+0x7e0085>
	sts	TCNT1L, r21
    3fb8:	50 93 84 00 	sts	0x0084, r21	; 0x800084 <__TEXT_REGION_LENGTH__+0x7e0084>
	ldi	r21, (1<<ADTS2) | (1<<ADTS0)	; Start ADC with counter1 compare B
    3fbc:	55 e0       	ldi	r21, 0x05	; 5
	sts	ADCSRB, r21
    3fbe:	50 93 7b 00 	sts	0x007B, r21	; 0x80007b <__TEXT_REGION_LENGTH__+0x7e007b>
	ldi	r21, (1<<ADEN) | (1<<ADATE) | (1<<ADIF) | AUTO_CLOCK_DIV;	/* enable ADC */
    3fc2:	57 eb       	ldi	r21, 0xB7	; 183
	sts	ADCSRA, r21;		/* ADCSRA = (1<<ADEN) | (1<<ADSC) | (1<<ADIF) | AUTO_CLOCK_DIV; // enable ADC */
    3fc4:	50 93 7a 00 	sts	0x007A, r21	; 0x80007a <__TEXT_REGION_LENGTH__+0x7e007a>

	ldi	r21, (1<<CS10) 
    3fc8:	51 e0       	ldi	r21, 0x01	; 1
	sts	TCCR1B, r21		; Start Counter 1 with full speed
    3fca:	50 93 81 00 	sts	0x0081, r21	; 0x800081 <__TEXT_REGION_LENGTH__+0x7e0081>
 #define PIN_HIGH_DELAY (OUT_DELAY - 5 + (F_CPU_HZ/4000000))
 #define WAST_TICS ((TICS_PER_ADC_CLOCK*2) - HALF_PULSE_LENGTH_TICS - PIN_HIGH_DELAY)
#endif
; additional delay to the start of current pulse
	ldi	r21, (WAST_TICS/3)
    3fce:	5f e4       	ldi	r21, 0x4F	; 79

00003fd0 <wlop1>:
wlop1:
	dec	r21
    3fd0:	5a 95       	dec	r21
	brne	wlop1
    3fd2:	f1 f7       	brne	.-4      	; 0x3fd0 <wlop1>
#if (WAST_TICS % 3) > 1
	nop
    3fd4:	00 00       	nop
#endif
#if (WAST_TICS % 3) > 0
	nop
    3fd6:	00 00       	nop
#endif
	AOUT	R_PORT, r20;		/* R_PORT = HiPinR_L (r12);	// switch R-Port to VCC */
    3fd8:	45 b9       	out	0x05, r20	; 5
	AOUT	R_DDR, r20;		/* R_DDR = HiPinR_L (r12);	// switch R_L port for HighPin to output (VCC) */
    3fda:	44 b9       	out	0x04, r20	; 4
;	AOUT	R_PORT, LoPinR_L;	/* R_PORT = LoPinR_L (r7) ; */
;	AOUT	R_DDR, LoPinR_L;	/* R_DDR = LoPinR_L (r7) ;	// switch LowPin with 680 Ohm to VCC */
#define FULL_PULSE_LENGTH_TICS ((HALF_PULSE_LENGTH_TICS*2)+(MHZ_CPU/14))
	ldi	r21, (FULL_PULSE_LENGTH_TICS/3)
    3fdc:	5b e0       	ldi	r21, 0x0B	; 11

00003fde <plop2>:
plop2:
	dec	r21
    3fde:	5a 95       	dec	r21
	brne	plop2
    3fe0:	f1 f7       	brne	.-4      	; 0x3fde <plop2>
	nop
#endif
#if (FULL_PULSE_LENGTH_TICS % 3) > 0
	nop
#endif
	AOUT	R_DDR, zero_reg;	/* R_DDR = 0; // switch current off,  SH is 1.5 ADC clock behind real start */
    3fe2:	14 b8       	out	0x04, r1	; 4
	AOUT	R_PORT, zero_reg;	/* R_PORT = 0; */
    3fe4:	15 b8       	out	0x05, r1	; 5
#ifndef WITHOUT_CNT_START
	sts	TCCR1B, r1		; stop counter1
    3fe6:	10 92 81 00 	sts	0x0081, r1	; 0x800081 <__TEXT_REGION_LENGTH__+0x7e0081>

00003fea <wadfin2>:
#endif

wadfin2:
	lds	r24, ADCSRA;		/* while (ADCSRA&(1<<ADSC));	// wait for conversion finished */
    3fea:	80 91 7a 00 	lds	r24, 0x007A	; 0x80007a <__TEXT_REGION_LENGTH__+0x7e007a>
	sbrs	r24, ADIF;
    3fee:	84 ff       	sbrs	r24, 4
	rjmp	wadfin2;
    3ff0:	fc cf       	rjmp	.-8      	; 0x3fea <wadfin2>
	sts	ADCSRA, r24		; clear flags
    3ff2:	80 93 7a 00 	sts	0x007A, r24	; 0x80007a <__TEXT_REGION_LENGTH__+0x7e007a>
	ret
    3ff6:	08 95       	ret

00003ff8 <GetVloss>:
#include <stdlib.h>
#include "Transistortester.h"


//=================================================================
void GetVloss() {
    3ff8:	a0 e0       	ldi	r26, 0x00	; 0
    3ffa:	b0 e0       	ldi	r27, 0x00	; 0
    3ffc:	e2 e0       	ldi	r30, 0x02	; 2
    3ffe:	f0 e2       	ldi	r31, 0x20	; 32
    4000:	0c 94 ce 33 	jmp	0x679c	; 0x679c <__prologue_saves__+0xc>
  } lval;
  uint8_t ii;
  uint8_t HiPinR_L;
  uint8_t LoADC;

  if (cap.v_loss > 0) {
    4004:	80 91 81 01 	lds	r24, 0x0181	; 0x800181 <cap+0xe>
    4008:	90 91 82 01 	lds	r25, 0x0182	; 0x800182 <cap+0xf>
    400c:	89 2b       	or	r24, r25
    400e:	09 f0       	breq	.+2      	; 0x4012 <GetVloss+0x1a>
    4010:	9e c0       	rjmp	.+316    	; 0x414e <GetVloss+0x156>
     return;		// Voltage loss is already known (big Capacitor)
  }
#if (((PIN_RL1 + 1) != PIN_RH1) || ((PIN_RL2 + 1) != PIN_RH2) || ((PIN_RL3 + 1) != PIN_RH3))
  LoADC = pgm_read_byte((&PinRLRHADCtab[6])+cap.ca-TP_MIN) | TXD_MSK;
#else
  LoADC = pgm_read_byte((&PinRLRHADCtab[3])+cap.ca-TP_MIN) | TXD_MSK;
    4012:	e0 91 83 01 	lds	r30, 0x0183	; 0x800183 <cap+0x10>
    4016:	f0 e0       	ldi	r31, 0x00	; 0
    4018:	e1 57       	subi	r30, 0x71	; 113
    401a:	fe 4f       	sbci	r31, 0xFE	; 254
    401c:	d4 91       	lpm	r29, Z
    401e:	d8 60       	ori	r29, 0x08	; 8
#endif
  HiPinR_L = pgm_read_byte(&PinRLRHADCtab[cap.cb-TP_MIN]);	//R_L mask for HighPin R_L load
    4020:	e0 91 84 01 	lds	r30, 0x0184	; 0x800184 <cap+0x11>
    4024:	f0 e0       	ldi	r31, 0x00	; 0
    4026:	e4 57       	subi	r30, 0x74	; 116
    4028:	fe 4f       	sbci	r31, 0xFE	; 254
    402a:	c4 91       	lpm	r28, Z

  EntladePins();			// discharge capacitor
    402c:	0e 94 04 15 	call	0x2a08	; 0x2a08 <EntladePins>
  ADC_PORT = TXD_VAL;			// switch ADC-Port to GND
    4030:	88 e0       	ldi	r24, 0x08	; 8
    4032:	88 b9       	out	0x08, r24	; 8
  R_PORT = 0;				// switch R-Port to GND
    4034:	15 b8       	out	0x05, r1	; 5
  ADC_DDR = LoADC;			// switch Low-Pin to output (GND)
    4036:	d7 b9       	out	0x07, r29	; 7
  R_DDR = HiPinR_L;			// switch R_L port for HighPin to output (GND)
    4038:	c4 b9       	out	0x04, r28	; 4
  adcv[0] = ReadADC(cap.cb);		// voltage before any load 
    403a:	80 91 84 01 	lds	r24, 0x0184	; 0x800184 <cap+0x11>
    403e:	0e 94 7f 05 	call	0xafe	; 0xafe <ReadADC>
    4042:	8c 01       	movw	r16, r24
// ******** should adcv[0] be measured without current???
  if ((cap.cpre_max > -9) || (cap.cpre_max < -12)) return;	// too much or too less capacity
    4044:	d0 91 86 01 	lds	r29, 0x0186	; 0x800186 <cap+0x13>
    4048:	8c e0       	ldi	r24, 0x0C	; 12
    404a:	8d 0f       	add	r24, r29
    404c:	84 30       	cpi	r24, 0x04	; 4
    404e:	08 f0       	brcs	.+2      	; 0x4052 <GetVloss+0x5a>
    4050:	7e c0       	rjmp	.+252    	; 0x414e <GetVloss+0x156>
  lval.dw = cap.cval_max;
    4052:	80 91 77 01 	lds	r24, 0x0177	; 0x800177 <cap+0x4>
    4056:	90 91 78 01 	lds	r25, 0x0178	; 0x800178 <cap+0x5>
    405a:	a0 91 79 01 	lds	r26, 0x0179	; 0x800179 <cap+0x6>
    405e:	b0 91 7a 01 	lds	r27, 0x017A	; 0x80017a <cap+0x7>
  for (ii=cap.cpre_max+15;ii<7;ii++) {
    4062:	d1 5f       	subi	r29, 0xF1	; 241
     lval.dw = (lval.dw + 5) / 10;
    4064:	2a e0       	ldi	r18, 0x0A	; 10
    4066:	82 2e       	mov	r8, r18
    4068:	91 2c       	mov	r9, r1
    406a:	a1 2c       	mov	r10, r1
    406c:	b1 2c       	mov	r11, r1
    406e:	bc 01       	movw	r22, r24
    4070:	cd 01       	movw	r24, r26
    4072:	6b 5f       	subi	r22, 0xFB	; 251
    4074:	7f 4f       	sbci	r23, 0xFF	; 255
    4076:	8f 4f       	sbci	r24, 0xFF	; 255
    4078:	9f 4f       	sbci	r25, 0xFF	; 255
    407a:	a5 01       	movw	r20, r10
    407c:	94 01       	movw	r18, r8
    407e:	0e 94 e0 32 	call	0x65c0	; 0x65c0 <__udivmodsi4>
    4082:	69 01       	movw	r12, r18
    4084:	7a 01       	movw	r14, r20
    4086:	da 01       	movw	r26, r20
    4088:	c9 01       	movw	r24, r18
  R_DDR = HiPinR_L;			// switch R_L port for HighPin to output (GND)
  adcv[0] = ReadADC(cap.cb);		// voltage before any load 
// ******** should adcv[0] be measured without current???
  if ((cap.cpre_max > -9) || (cap.cpre_max < -12)) return;	// too much or too less capacity
  lval.dw = cap.cval_max;
  for (ii=cap.cpre_max+15;ii<7;ii++) {
    408a:	df 5f       	subi	r29, 0xFF	; 255
    408c:	d7 30       	cpi	r29, 0x07	; 7
    408e:	79 f7       	brne	.-34     	; 0x406e <GetVloss+0x76>
     lval.dw = (lval.dw + 5) / 10;
  }
  if (lval.dw > 5000) {
    4090:	29 e8       	ldi	r18, 0x89	; 137
    4092:	c2 16       	cp	r12, r18
    4094:	23 e1       	ldi	r18, 0x13	; 19
    4096:	d2 06       	cpc	r13, r18
    4098:	e1 04       	cpc	r14, r1
    409a:	f1 04       	cpc	r15, r1
    409c:	08 f0       	brcs	.+2      	; 0x40a0 <GetVloss+0xa8>
    409e:	57 c0       	rjmp	.+174    	; 0x414e <GetVloss+0x156>
     /* capacity more than 50uF, Voltage loss is already measured  */
     return;
  }
  if (lval.w[0] < 5) return;		// Capacity below 5nF
    40a0:	05 97       	sbiw	r24, 0x05	; 5
    40a2:	08 f4       	brcc	.+2      	; 0x40a6 <GetVloss+0xae>
    40a4:	54 c0       	rjmp	.+168    	; 0x414e <GetVloss+0x156>
  R_PORT = HiPinR_L;			//R_L to 1 (VCC) 
    40a6:	c5 b9       	out	0x05, r28	; 5
  R_DDR = HiPinR_L;			//switch Pin to output, across R to GND or VCC
    40a8:	c4 b9       	out	0x04, r28	; 4
  for (tmpint=0;tmpint<lval.w[0];tmpint+=2) {
    40aa:	c0 e0       	ldi	r28, 0x00	; 0
    40ac:	d0 e0       	ldi	r29, 0x00	; 0
    40ae:	cc 15       	cp	r28, r12
    40b0:	dd 05       	cpc	r29, r13
    40b2:	20 f4       	brcc	.+8      	; 0x40bc <GetVloss+0xc4>
//     wait50us();			// wait exactly 50us
     wait5us();			// wait exactly 5us
    40b4:	0e 94 40 05 	call	0xa80	; 0xa80 <wait5us>
     return;
  }
  if (lval.w[0] < 5) return;		// Capacity below 5nF
  R_PORT = HiPinR_L;			//R_L to 1 (VCC) 
  R_DDR = HiPinR_L;			//switch Pin to output, across R to GND or VCC
  for (tmpint=0;tmpint<lval.w[0];tmpint+=2) {
    40b8:	22 96       	adiw	r28, 0x02	; 2
    40ba:	f9 cf       	rjmp	.-14     	; 0x40ae <GetVloss+0xb6>
//     wait50us();			// wait exactly 50us
     wait5us();			// wait exactly 5us
  }
  R_DDR = 0;				// switch back to input
    40bc:	14 b8       	out	0x04, r1	; 4
  R_PORT = 0;			// no Pull up
    40be:	15 b8       	out	0x05, r1	; 5
 // wait10us();			//wait a little time
  wdt_reset();
    40c0:	a8 95       	wdr
  // read voltage without current
  ADCconfig.Samples = 5;		// set ADC to only 5 samples
    40c2:	85 e0       	ldi	r24, 0x05	; 5
    40c4:	80 93 2b 01 	sts	0x012B, r24	; 0x80012b <ADCconfig>
  adcv[2] = ReadADC(cap.cb);
    40c8:	80 91 84 01 	lds	r24, 0x0184	; 0x800184 <cap+0x11>
    40cc:	0e 94 7f 05 	call	0xafe	; 0xafe <ReadADC>
  if (adcv[2] > adcv[0]) {
    40d0:	08 17       	cp	r16, r24
    40d2:	19 07       	cpc	r17, r25
    40d4:	20 f4       	brcc	.+8      	; 0x40de <GetVloss+0xe6>
     adcv[2] -= adcv[0];		//difference to beginning voltage
    40d6:	ec 01       	movw	r28, r24
    40d8:	c0 1b       	sub	r28, r16
    40da:	d1 0b       	sbc	r29, r17
    40dc:	02 c0       	rjmp	.+4      	; 0x40e2 <GetVloss+0xea>
  } else {
     adcv[2] = 0;			// voltage is lower or same as beginning voltage
    40de:	c0 e0       	ldi	r28, 0x00	; 0
    40e0:	d0 e0       	ldi	r29, 0x00	; 0
  }
  // wait 2x the time which was required for loading
  for (tmpint=0;tmpint<lval.w[0];tmpint++) {
    40e2:	a1 2c       	mov	r10, r1
    40e4:	b1 2c       	mov	r11, r1
    40e6:	ac 14       	cp	r10, r12
    40e8:	bd 04       	cpc	r11, r13
    40ea:	30 f4       	brcc	.+12     	; 0x40f8 <GetVloss+0x100>
//     wait50us();
     wait5us();
    40ec:	0e 94 40 05 	call	0xa80	; 0xa80 <wait5us>
     adcv[2] -= adcv[0];		//difference to beginning voltage
  } else {
     adcv[2] = 0;			// voltage is lower or same as beginning voltage
  }
  // wait 2x the time which was required for loading
  for (tmpint=0;tmpint<lval.w[0];tmpint++) {
    40f0:	8f ef       	ldi	r24, 0xFF	; 255
    40f2:	a8 1a       	sub	r10, r24
    40f4:	b8 0a       	sbc	r11, r24
    40f6:	f7 cf       	rjmp	.-18     	; 0x40e6 <GetVloss+0xee>
//     wait50us();
     wait5us();
  }
  adcv[3] = ReadADC(cap.cb);	// read voltage again, is discharged only a little bit ?
    40f8:	80 91 84 01 	lds	r24, 0x0184	; 0x800184 <cap+0x11>
    40fc:	0e 94 7f 05 	call	0xafe	; 0xafe <ReadADC>
  ADCconfig.Samples = ANZ_MESS;		// set ADC back to configured No. of samples
    4100:	29 e1       	ldi	r18, 0x19	; 25
    4102:	20 93 2b 01 	sts	0x012B, r18	; 0x80012b <ADCconfig>
  wdt_reset();
    4106:	a8 95       	wdr
  if (adcv[3] > adcv[0]) {
    4108:	08 17       	cp	r16, r24
    410a:	19 07       	cpc	r17, r25
    410c:	18 f4       	brcc	.+6      	; 0x4114 <GetVloss+0x11c>
     adcv[3] -= adcv[0];		// difference to beginning voltage
    410e:	80 1b       	sub	r24, r16
    4110:	91 0b       	sbc	r25, r17
    4112:	02 c0       	rjmp	.+4      	; 0x4118 <GetVloss+0x120>
  } else {
     adcv[3] = 0;			// voltage is lower or same as beginning voltage
    4114:	80 e0       	ldi	r24, 0x00	; 0
    4116:	90 e0       	ldi	r25, 0x00	; 0
  }
  if (adcv[2] > adcv[3]) {
    4118:	8c 17       	cp	r24, r28
    411a:	9d 07       	cpc	r25, r29
    411c:	88 f4       	brcc	.+34     	; 0x4140 <GetVloss+0x148>
     // build difference to load voltage
     adcv[1] = adcv[2] - adcv[3];	// lost voltage during load time wait
    411e:	9e 01       	movw	r18, r28
    4120:	28 1b       	sub	r18, r24
    4122:	39 0b       	sbc	r19, r25
  } else {
     adcv[1] = 0;			// no lost voltage
  }
  // compute voltage drop as part from loaded voltage
  if (adcv[1] > 0) {
    4124:	69 f0       	breq	.+26     	; 0x4140 <GetVloss+0x148>
     // there is any voltage drop (adcv[1]) !
     // adcv[2] is the loaded voltage.
     cap.v_loss = (unsigned long)(adcv[1] * 500UL) / adcv[2];
    4126:	a4 ef       	ldi	r26, 0xF4	; 244
    4128:	b1 e0       	ldi	r27, 0x01	; 1
    412a:	0e 94 1e 33 	call	0x663c	; 0x663c <__umulhisi3>
    412e:	9e 01       	movw	r18, r28
    4130:	40 e0       	ldi	r20, 0x00	; 0
    4132:	50 e0       	ldi	r21, 0x00	; 0
    4134:	0e 94 e0 32 	call	0x65c0	; 0x65c0 <__udivmodsi4>
    4138:	30 93 82 01 	sts	0x0182, r19	; 0x800182 <cap+0xf>
    413c:	20 93 81 01 	sts	0x0181, r18	; 0x800181 <cap+0xe>
  lcd_line4();
  DisplayValue16(lval.w[0],0,'x',4);
#endif

  // discharge capacitor again
  EntladePins();		// discharge capacitors
    4140:	0e 94 04 15 	call	0x2a08	; 0x2a08 <EntladePins>
  //ready
  // switch all ports to input
  ADC_DDR =  TXD_MSK;		// switch all ADC ports to input
    4144:	88 e0       	ldi	r24, 0x08	; 8
    4146:	87 b9       	out	0x07, r24	; 7
  ADC_PORT = TXD_VAL;		// switch all ADC outputs to GND, no pull up
    4148:	88 b9       	out	0x08, r24	; 8
  R_DDR = 0;			// switch all resistor ports to input
    414a:	14 b8       	out	0x04, r1	; 4
  R_PORT = 0; 			// switch all resistor outputs to GND, no pull up
    414c:	15 b8       	out	0x05, r1	; 5
#endif
  return;
 } // end GetVloss()
    414e:	cd b7       	in	r28, 0x3d	; 61
    4150:	de b7       	in	r29, 0x3e	; 62
    4152:	ec e0       	ldi	r30, 0x0C	; 12
    4154:	0c 94 ea 33 	jmp	0x67d4	; 0x67d4 <__epilogue_restores__+0xc>

00004158 <GetFrequency>:
 #define PCINTx_vect PCINT2_vect
#endif

#if defined(WITH_MENU) && !defined(NO_FREQ_COUNTER)

void GetFrequency(uint8_t range) {
    4158:	a7 e0       	ldi	r26, 0x07	; 7
    415a:	b0 e0       	ldi	r27, 0x00	; 0
    415c:	e2 eb       	ldi	r30, 0xB2	; 178
    415e:	f0 e2       	ldi	r31, 0x20	; 32
    4160:	0c 94 c8 33 	jmp	0x6790	; 0x6790 <__prologue_saves__>
    FINP_PORT |= (1<<FINP_P1);		// set higher bit of input selection
    message_key_released(L_CRYSTAL_str);	// LF Quarz: in line 1
 }

 #else
  message_key_released(FREQ_str);	// Frequency: in line 1
    4164:	80 ea       	ldi	r24, 0xA0	; 160
    4166:	91 e0       	ldi	r25, 0x01	; 1
    4168:	7a d5       	rcall	.+2804   	; 0x4c5e <message_key_released>
    416a:	20 ef       	ldi	r18, 0xF0	; 240
    416c:	2b 83       	std	Y+3, r18	; 0x03
     // *************************************************************************
     // *********** straight frequency measurement by counting 1 second *********
     // *************************************************************************
     //set up Counter 0
     // Counter 0 is used to count the external signal connected to T0 (PD4 or PB0)
     FREQINP_DDR &= ~(1<<FREQINP_PIN);	// switch frequency pin to input
    416e:	54 98       	cbi	0x0a, 4	; 10
     wait1ms();				// let capacitor time to load to 2.4V input
    4170:	0e 94 35 05 	call	0xa6a	; 0xa6a <wait1ms>
     TCNT3 = 0;				// set counter 3 to zero
     ext_freq.dw = 0;			// set external frequency to zero
     TIFR3 = (1<<TOV3);			// clear OV interrupt of timer 3
     TIMSK3 = (1<<TOIE3);		// enable OV interrupt of timer 3
#else
     TCCR0A = 0; 			// normal operation, no output
    4174:	14 bc       	out	0x24, r1	; 36
     TCNT0 = 0;				// set counter to zero
    4176:	16 bc       	out	0x26, r1	; 38
     ext_freq.dw = 0;			// set external frequency to zero
    4178:	10 92 0e 01 	sts	0x010E, r1	; 0x80010e <ext_freq>
    417c:	10 92 0f 01 	sts	0x010F, r1	; 0x80010f <ext_freq+0x1>
    4180:	10 92 10 01 	sts	0x0110, r1	; 0x800110 <ext_freq+0x2>
    4184:	10 92 11 01 	sts	0x0111, r1	; 0x800111 <ext_freq+0x3>
     TIFR0 = (1<<TOV0);			// clear OV interrupt of timer 0
    4188:	31 e0       	ldi	r19, 0x01	; 1
    418a:	35 bb       	out	0x15, r19	; 21
     TIMSK0 = (1<<TOIE0);		// enable OV interrupt of timer 0
    418c:	30 93 6e 00 	sts	0x006E, r19	; 0x80006e <__TEXT_REGION_LENGTH__+0x7e006e>
#endif
     // start counter after starting second counter timer 1

     // set up counter 1 to measure one second
     TCCR1A = 0;			// normal operation
    4190:	10 92 80 00 	sts	0x0080, r1	; 0x800080 <__TEXT_REGION_LENGTH__+0x7e0080>
#else 
 #if F_CPU != ((F_CPU / 256UL) * 256UL)
  #warning F_CPU can not be divided by 256, measured frequency is wrong!
 #endif
#endif
     OCR1B = CNT1_END_VAL;		// set to 1 second  (counter 0 is started with 1)
    4194:	85 e2       	ldi	r24, 0x25	; 37
    4196:	94 ef       	ldi	r25, 0xF4	; 244
    4198:	90 93 8b 00 	sts	0x008B, r25	; 0x80008b <__TEXT_REGION_LENGTH__+0x7e008b>
    419c:	80 93 8a 00 	sts	0x008A, r24	; 0x80008a <__TEXT_REGION_LENGTH__+0x7e008a>
     OCR1A = 1;				// start counter 0 with first count
    41a0:	e1 e0       	ldi	r30, 0x01	; 1
    41a2:	f0 e0       	ldi	r31, 0x00	; 0
    41a4:	f0 93 89 00 	sts	0x0089, r31	; 0x800089 <__TEXT_REGION_LENGTH__+0x7e0089>
    41a8:	e0 93 88 00 	sts	0x0088, r30	; 0x800088 <__TEXT_REGION_LENGTH__+0x7e0088>
     TCNT1 = 0;				// set counter to zero
    41ac:	10 92 85 00 	sts	0x0085, r1	; 0x800085 <__TEXT_REGION_LENGTH__+0x7e0085>
    41b0:	10 92 84 00 	sts	0x0084, r1	; 0x800084 <__TEXT_REGION_LENGTH__+0x7e0084>
     GTCCR  |= (1<<PSRSYNC);		// reset clock precounter
    41b4:	83 b5       	in	r24, 0x23	; 35
    41b6:	81 60       	ori	r24, 0x01	; 1
    41b8:	83 bd       	out	0x23, r24	; 35
     TIFR1 = (1<<OCF1B) | (1<<OCF1A);	// clear Output compare match
    41ba:	f6 e0       	ldi	r31, 0x06	; 6
    41bc:	f6 bb       	out	0x16, r31	; 22
     TIMSK1 = (1<<OCIE1B) | (1<<OCIE1A);	// enable the Compare A match and Compare B match interrupt
    41be:	f0 93 6f 00 	sts	0x006F, r31	; 0x80006f <__TEXT_REGION_LENGTH__+0x7e006f>
     sei();				// set interrupt enable
    41c2:	78 94       	sei
     TCCR1B = CNT1_DIVIDER;		// divide CPU clock by 256, start counter
    41c4:	24 e0       	ldi	r18, 0x04	; 4
    41c6:	20 93 81 00 	sts	0x0081, r18	; 0x800081 <__TEXT_REGION_LENGTH__+0x7e0081>
    41ca:	32 e3       	ldi	r19, 0x32	; 50
    41cc:	39 83       	std	Y+1, r19	; 0x01
    41ce:	1a 82       	std	Y+2, r1	; 0x02
     // both counter are running now, wait for counter 1 reach OCR1A
     for (ii=0;ii<50;ii++) {
        wait20ms();			// first count of counter 1 (<32us) has started the counter 0
    41d0:	0e 94 2e 05 	call	0xa5c	; 0xa5c <wait20ms>
        wdt_reset();
    41d4:	a8 95       	wdr
        if (!(RST_PIN_REG & (1<<RST_PIN))) taste = 1;	// user request stop of operation
    41d6:	4f 99       	sbic	0x09, 7	; 9
    41d8:	02 c0       	rjmp	.+4      	; 0x41de <GetFrequency+0x86>
    41da:	61 e0       	ldi	r22, 0x01	; 1
    41dc:	6a 83       	std	Y+2, r22	; 0x02
#if PROCESSOR_TYP == 1280
        if (TCCR3B == 0) break;		// timer 3 is stopped by interrupt
#else
        if (TCCR0B == 0) break;		// timer 0 is stopped by interrupt
    41de:	85 b5       	in	r24, 0x25	; 37
    41e0:	81 11       	cpse	r24, r1
    41e2:	1f c0       	rjmp	.+62     	; 0x4222 <GetFrequency+0xca>
     // one second is counted
#if PROCESSOR_TYP == 1280
     TCCR3B = 0;		// stop timer 3, if not stopped by timer 1 compare interrupt
     ext_freq.w[0] = TCNT3;	// add lower 16 bit to get total counts
#else
     TCCR0B = 0;		// stop timer 0, if not stopped by timer 1 compare interrupt
    41e4:	15 bc       	out	0x25, r1	; 37
     ext_freq.b[0] = TCNT0;	// add lower 8 bit to get total counts
    41e6:	86 b5       	in	r24, 0x26	; 38
    41e8:	80 93 0e 01 	sts	0x010E, r24	; 0x80010e <ext_freq>
     lcd_clear_line();
     lcd_line4();
     lcd_clear_line();
     lcd_clear_line2();
 #else
     lcd_clear();		// clear total display
    41ec:	0e 94 42 02 	call	0x484	; 0x484 <lcd_clear>
 #endif
     lcd_data('f');
    41f0:	86 e6       	ldi	r24, 0x66	; 102
    41f2:	0e 94 d8 01 	call	0x3b0	; 0x3b0 <lcd_data>
     lcd_equal();		// lcd_data('=');
    41f6:	0e 94 1d 02 	call	0x43a	; 0x43a <lcd_equal>
  #ifdef WITH_FREQUENCY_DIVIDER
     uint16_t freq_factor;
     freq_factor = (1<<eeprom_read_byte((uint8_t *)&f_scaler));
     Display_Hz(ext_freq.dw*freq_factor, 7);
  #else
     Display_Hz(ext_freq.dw, 7);
    41fa:	60 91 0e 01 	lds	r22, 0x010E	; 0x80010e <ext_freq>
    41fe:	70 91 0f 01 	lds	r23, 0x010F	; 0x80010f <ext_freq+0x1>
    4202:	80 91 10 01 	lds	r24, 0x0110	; 0x800110 <ext_freq+0x2>
    4206:	90 91 11 01 	lds	r25, 0x0111	; 0x800111 <ext_freq+0x3>
    420a:	47 e0       	ldi	r20, 0x07	; 7
    420c:	0e 94 04 05 	call	0xa08	; 0xa08 <Display_Hz>
  #endif
 #endif  /* PROCESSOR_TYP 644 or other */
     FREQINP_DDR &= ~(1<<FREQINP_PIN);	// switch frequency pin to input
    4210:	54 98       	cbi	0x0a, 4	; 10
     if (TCCR1B != 0) {
    4212:	80 91 81 00 	lds	r24, 0x0081	; 0x800081 <__TEXT_REGION_LENGTH__+0x7e0081>
    4216:	88 23       	and	r24, r24
    4218:	51 f0       	breq	.+20     	; 0x422e <GetFrequency+0xd6>
       // Exact 1000ms period is only with "end of period" from timer1 interrupt.
       // When stopped with the for loop, the time is too long because wait call does not
       // respect CPU time used for interrupts and loop itself.
       // For this case show ? behind the Hz. 
       lcd_data('?');
    421a:	8f e3       	ldi	r24, 0x3F	; 63
    421c:	0e 94 d8 01 	call	0x3b0	; 0x3b0 <lcd_data>
    4220:	06 c0       	rjmp	.+12     	; 0x422e <GetFrequency+0xd6>
    4222:	89 81       	ldd	r24, Y+1	; 0x01
    4224:	81 50       	subi	r24, 0x01	; 1
    4226:	89 83       	std	Y+1, r24	; 0x01
     TIFR1 = (1<<OCF1B) | (1<<OCF1A);	// clear Output compare match
     TIMSK1 = (1<<OCIE1B) | (1<<OCIE1A);	// enable the Compare A match and Compare B match interrupt
     sei();				// set interrupt enable
     TCCR1B = CNT1_DIVIDER;		// divide CPU clock by 256, start counter
     // both counter are running now, wait for counter 1 reach OCR1A
     for (ii=0;ii<50;ii++) {
    4228:	81 11       	cpse	r24, r1
    422a:	d2 cf       	rjmp	.-92     	; 0x41d0 <GetFrequency+0x78>
    422c:	db cf       	rjmp	.-74     	; 0x41e4 <GetFrequency+0x8c>
       // When stopped with the for loop, the time is too long because wait call does not
       // respect CPU time used for interrupts and loop itself.
       // For this case show ? behind the Hz. 
       lcd_data('?');
     }
     TCCR1B = 0;		// stop timer 1
    422e:	10 92 81 00 	sts	0x0081, r1	; 0x800081 <__TEXT_REGION_LENGTH__+0x7e0081>
     TIMSK1 = 0;		// disable all timer 1 interrupts
    4232:	10 92 6f 00 	sts	0x006F, r1	; 0x80006f <__TEXT_REGION_LENGTH__+0x7e006f>
     if ((ext_freq.dw < FMAX_PERIOD) && (ext_freq.dw > 0)) {
    4236:	20 91 0e 01 	lds	r18, 0x010E	; 0x80010e <ext_freq>
    423a:	30 91 0f 01 	lds	r19, 0x010F	; 0x80010f <ext_freq+0x1>
    423e:	40 91 10 01 	lds	r20, 0x0110	; 0x800110 <ext_freq+0x2>
    4242:	50 91 11 01 	lds	r21, 0x0111	; 0x800111 <ext_freq+0x3>
    4246:	da 01       	movw	r26, r20
    4248:	c9 01       	movw	r24, r18
    424a:	01 97       	sbiw	r24, 0x01	; 1
    424c:	a1 09       	sbc	r26, r1
    424e:	b1 09       	sbc	r27, r1
    4250:	83 36       	cpi	r24, 0x63	; 99
    4252:	93 4c       	sbci	r25, 0xC3	; 195
    4254:	a1 05       	cpc	r26, r1
    4256:	b1 05       	cpc	r27, r1
    4258:	08 f0       	brcs	.+2      	; 0x425c <GetFrequency+0x104>
    425a:	0b c1       	rjmp	.+534    	; 0x4472 <GetFrequency+0x31a>
     // *************************************************************************
     // ******** Period measurement by counting some periods ******************** 
     // *************************************************************************
        pinchange_max = ((10 * (unsigned long)ext_freq.dw) + MHZ_CPU) / MHZ_CPU;	// about 10000000 clock tics
    425c:	aa e0       	ldi	r26, 0x0A	; 10
    425e:	b0 e0       	ldi	r27, 0x00	; 0
    4260:	0e 94 33 33 	call	0x6666	; 0x6666 <__muluhisi3>
    4264:	dc 01       	movw	r26, r24
    4266:	cb 01       	movw	r24, r22
    4268:	40 96       	adiw	r24, 0x10	; 16
    426a:	a1 1d       	adc	r26, r1
    426c:	b1 1d       	adc	r27, r1
    426e:	24 e0       	ldi	r18, 0x04	; 4
    4270:	b6 95       	lsr	r27
    4272:	a7 95       	ror	r26
    4274:	97 95       	ror	r25
    4276:	87 95       	ror	r24
    4278:	2a 95       	dec	r18
    427a:	d1 f7       	brne	.-12     	; 0x4270 <GetFrequency+0x118>
        pinchange_max += pinchange_max;	// * 2 for up and down change
    427c:	bc 01       	movw	r22, r24
    427e:	66 0f       	add	r22, r22
    4280:	77 1f       	adc	r23, r23
    4282:	70 93 6a 01 	sts	0x016A, r23	; 0x80016a <pinchange_max+0x1>
    4286:	60 93 69 01 	sts	0x0169, r22	; 0x800169 <pinchange_max>
        FREQINP_DDR &= ~(1<<FREQINP_PIN);	// switch frequency pin to input
    428a:	54 98       	cbi	0x0a, 4	; 10
        wait1ms();			// let capacitor time to load to 2.4V input
    428c:	0e 94 35 05 	call	0xa6a	; 0xa6a <wait1ms>
	EICRB = (0<<ISC61) | (1<<ISC60); // set int6 pin change
        EIFR  |= (1<<INTF6);		// clear interrupt 6 flag
        PCMSK_FREQ |= (1<<PCINT_FREQ); // enable int6
#else
        // other than PROCESSOR_TYP 1280
        TCNT0 = 0;			// set counter 0 to zero
    4290:	16 bc       	out	0x26, r1	; 38
        ext_freq.dw = 0;		// reset counter to zero
    4292:	10 92 0e 01 	sts	0x010E, r1	; 0x80010e <ext_freq>
    4296:	10 92 0f 01 	sts	0x010F, r1	; 0x80010f <ext_freq+0x1>
    429a:	10 92 10 01 	sts	0x0110, r1	; 0x800110 <ext_freq+0x2>
    429e:	10 92 11 01 	sts	0x0111, r1	; 0x800111 <ext_freq+0x3>
        TIFR0 = (1<<TOV0);		// clear OV interrupt
    42a2:	f1 e0       	ldi	r31, 0x01	; 1
    42a4:	f5 bb       	out	0x15, r31	; 21
        TIMSK0 = (1<<TOIE0);		// enable OV interrupt
    42a6:	f0 93 6e 00 	sts	0x006E, r31	; 0x80006e <__TEXT_REGION_LENGTH__+0x7e006e>
        // counter 0 ist started with first pin change interrupt
        pinchange_count = 0;
    42aa:	10 92 6c 01 	sts	0x016C, r1	; 0x80016c <pinchange_count+0x1>
    42ae:	10 92 6b 01 	sts	0x016B, r1	; 0x80016b <pinchange_count>
        PCIFR  = (1<<PCI_CLEAR_BIT);		// clear Pin Change Status
    42b2:	24 e0       	ldi	r18, 0x04	; 4
    42b4:	2b bb       	out	0x1b, r18	; 27
        PCICR  |= (1<<PCI_ENABLE_BIT);		// enable pin change interrupt
    42b6:	80 91 68 00 	lds	r24, 0x0068	; 0x800068 <__TEXT_REGION_LENGTH__+0x7e0068>
    42ba:	84 60       	ori	r24, 0x04	; 4
    42bc:	80 93 68 00 	sts	0x0068, r24	; 0x800068 <__TEXT_REGION_LENGTH__+0x7e0068>
#endif  /* PROCESSOR_1280 or other */
        sei();
    42c0:	78 94       	sei
        PCMSK_FREQ |= (1<<PCINT_FREQ);	// monitor PD4 PCINT20 or PB0 PCINT8 pin change
    42c2:	80 91 6d 00 	lds	r24, 0x006D	; 0x80006d <__TEXT_REGION_LENGTH__+0x7e006d>
    42c6:	80 61       	ori	r24, 0x10	; 16
    42c8:	80 93 6d 00 	sts	0x006D, r24	; 0x80006d <__TEXT_REGION_LENGTH__+0x7e006d>
        for (ii=0;ii<250;ii++) {
    42cc:	19 82       	std	Y+1, r1	; 0x01
           wait20ms();
    42ce:	0e 94 2e 05 	call	0xa5c	; 0xa5c <wait20ms>
           wdt_reset();
    42d2:	a8 95       	wdr
           if (!(RST_PIN_REG & (1<<RST_PIN))) taste = 1;	// user request stop of operation
    42d4:	4f 99       	sbic	0x09, 7	; 9
    42d6:	02 c0       	rjmp	.+4      	; 0x42dc <GetFrequency+0x184>
    42d8:	31 e0       	ldi	r19, 0x01	; 1
    42da:	3a 83       	std	Y+2, r19	; 0x02
           if ((PCMSK_FREQ & (1<<PCINT_FREQ)) == 0) break;		// monitoring is disabled by interrupt
    42dc:	80 91 6d 00 	lds	r24, 0x006D	; 0x80006d <__TEXT_REGION_LENGTH__+0x7e006d>
    42e0:	84 ff       	sbrs	r24, 4
    42e2:	05 c0       	rjmp	.+10     	; 0x42ee <GetFrequency+0x196>
        PCIFR  = (1<<PCI_CLEAR_BIT);		// clear Pin Change Status
        PCICR  |= (1<<PCI_ENABLE_BIT);		// enable pin change interrupt
#endif  /* PROCESSOR_1280 or other */
        sei();
        PCMSK_FREQ |= (1<<PCINT_FREQ);	// monitor PD4 PCINT20 or PB0 PCINT8 pin change
        for (ii=0;ii<250;ii++) {
    42e4:	69 81       	ldd	r22, Y+1	; 0x01
    42e6:	6f 5f       	subi	r22, 0xFF	; 255
    42e8:	69 83       	std	Y+1, r22	; 0x01
    42ea:	6a 3f       	cpi	r22, 0xFA	; 250
    42ec:	81 f7       	brne	.-32     	; 0x42ce <GetFrequency+0x176>
#if PROCESSOR_TYP == 1280
        TCCR3B = 0;		// stop counter 3
        PCMSK_FREQ &= ~(1<<PCINT_FREQ); // disable int6
        ext_freq.w[0] = TCNT3;		// add lower 16 bit to get total counts
#else
        TCCR0B = 0;		// stop counter 0
    42ee:	15 bc       	out	0x25, r1	; 37
        PCMSK_FREQ &= ~(1<<PCINT_FREQ);		// stop monitor PD4 PCINT20 or PB0 PCINT8 pin change
    42f0:	80 91 6d 00 	lds	r24, 0x006D	; 0x80006d <__TEXT_REGION_LENGTH__+0x7e006d>
    42f4:	8f 7e       	andi	r24, 0xEF	; 239
    42f6:	80 93 6d 00 	sts	0x006D, r24	; 0x80006d <__TEXT_REGION_LENGTH__+0x7e006d>
        PCICR &= ~(1<<PCI_ENABLE_BIT);	// disable the interrupt
    42fa:	80 91 68 00 	lds	r24, 0x0068	; 0x800068 <__TEXT_REGION_LENGTH__+0x7e0068>
    42fe:	8b 7f       	andi	r24, 0xFB	; 251
    4300:	80 93 68 00 	sts	0x0068, r24	; 0x800068 <__TEXT_REGION_LENGTH__+0x7e0068>
        ext_freq.b[0] = TCNT0;		// add lower 8 bit to get total counts
    4304:	86 b5       	in	r24, 0x26	; 38
    4306:	80 93 0e 01 	sts	0x010E, r24	; 0x80010e <ext_freq>
//	Show the result from period measurement
//	---------------------------------------
 #if (LCD_LINES > 3)
        lcd_line3();		// use line3 to report the period with 4-line LCD
 #else
        lcd_line2();		// report period on line 2 of 2-line LCD
    430a:	0e 94 48 02 	call	0x490	; 0x490 <lcd_line2>
 #endif
        lcd_data('T');
    430e:	84 e5       	ldi	r24, 0x54	; 84
    4310:	0e 94 d8 01 	call	0x3b0	; 0x3b0 <lcd_data>
        lcd_equal();		// lcd_data('=');
    4314:	0e 94 1d 02 	call	0x43a	; 0x43a <lcd_equal>
        ext_period = ((unsigned long long)ext_freq.dw * (200000/MHZ_CPU)) / pinchange_max;
    4318:	60 91 0e 01 	lds	r22, 0x010E	; 0x80010e <ext_freq>
    431c:	70 91 0f 01 	lds	r23, 0x010F	; 0x80010f <ext_freq+0x1>
    4320:	80 91 10 01 	lds	r24, 0x0110	; 0x800110 <ext_freq+0x2>
    4324:	90 91 11 01 	lds	r25, 0x0111	; 0x800111 <ext_freq+0x3>
    4328:	e0 91 69 01 	lds	r30, 0x0169	; 0x800169 <pinchange_max>
    432c:	f0 91 6a 01 	lds	r31, 0x016A	; 0x80016a <pinchange_max+0x1>
    4330:	fd 83       	std	Y+5, r31	; 0x05
    4332:	ec 83       	std	Y+4, r30	; 0x04
    4334:	24 ed       	ldi	r18, 0xD4	; 212
    4336:	30 e3       	ldi	r19, 0x30	; 48
    4338:	40 e0       	ldi	r20, 0x00	; 0
    433a:	50 e0       	ldi	r21, 0x00	; 0
    433c:	0e 94 43 33 	call	0x6686	; 0x6686 <__umulsidi3>
    4340:	ec 81       	ldd	r30, Y+4	; 0x04
    4342:	fd 81       	ldd	r31, Y+5	; 0x05
    4344:	61 2c       	mov	r6, r1
    4346:	71 2c       	mov	r7, r1
    4348:	43 01       	movw	r8, r6
    434a:	5f 01       	movw	r10, r30
    434c:	c1 2c       	mov	r12, r1
    434e:	d1 2c       	mov	r13, r1
    4350:	e1 2c       	mov	r14, r1
    4352:	f1 2c       	mov	r15, r1
    4354:	00 e0       	ldi	r16, 0x00	; 0
    4356:	10 e0       	ldi	r17, 0x00	; 0
    4358:	0e 94 6c 33 	call	0x66d8	; 0x66d8 <__udivdi3>
    435c:	49 01       	movw	r8, r18
    435e:	4f 83       	std	Y+7, r20	; 0x07
    4360:	5e 83       	std	Y+6, r21	; 0x06
    4362:	1b 01       	movw	r2, r22
    4364:	2c 01       	movw	r4, r24
        }
 #endif
 #if (PROCESSOR_TYP != 644) && defined(WITH_FREQUENCY_DIVIDER)
        ext_period /= freq_factor;
 #endif
        if (pinchange_max > 127) {
    4366:	2c 81       	ldd	r18, Y+4	; 0x04
    4368:	3d 81       	ldd	r19, Y+5	; 0x05
    436a:	20 38       	cpi	r18, 0x80	; 128
    436c:	31 05       	cpc	r19, r1
    436e:	30 f0       	brcs	.+12     	; 0x437c <GetFrequency+0x224>
           DisplayValue(ext_period,-11,'s',7);	// show period converted to 0.01ns units
    4370:	07 e0       	ldi	r16, 0x07	; 7
    4372:	23 e7       	ldi	r18, 0x73	; 115
    4374:	45 ef       	ldi	r20, 0xF5	; 245
    4376:	b4 01       	movw	r22, r8
    4378:	8f 81       	ldd	r24, Y+7	; 0x07
    437a:	17 c0       	rjmp	.+46     	; 0x43aa <GetFrequency+0x252>
        } else {
           //prevent overflow of 32-Bit
           DisplayValue((unsigned long)(ext_period/100),-9,'s',7);	// show period converted to 1ns units
    437c:	84 e6       	ldi	r24, 0x64	; 100
    437e:	a8 2e       	mov	r10, r24
    4380:	b1 2c       	mov	r11, r1
    4382:	c1 2c       	mov	r12, r1
    4384:	d1 2c       	mov	r13, r1
    4386:	e1 2c       	mov	r14, r1
    4388:	f1 2c       	mov	r15, r1
    438a:	00 e0       	ldi	r16, 0x00	; 0
    438c:	10 e0       	ldi	r17, 0x00	; 0
    438e:	94 01       	movw	r18, r8
    4390:	4f 81       	ldd	r20, Y+7	; 0x07
    4392:	5e 81       	ldd	r21, Y+6	; 0x06
    4394:	c2 01       	movw	r24, r4
    4396:	0e 94 6c 33 	call	0x66d8	; 0x66d8 <__udivdi3>
    439a:	f2 2f       	mov	r31, r18
    439c:	e4 2f       	mov	r30, r20
    439e:	07 e0       	ldi	r16, 0x07	; 7
    43a0:	23 e7       	ldi	r18, 0x73	; 115
    43a2:	47 ef       	ldi	r20, 0xF7	; 247
    43a4:	6f 2f       	mov	r22, r31
    43a6:	73 2f       	mov	r23, r19
    43a8:	8e 2f       	mov	r24, r30
    43aa:	95 2f       	mov	r25, r21
    43ac:	0e 94 05 04 	call	0x80a	; 0x80a <DisplayValue>
        }
//	---------------------------------------
        if (ii == 250) {
    43b0:	39 81       	ldd	r19, Y+1	; 0x01
    43b2:	3a 3f       	cpi	r19, 0xFA	; 250
    43b4:	21 f4       	brne	.+8      	; 0x43be <GetFrequency+0x266>
           lcd_data('?');		// wait loop has regular finished
    43b6:	8f e3       	ldi	r24, 0x3F	; 63
    43b8:	0e 94 d8 01 	call	0x3b0	; 0x3b0 <lcd_data>
    43bc:	5a c0       	rjmp	.+180    	; 0x4472 <GetFrequency+0x31a>
					// probably the input frequency has changed
        } else {
           if (ext_period > 46566) {
    43be:	94 01       	movw	r18, r8
    43c0:	4f 81       	ldd	r20, Y+7	; 0x07
    43c2:	5e 81       	ldd	r21, Y+6	; 0x06
    43c4:	b1 01       	movw	r22, r2
    43c6:	c2 01       	movw	r24, r4
    43c8:	26 3e       	cpi	r18, 0xE6	; 230
    43ca:	35 4b       	sbci	r19, 0xB5	; 181
    43cc:	41 05       	cpc	r20, r1
    43ce:	51 05       	cpc	r21, r1
    43d0:	61 05       	cpc	r22, r1
    43d2:	71 05       	cpc	r23, r1
    43d4:	81 05       	cpc	r24, r1
    43d6:	91 05       	cpc	r25, r1
    43d8:	09 f0       	breq	.+2      	; 0x43dc <GetFrequency+0x284>
    43da:	08 f4       	brcc	.+2      	; 0x43de <GetFrequency+0x286>
    43dc:	4a c0       	rjmp	.+148    	; 0x4472 <GetFrequency+0x31a>
//	      Show the frequency recalculated from measured period
//	      ----------------------------------------------------
 #if (LCD_LINES > 3)
              lcd_line4();		// use line 4 of 4-line LCD to report the computed frequency
 #else
              lcd_line1();		// overwrite line 1 of 2-line LCD to report the computed frequency
    43de:	0e 94 3a 02 	call	0x474	; 0x474 <lcd_line1>
 #endif
              lcd_data('f');
    43e2:	86 e6       	ldi	r24, 0x66	; 102
    43e4:	0e 94 d8 01 	call	0x3b0	; 0x3b0 <lcd_data>
              lcd_equal();		// lcd_data('=');
    43e8:	0e 94 1d 02 	call	0x43a	; 0x43a <lcd_equal>
              if (ext_period > 1000000000) {
    43ec:	94 01       	movw	r18, r8
    43ee:	4f 81       	ldd	r20, Y+7	; 0x07
    43f0:	5e 81       	ldd	r21, Y+6	; 0x06
    43f2:	b1 01       	movw	r22, r2
    43f4:	c2 01       	movw	r24, r4
                 // frequency in 0.000001Hz (1e11*1e6)/(0.01ns count)
                 freq_from_per = (unsigned long long)(100000000000000000) / ext_period;
                 DisplayValue(freq_from_per,-6,'H',7);  // display with  0.000001 Hz resolution
    43f6:	54 01       	movw	r10, r8
 #else
              lcd_line1();		// overwrite line 1 of 2-line LCD to report the computed frequency
 #endif
              lcd_data('f');
              lcd_equal();		// lcd_data('=');
              if (ext_period > 1000000000) {
    43f8:	21 15       	cp	r18, r1
    43fa:	fa ec       	ldi	r31, 0xCA	; 202
    43fc:	3f 07       	cpc	r19, r31
    43fe:	fa e9       	ldi	r31, 0x9A	; 154
    4400:	4f 07       	cpc	r20, r31
    4402:	fb e3       	ldi	r31, 0x3B	; 59
    4404:	5f 07       	cpc	r21, r31
    4406:	61 05       	cpc	r22, r1
    4408:	71 05       	cpc	r23, r1
    440a:	81 05       	cpc	r24, r1
    440c:	91 05       	cpc	r25, r1
    440e:	a1 f0       	breq	.+40     	; 0x4438 <GetFrequency+0x2e0>
    4410:	98 f0       	brcs	.+38     	; 0x4438 <GetFrequency+0x2e0>
                 // frequency in 0.000001Hz (1e11*1e6)/(0.01ns count)
                 freq_from_per = (unsigned long long)(100000000000000000) / ext_period;
                 DisplayValue(freq_from_per,-6,'H',7);  // display with  0.000001 Hz resolution
    4412:	6a 01       	movw	r12, r20
    4414:	71 01       	movw	r14, r2
    4416:	82 01       	movw	r16, r4
    4418:	20 e0       	ldi	r18, 0x00	; 0
    441a:	30 e0       	ldi	r19, 0x00	; 0
    441c:	4a e8       	ldi	r20, 0x8A	; 138
    441e:	5d e5       	ldi	r21, 0x5D	; 93
    4420:	68 e7       	ldi	r22, 0x78	; 120
    4422:	75 e4       	ldi	r23, 0x45	; 69
    4424:	83 e6       	ldi	r24, 0x63	; 99
    4426:	91 e0       	ldi	r25, 0x01	; 1
    4428:	0e 94 6c 33 	call	0x66d8	; 0x66d8 <__udivdi3>
    442c:	f2 2f       	mov	r31, r18
    442e:	e4 2f       	mov	r30, r20
    4430:	07 e0       	ldi	r16, 0x07	; 7
    4432:	28 e4       	ldi	r18, 0x48	; 72
    4434:	4a ef       	ldi	r20, 0xFA	; 250
    4436:	13 c0       	rjmp	.+38     	; 0x445e <GetFrequency+0x306>
              } else {
                 // prevent unsigned long overflow, scale to 0.0001 Hz
                 // frequency in 0.001Hz (1e11*1e3)/(0.01ns count)
                 freq_from_per = (unsigned long long)(100000000000000) / ext_period;
                 DisplayValue(freq_from_per,-3,'H',7);  // display with  0.001 Hz resolution
    4438:	cf 80       	ldd	r12, Y+7	; 0x07
    443a:	de 80       	ldd	r13, Y+6	; 0x06
    443c:	71 01       	movw	r14, r2
    443e:	82 01       	movw	r16, r4
    4440:	20 e0       	ldi	r18, 0x00	; 0
    4442:	30 e4       	ldi	r19, 0x40	; 64
    4444:	4a e7       	ldi	r20, 0x7A	; 122
    4446:	50 e1       	ldi	r21, 0x10	; 16
    4448:	63 ef       	ldi	r22, 0xF3	; 243
    444a:	7a e5       	ldi	r23, 0x5A	; 90
    444c:	80 e0       	ldi	r24, 0x00	; 0
    444e:	90 e0       	ldi	r25, 0x00	; 0
    4450:	0e 94 6c 33 	call	0x66d8	; 0x66d8 <__udivdi3>
    4454:	f2 2f       	mov	r31, r18
    4456:	e4 2f       	mov	r30, r20
    4458:	07 e0       	ldi	r16, 0x07	; 7
    445a:	28 e4       	ldi	r18, 0x48	; 72
    445c:	4d ef       	ldi	r20, 0xFD	; 253
    445e:	6f 2f       	mov	r22, r31
    4460:	73 2f       	mov	r23, r19
    4462:	8e 2f       	mov	r24, r30
    4464:	95 2f       	mov	r25, r21
    4466:	0e 94 05 04 	call	0x80a	; 0x80a <DisplayValue>
              }
              lcd_data('z');
    446a:	8a e7       	ldi	r24, 0x7A	; 122
    446c:	0e 94 d8 01 	call	0x3b0	; 0x3b0 <lcd_data>
              FREQINP_DDR &= ~(1<<FREQINP_PIN);	// switch frequency pin to input
    4470:	54 98       	cbi	0x0a, 4	; 10
           FDIV_PORT &= ~(1<<FDIV_PIN);			// switch off the 16:1 divider
        }
     }
 #endif
//     taste += wait_for_key_ms(SHORT_WAIT_TIME/2);
     TIMSK0 = 0;		// disable all timer 0 interrupts
    4472:	10 92 6e 00 	sts	0x006E, r1	; 0x80006e <__TEXT_REGION_LENGTH__+0x7e006e>
     taste += wait_for_key_ms(2000);
    4476:	80 ed       	ldi	r24, 0xD0	; 208
    4478:	97 e0       	ldi	r25, 0x07	; 7
    447a:	0e 94 f1 05 	call	0xbe2	; 0xbe2 <wait_for_key_ms>
 #ifdef WITH_ROTARY_SWITCH
     if ((taste != 0) || (rotary.incre > 2)) break;
 #else
     if (taste != 0) break;
    447e:	2a 81       	ldd	r18, Y+2	; 0x02
    4480:	82 0f       	add	r24, r18
    4482:	29 f4       	brne	.+10     	; 0x448e <GetFrequency+0x336>
    4484:	3b 81       	ldd	r19, Y+3	; 0x03
    4486:	31 50       	subi	r19, 0x01	; 1
    4488:	3b 83       	std	Y+3, r19	; 0x03
     u2lcd(freq_factor);	// show the frequency scaler, if not 1
  }
  #endif	/* WITH_FREQUENCY_DIVIDER */
 #endif		/* PROCESSOR_TYP */
  taste = 0;				// reset flag for key pressed
  for (mm=0;mm<240;mm++) {
    448a:	31 11       	cpse	r19, r1
    448c:	70 ce       	rjmp	.-800    	; 0x416e <GetFrequency+0x16>
     if (taste != 0) break;
 #endif
  }  /* end for mm  */
 
  return;
 } // end GetFrequency()
    448e:	27 96       	adiw	r28, 0x07	; 7
    4490:	e2 e1       	ldi	r30, 0x12	; 18
    4492:	0c 94 e4 33 	jmp	0x67c8	; 0x67c8 <__epilogue_restores__>

00004496 <__vector_16>:
/* timer 0 Overflow interrupt                                   */
/* timer 0 count up to 0xff, then OV occur. update upper part   */
/* to build the total counts within one second or               */
/* to build the total counts within the specified pin changes.  */
/* ************************************************************ */
ISR(TIMER0_OVF_vect, ISR_BLOCK) {
    4496:	1f 92       	push	r1
    4498:	0f 92       	push	r0
    449a:	0f b6       	in	r0, 0x3f	; 63
    449c:	0f 92       	push	r0
    449e:	11 24       	eor	r1, r1
    44a0:	8f 93       	push	r24
    44a2:	9f 93       	push	r25
    44a4:	af 93       	push	r26
    44a6:	bf 93       	push	r27
  sei();		// set interrupt enable
    44a8:	78 94       	sei
  ext_freq.dw += 256;	// add 256 clock tics to the total time
    44aa:	80 91 0e 01 	lds	r24, 0x010E	; 0x80010e <ext_freq>
    44ae:	90 91 0f 01 	lds	r25, 0x010F	; 0x80010f <ext_freq+0x1>
    44b2:	a0 91 10 01 	lds	r26, 0x0110	; 0x800110 <ext_freq+0x2>
    44b6:	b0 91 11 01 	lds	r27, 0x0111	; 0x800111 <ext_freq+0x3>
    44ba:	9f 5f       	subi	r25, 0xFF	; 255
    44bc:	af 4f       	sbci	r26, 0xFF	; 255
    44be:	bf 4f       	sbci	r27, 0xFF	; 255
    44c0:	80 93 0e 01 	sts	0x010E, r24	; 0x80010e <ext_freq>
    44c4:	90 93 0f 01 	sts	0x010F, r25	; 0x80010f <ext_freq+0x1>
    44c8:	a0 93 10 01 	sts	0x0110, r26	; 0x800110 <ext_freq+0x2>
    44cc:	b0 93 11 01 	sts	0x0111, r27	; 0x800111 <ext_freq+0x3>
}
    44d0:	bf 91       	pop	r27
    44d2:	af 91       	pop	r26
    44d4:	9f 91       	pop	r25
    44d6:	8f 91       	pop	r24
    44d8:	0f 90       	pop	r0
    44da:	0f be       	out	0x3f, r0	; 63
    44dc:	0f 90       	pop	r0
    44de:	1f 90       	pop	r1
    44e0:	18 95       	reti

000044e2 <__vector_11>:
/* ************************************************************ */
/* Timer 1 Compare A interrupts with count 1 to start counter 0 */
/* This is defined as start of the measurement second.          */
/* ************************************************************ */
// this handler is also used by SamplingADC.S, where simply any dummy interrupt handler is usable; but if timing of this handler changes, need to adapt SamplingADC.S as well
ISR(TIMER1_COMPA_vect, ISR_BLOCK) {
    44e2:	1f 92       	push	r1
    44e4:	0f 92       	push	r0
    44e6:	0f b6       	in	r0, 0x3f	; 63
    44e8:	0f 92       	push	r0
    44ea:	11 24       	eor	r1, r1
    44ec:	8f 93       	push	r24
#if PROCESSOR_TYP == 1280
  TCCR3B = (1<<CS32) | (1<<CS31) | (0<<CS30);	// start the counter 3 with external input T3
#else
  TCCR0B = (1<<CS02) | (1<<CS01) | (0<<CS00);	// now start the counter 0 with external input T0
    44ee:	86 e0       	ldi	r24, 0x06	; 6
    44f0:	85 bd       	out	0x25, r24	; 37
#endif
}
    44f2:	8f 91       	pop	r24
    44f4:	0f 90       	pop	r0
    44f6:	0f be       	out	0x3f, r0	; 63
    44f8:	0f 90       	pop	r0
    44fa:	1f 90       	pop	r1
    44fc:	18 95       	reti

000044fe <__vector_12>:

#ifdef WITH_MENU
/* ************************************************************ */
/* Timer 1 Compare B interrupt after 1 second to stop counter 0 */
/* ************************************************************ */
ISR(TIMER1_COMPB_vect, ISR_BLOCK) {
    44fe:	1f 92       	push	r1
    4500:	0f 92       	push	r0
    4502:	0f b6       	in	r0, 0x3f	; 63
    4504:	0f 92       	push	r0
    4506:	11 24       	eor	r1, r1
  // The TIMER1_COMPB_vect uses one push and one ldi more than this interrupt.
  // Therefore we stop timer 1 first and ajust to same time with wdt_reset();
  wdt_reset();			// for adjusting to same time as TIMER1_COMPB_vect
    4508:	a8 95       	wdr
  TCCR1B = 0;			// stop counter 1
    450a:	10 92 81 00 	sts	0x0081, r1	; 0x800081 <__TEXT_REGION_LENGTH__+0x7e0081>
#if PROCESSOR_TYP == 1280
  TCCR3B = 0;			// stop counter 3
#else
  TCCR0B = 0;			// stop counter 0
    450e:	15 bc       	out	0x25, r1	; 37
#endif
}
    4510:	0f 90       	pop	r0
    4512:	0f be       	out	0x3f, r0	; 63
    4514:	0f 90       	pop	r0
    4516:	1f 90       	pop	r1
    4518:	18 95       	reti

0000451a <__vector_5>:
/* full periods  (no half period)				*/
/* ************************************************************ */


ISR(PCINTx_vect, ISR_BLOCK)
{
    451a:	1f 92       	push	r1
    451c:	0f 92       	push	r0
    451e:	0f b6       	in	r0, 0x3f	; 63
    4520:	0f 92       	push	r0
    4522:	11 24       	eor	r1, r1
    4524:	2f 93       	push	r18
    4526:	3f 93       	push	r19
    4528:	8f 93       	push	r24
    452a:	9f 93       	push	r25
  if (pinchange_count == 0) {
    452c:	80 91 6b 01 	lds	r24, 0x016B	; 0x80016b <pinchange_count>
    4530:	90 91 6c 01 	lds	r25, 0x016C	; 0x80016c <pinchange_count+0x1>
    4534:	89 2b       	or	r24, r25
    4536:	11 f4       	brne	.+4      	; 0x453c <__vector_5+0x22>
#if PROCESSOR_TYP == 1280
     TCCR3B = (1<<CS30);	// start the counter 3 with full CPU clock
#else
     TCCR0B = (1<<CS00);	// start the counter 0 with full CPU clock
    4538:	81 e0       	ldi	r24, 0x01	; 1
    453a:	85 bd       	out	0x25, r24	; 37
#endif
  }
  if (pinchange_count >= pinchange_max) {
    453c:	20 91 6b 01 	lds	r18, 0x016B	; 0x80016b <pinchange_count>
    4540:	30 91 6c 01 	lds	r19, 0x016C	; 0x80016c <pinchange_count+0x1>
    4544:	80 91 69 01 	lds	r24, 0x0169	; 0x800169 <pinchange_max>
    4548:	90 91 6a 01 	lds	r25, 0x016A	; 0x80016a <pinchange_max+0x1>
    454c:	28 17       	cp	r18, r24
    454e:	39 07       	cpc	r19, r25
    4550:	30 f0       	brcs	.+12     	; 0x455e <__vector_5+0x44>
     // stop the counter 3, when maximum value has reached.
     TCCR3B = 0;		// stop counter 3
     PCMSK_FREQ &= ~(1<<PCINT_FREQ);	// disable int6
#else
     // stop the counter 0, when maximum value has reached.
     TCCR0B = 0;		// stop counter 0
    4552:	15 bc       	out	0x25, r1	; 37
     PCMSK_FREQ &= ~(1<<PCINT_FREQ);	// disable monitoring of PD4 PCINT20 or PB0 PCINT8 pin change
    4554:	80 91 6d 00 	lds	r24, 0x006D	; 0x80006d <__TEXT_REGION_LENGTH__+0x7e006d>
    4558:	8f 7e       	andi	r24, 0xEF	; 239
    455a:	80 93 6d 00 	sts	0x006D, r24	; 0x80006d <__TEXT_REGION_LENGTH__+0x7e006d>
#endif
//     PCICR &= ~(1<<PCI_ENABLE_BIT);	// disable the interrupt
  }
  pinchange_count++;
    455e:	80 91 6b 01 	lds	r24, 0x016B	; 0x80016b <pinchange_count>
    4562:	90 91 6c 01 	lds	r25, 0x016C	; 0x80016c <pinchange_count+0x1>
    4566:	01 96       	adiw	r24, 0x01	; 1
    4568:	90 93 6c 01 	sts	0x016C, r25	; 0x80016c <pinchange_count+0x1>
    456c:	80 93 6b 01 	sts	0x016B, r24	; 0x80016b <pinchange_count>
}
    4570:	9f 91       	pop	r25
    4572:	8f 91       	pop	r24
    4574:	3f 91       	pop	r19
    4576:	2f 91       	pop	r18
    4578:	0f 90       	pop	r0
    457a:	0f be       	out	0x3f, r0	; 63
    457c:	0f 90       	pop	r0
    457e:	1f 90       	pop	r1
    4580:	18 95       	reti

00004582 <message2line>:

/* ****************************************************************** */
/* message2line writes the message corresponding to the number to LCD */
/* ****************************************************************** */
void message2line(uint8_t number) { 
     if (number > MODE_LAST) number -= (MODE_LAST + 1);
    4582:	8b 30       	cpi	r24, 0x0B	; 11
    4584:	08 f0       	brcs	.+2      	; 0x4588 <message2line+0x6>
    4586:	8b 50       	subi	r24, 0x0B	; 11
     if (number == MODE_TRANS) lcd_MEM2_string(TESTER_str);
    4588:	81 11       	cpse	r24, r1
    458a:	03 c0       	rjmp	.+6      	; 0x4592 <message2line+0x10>
    458c:	8c e0       	ldi	r24, 0x0C	; 12
    458e:	92 e0       	ldi	r25, 0x02	; 2
    4590:	31 c0       	rjmp	.+98     	; 0x45f4 <message2line+0x72>
 #ifndef NO_FREQ_COUNTER
     if (number == MODE_FREQ) lcd_MEM2_string(FREQ_str);
    4592:	81 30       	cpi	r24, 0x01	; 1
    4594:	19 f4       	brne	.+6      	; 0x459c <message2line+0x1a>
    4596:	80 ea       	ldi	r24, 0xA0	; 160
    4598:	91 e0       	ldi	r25, 0x01	; 1
    459a:	2c c0       	rjmp	.+88     	; 0x45f4 <message2line+0x72>
 #if PROCESSOR_TYP == 644
     if (number == MODE_HFREQ) lcd_MEM2_string(HFREQ_str);
     if (number == MODE_H_CRYSTAL) lcd_MEM2_string(H_CRYSTAL_str);
     if (number == MODE_L_CRYSTAL) lcd_MEM2_string(L_CRYSTAL_str);
 #endif
     if (number == MODE_FGEN) lcd_MEM2_string(F_GEN_str);
    459c:	82 30       	cpi	r24, 0x02	; 2
    459e:	19 f4       	brne	.+6      	; 0x45a6 <message2line+0x24>
    45a0:	83 ee       	ldi	r24, 0xE3	; 227
    45a2:	91 e0       	ldi	r25, 0x01	; 1
    45a4:	27 c0       	rjmp	.+78     	; 0x45f4 <message2line+0x72>
     if (number == MODE_PWM) lcd_MEM2_string(PWM_10bit_str);
    45a6:	83 30       	cpi	r24, 0x03	; 3
    45a8:	19 f4       	brne	.+6      	; 0x45b0 <message2line+0x2e>
    45aa:	88 ed       	ldi	r24, 0xD8	; 216
    45ac:	91 e0       	ldi	r25, 0x01	; 1
    45ae:	22 c0       	rjmp	.+68     	; 0x45f4 <message2line+0x72>
     if (number == MODE_ESR) lcd_MEM2_string(C_ESR_str);
    45b0:	84 30       	cpi	r24, 0x04	; 4
    45b2:	19 f4       	brne	.+6      	; 0x45ba <message2line+0x38>
    45b4:	8f e7       	ldi	r24, 0x7F	; 127
    45b6:	90 e0       	ldi	r25, 0x00	; 0
    45b8:	1d c0       	rjmp	.+58     	; 0x45f4 <message2line+0x72>
     if (number == MODE_RESIS) lcd_MEM_string(RESIS_13_str);
    45ba:	85 30       	cpi	r24, 0x05	; 5
    45bc:	19 f4       	brne	.+6      	; 0x45c4 <message2line+0x42>
    45be:	84 e7       	ldi	r24, 0x74	; 116
    45c0:	90 e0       	ldi	r25, 0x00	; 0
    45c2:	18 c0       	rjmp	.+48     	; 0x45f4 <message2line+0x72>
     if (number == MODE_CAP13) lcd_MEM_string(CAP_13_str);
    45c4:	86 30       	cpi	r24, 0x06	; 6
    45c6:	19 f4       	brne	.+6      	; 0x45ce <message2line+0x4c>
    45c8:	8d e6       	ldi	r24, 0x6D	; 109
    45ca:	90 e0       	ldi	r25, 0x00	; 0
    45cc:	13 c0       	rjmp	.+38     	; 0x45f4 <message2line+0x72>
 #ifdef WITH_ROTARY_CHECK
     if (number == MODE_ROTARY) lcd_MEM2_string(RotaryEncoder_str);
 #endif
     if (number == MODE_BIG_CAP_CORR) lcd_MEM2_string(SetCapCorr_str);
    45ce:	87 30       	cpi	r24, 0x07	; 7
    45d0:	19 f4       	brne	.+6      	; 0x45d8 <message2line+0x56>
    45d2:	87 ec       	ldi	r24, 0xC7	; 199
    45d4:	91 e0       	ldi	r25, 0x01	; 1
    45d6:	0e c0       	rjmp	.+28     	; 0x45f4 <message2line+0x72>
 #ifdef WITH_SELFTEST
     if (number == MODE_SELFTEST) lcd_MEM2_string(FULLCHECK_str);
    45d8:	88 30       	cpi	r24, 0x08	; 8
    45da:	19 f4       	brne	.+6      	; 0x45e2 <message2line+0x60>
    45dc:	88 eb       	ldi	r24, 0xB8	; 184
    45de:	91 e0       	ldi	r25, 0x01	; 1
    45e0:	09 c0       	rjmp	.+18     	; 0x45f4 <message2line+0x72>
 #endif
 #ifdef LCD_CHANGE_COLOR
     if (number == MODE_SELECT_FG) lcd_MEM_string(FrontColor_str); 
     if (number == MODE_SELECT_BG) lcd_MEM_string(BackColor_str); 
 #endif
     if (number == MODE_SHOW) {
    45e2:	89 30       	cpi	r24, 0x09	; 9
    45e4:	19 f4       	brne	.+6      	; 0x45ec <message2line+0x6a>
        lcd_MEM2_string(SHOW_str);
    45e6:	8a ef       	ldi	r24, 0xFA	; 250
    45e8:	91 e0       	ldi	r25, 0x01	; 1
    45ea:	04 c0       	rjmp	.+8      	; 0x45f4 <message2line+0x72>
     }
     if (number == MODE_OFF) {
    45ec:	8a 30       	cpi	r24, 0x0A	; 10
    45ee:	21 f4       	brne	.+8      	; 0x45f8 <message2line+0x76>
        lcd_MEM2_string(OFF_str);
    45f0:	8f ee       	ldi	r24, 0xEF	; 239
    45f2:	91 e0       	ldi	r25, 0x01	; 1
    45f4:	0e 94 7c 02 	call	0x4f8	; 0x4f8 <lcd_fix_string>
     }
 lcd_clear_line();
    45f8:	0e 94 d8 02 	call	0x5b0	; 0x5b0 <lcd_clear_line>
 uart_newline();                   // MAURO
    45fc:	0c 94 35 02 	jmp	0x46a	; 0x46a <uart_newline>
    4600:	08 95       	ret

00004602 <show_C_ESR>:
} /* end message2line() */

/* ****************************************************************** */
/* show_C_ESR measures the capacity and ESR of a capacitor connected to TP1 and TP3 */
/* ****************************************************************** */
void show_C_ESR() {
    4602:	0f 93       	push	r16
    4604:	cf 93       	push	r28
  uint8_t key_pressed;
  message_key_released(C_ESR_str);
    4606:	8f e7       	ldi	r24, 0x7F	; 127
    4608:	90 e0       	ldi	r25, 0x00	; 0
    460a:	29 d3       	rcall	.+1618   	; 0x4c5e <message_key_released>
#ifdef POWER_OFF
  uint8_t times;
  for (times=0;times<250;) 
    460c:	c0 e0       	ldi	r28, 0x00	; 0
#else
  while (1)		/* wait endless without the POWER_OFF option */
#endif
  {
        PartFound = PART_NONE;
    460e:	10 92 1a 01 	sts	0x011A, r1	; 0x80011a <PartFound>
        ReadBigCap(TP3,TP1);
    4612:	60 e0       	ldi	r22, 0x00	; 0
    4614:	82 e0       	ldi	r24, 0x02	; 2
    4616:	38 d3       	rcall	.+1648   	; 0x4c88 <ReadBigCap>
        if (PartFound == PART_CAPACITOR) {
    4618:	80 91 1a 01 	lds	r24, 0x011A	; 0x80011a <PartFound>
    461c:	88 30       	cpi	r24, 0x08	; 8
    461e:	d1 f5       	brne	.+116    	; 0x4694 <show_C_ESR+0x92>
#if LCD_LINES > 2
           lcd_line2(); 	// set to line2 
#else
           lcd_line1(); 	// set to line1 
    4620:	0e 94 3a 02 	call	0x474	; 0x474 <lcd_line1>
#endif
           lcd_data('C');
    4624:	83 e4       	ldi	r24, 0x43	; 67
    4626:	0e 94 d8 01 	call	0x3b0	; 0x3b0 <lcd_data>
           lcd_equal();		// lcd_data('=');
    462a:	0e 94 1d 02 	call	0x43a	; 0x43a <lcd_equal>
           DisplayValue(cap.cval_max,cap.cpre_max,'F',3);
    462e:	60 91 77 01 	lds	r22, 0x0177	; 0x800177 <cap+0x4>
    4632:	70 91 78 01 	lds	r23, 0x0178	; 0x800178 <cap+0x5>
    4636:	80 91 79 01 	lds	r24, 0x0179	; 0x800179 <cap+0x6>
    463a:	90 91 7a 01 	lds	r25, 0x017A	; 0x80017a <cap+0x7>
    463e:	03 e0       	ldi	r16, 0x03	; 3
    4640:	26 e4       	ldi	r18, 0x46	; 70
    4642:	40 91 86 01 	lds	r20, 0x0186	; 0x800186 <cap+0x13>
    4646:	0e 94 05 04 	call	0x80a	; 0x80a <DisplayValue>
           lcd_clear_line();	// clear to end of line 1
    464a:	0e 94 d8 02 	call	0x5b0	; 0x5b0 <lcd_clear_line>
           cap.esr = GetESR(cap.cb,cap.ca);
    464e:	60 91 83 01 	lds	r22, 0x0183	; 0x800183 <cap+0x10>
    4652:	80 91 84 01 	lds	r24, 0x0184	; 0x800184 <cap+0x11>
    4656:	29 db       	rcall	.-2478   	; 0x3caa <GetESR>
    4658:	90 93 80 01 	sts	0x0180, r25	; 0x800180 <cap+0xd>
    465c:	80 93 7f 01 	sts	0x017F, r24	; 0x80017f <cap+0xc>
#if LCD_LINES > 2
	   lcd_line3();		// use line 3 
#else
           lcd_line2();		// use line 2 
    4660:	0e 94 48 02 	call	0x490	; 0x490 <lcd_line2>
#endif
           lcd_MEM_string(&ESR_str[1]);
    4664:	8d e3       	ldi	r24, 0x3D	; 61
    4666:	91 e0       	ldi	r25, 0x01	; 1
    4668:	0e 94 7c 02 	call	0x4f8	; 0x4f8 <lcd_fix_string>
           if (cap.esr < 65530) {
    466c:	80 91 7f 01 	lds	r24, 0x017F	; 0x80017f <cap+0xc>
    4670:	90 91 80 01 	lds	r25, 0x0180	; 0x800180 <cap+0xd>
    4674:	8a 3f       	cpi	r24, 0xFA	; 250
    4676:	2f ef       	ldi	r18, 0xFF	; 255
    4678:	92 07       	cpc	r25, r18
    467a:	30 f4       	brcc	.+12     	; 0x4688 <show_C_ESR+0x86>
              DisplayValue16(cap.esr,-2,LCD_CHAR_OMEGA,2);
    467c:	22 e0       	ldi	r18, 0x02	; 2
    467e:	44 ef       	ldi	r20, 0xF4	; 244
    4680:	6e ef       	ldi	r22, 0xFE	; 254
    4682:	0e 94 ef 04 	call	0x9de	; 0x9de <DisplayValue16>
    4686:	03 c0       	rjmp	.+6      	; 0x468e <show_C_ESR+0x8c>
           } else {
              lcd_data('?');		// too big
    4688:	8f e3       	ldi	r24, 0x3F	; 63
    468a:	0e 94 d8 01 	call	0x3b0	; 0x3b0 <lcd_data>
           }
           lcd_clear_line();		// clear to end of line
    468e:	0e 94 d8 02 	call	0x5b0	; 0x5b0 <lcd_clear_line>
    4692:	0a c0       	rjmp	.+20     	; 0x46a8 <show_C_ESR+0xa6>
#if LCD_LINES > 2
           lcd_clear_line2(); 	// clear C value 
           lcd_line3();
	   lcd_clear_line();	// clear old ESR value
#else
           lcd_line1();	//  
    4694:	0e 94 3a 02 	call	0x474	; 0x474 <lcd_line1>
           lcd_MEM2_string(C_ESR_str);
    4698:	8f e7       	ldi	r24, 0x7F	; 127
    469a:	90 e0       	ldi	r25, 0x00	; 0
    469c:	0e 94 7c 02 	call	0x4f8	; 0x4f8 <lcd_fix_string>
           lcd_clear_line();
    46a0:	0e 94 d8 02 	call	0x5b0	; 0x5b0 <lcd_clear_line>
           lcd_clear_line2(); 	// clear old ESR value 
    46a4:	0e 94 03 03 	call	0x606	; 0x606 <lcd_clear_line2>
#endif
        }
#if defined(POWER_OFF) && defined(BAT_CHECK)
     Bat_update(times);
    46a8:	8c 2f       	mov	r24, r28
    46aa:	0e 94 54 1b 	call	0x36a8	; 0x36a8 <Bat_update>
#endif
     key_pressed = wait_for_key_ms(1000);
    46ae:	88 ee       	ldi	r24, 0xE8	; 232
    46b0:	93 e0       	ldi	r25, 0x03	; 3
    46b2:	0e 94 f1 05 	call	0xbe2	; 0xbe2 <wait_for_key_ms>
#ifdef WITH_ROTARY_SWITCH
     if ((key_pressed != 0) || (rotary.incre > 3)) break;
#else
     if (key_pressed != 0) break;
    46b6:	81 11       	cpse	r24, r1
#endif
#ifdef POWER_OFF
     times = Pwr_mode_check(times);	// no time limit with DC_Pwr_mode
    46b8:	06 c0       	rjmp	.+12     	; 0x46c6 <show_C_ESR+0xc4>
    46ba:	8c 2f       	mov	r24, r28
    46bc:	02 d8       	rcall	.-4092   	; 0x36c2 <Pwr_mode_check>
    46be:	c8 2f       	mov	r28, r24
void show_C_ESR() {
  uint8_t key_pressed;
  message_key_released(C_ESR_str);
#ifdef POWER_OFF
  uint8_t times;
  for (times=0;times<250;) 
    46c0:	8a 3f       	cpi	r24, 0xFA	; 250
    46c2:	08 f4       	brcc	.+2      	; 0x46c6 <show_C_ESR+0xc4>
    46c4:	a4 cf       	rjmp	.-184    	; 0x460e <show_C_ESR+0xc>
#endif
#ifdef POWER_OFF
     times = Pwr_mode_check(times);	// no time limit with DC_Pwr_mode
#endif
  }  /* end for times */
} /* end show_C_ESR() */
    46c6:	cf 91       	pop	r28
    46c8:	0f 91       	pop	r16
    46ca:	08 95       	ret

000046cc <show_vext>:
/* *************************************************** */
/* show_vext() read one or two input voltages from     */
/* ADC input channel(s) TPext or (TPext and TPex2).    */
/* For both inputs a 10:1 voltage divider is required. */
/* *************************************************** */
void show_vext() {
    46cc:	08 95       	ret

000046ce <make_frequency>:
/* *************************************************** */
/* make frequency starts a frequency generator at TP2 with 680 Ohm resistor */
/* some predefined frequencies can be switched with the key */
/* a long key press returns to the selection menu */
/* *************************************************** */
void make_frequency() {
    46ce:	a4 e0       	ldi	r26, 0x04	; 4
    46d0:	b0 e0       	ldi	r27, 0x00	; 0
    46d2:	ed e6       	ldi	r30, 0x6D	; 109
    46d4:	f3 e2       	ldi	r31, 0x23	; 35
    46d6:	0c 94 c8 33 	jmp	0x6790	; 0x6790 <__prologue_saves__>
  unsigned long  f_incre;	// frequency increment 1, 10, 100, 1000, 10000, 100000
  uint8_t f_digit;		// digit for f_incre, 0-10 or 0-20
  uint8_t Max_Digit;		// 10 or 20 , the last digit is for 
  uint8_t right;		// logical expression 

  message_key_released(F_GEN_str);	// display f-Generator and wait for key released
    46da:	83 ee       	ldi	r24, 0xE3	; 227
    46dc:	91 e0       	ldi	r25, 0x01	; 1
    46de:	bf d2       	rcall	.+1406   	; 0x4c5e <message_key_released>
  // OC1B is connected with 680 Ohm resistor to TP2 (middle test pin) 
  TCCR1A = (0<<COM1B1) | (1<<COM1B0) | (0<<WGM11) | (0<<WGM10); // CTC mode, count to OCR1A
    46e0:	80 e1       	ldi	r24, 0x10	; 16
    46e2:	80 93 80 00 	sts	0x0080, r24	; 0x800080 <__TEXT_REGION_LENGTH__+0x7e0080>
  TIMSK1 = 0;		// no interrupt used
    46e6:	10 92 6f 00 	sts	0x006F, r1	; 0x80006f <__TEXT_REGION_LENGTH__+0x7e006f>
  OCR1A = 1;		// highest frequency
    46ea:	81 e0       	ldi	r24, 0x01	; 1
    46ec:	90 e0       	ldi	r25, 0x00	; 0
    46ee:	90 93 89 00 	sts	0x0089, r25	; 0x800089 <__TEXT_REGION_LENGTH__+0x7e0089>
    46f2:	80 93 88 00 	sts	0x0088, r24	; 0x800088 <__TEXT_REGION_LENGTH__+0x7e0088>
  OCR1B	= 0;		// toggle OC1B at this count
    46f6:	10 92 8b 00 	sts	0x008B, r1	; 0x80008b <__TEXT_REGION_LENGTH__+0x7e008b>
    46fa:	10 92 8a 00 	sts	0x008A, r1	; 0x80008a <__TEXT_REGION_LENGTH__+0x7e008a>
  TIFR1 = (1<<OCF1A) | (1<<OCF1A) | (1<<TOV1);	// reset interrupt flags
    46fe:	83 e0       	ldi	r24, 0x03	; 3
    4700:	86 bb       	out	0x16, r24	; 22
  TCCR1C = 0;
    4702:	10 92 82 00 	sts	0x0082, r1	; 0x800082 <__TEXT_REGION_LENGTH__+0x7e0082>
  TCCR1B = (0<<WGM13) | (1<<WGM12) | (0<<CS12) | (0<<CS11) | (0<<CS10); // set counter mode 
    4706:	88 e0       	ldi	r24, 0x08	; 8
    4708:	80 93 81 00 	sts	0x0081, r24	; 0x800081 <__TEXT_REGION_LENGTH__+0x7e0081>
  R_PORT = 0;		// set all resistor port outputs to GND
    470c:	15 b8       	out	0x05, r1	; 5
#if PROCESSOR_TYP == 644
  R_DDR = (1<<PIN_RL1) | (1<<PIN_RL2) | (1<<PIN_RL3);		// set TP1, DDD4(TP2) and TP3 to output
#else
  R_DDR = (1<<PIN_RL1) | (1<<PIN_RL3);		// set TP1 and TP3 to output
    470e:	91 e1       	ldi	r25, 0x11	; 17
    4710:	94 b9       	out	0x04, r25	; 4
#endif
  ADC_PORT = TXD_VAL;
    4712:	88 b9       	out	0x08, r24	; 8
  ADC_DDR = (1<<TP1) | TXD_MSK;			//connect TP1 to GND
    4714:	89 e0       	ldi	r24, 0x09	; 9
    4716:	87 b9       	out	0x07, r24	; 7
#if PROCESSOR_TYP == 1280
  DDRB  |= (1<<DDB6);	// set output enable for OC1B
#else
  DDRB  |= (1<<DDB2);	// set output enable for OC1B
    4718:	22 9a       	sbi	0x04, 2	; 4
#endif
  TCCR1B = (0<<WGM13) | (1<<WGM12) | (0<<CS12) | (0<<CS11) | (1<<CS10); // no clock divide
    471a:	80 93 81 00 	sts	0x0081, r24	; 0x800081 <__TEXT_REGION_LENGTH__+0x7e0081>
#ifdef POWER_OFF
  uint8_t new_points;		// one point for every 30 seconds wait time
  uint8_t shown_points;		// one point for every 30 seconds wait time
  uint8_t times;		// total wait time
  shown_points = 0;
  for (times=0; times<240;) 
    471e:	31 2c       	mov	r3, r1
  significant = 16+1;	// only one significant frequency digit (Hz resolution)
#ifdef POWER_OFF
  uint8_t new_points;		// one point for every 30 seconds wait time
  uint8_t shown_points;		// one point for every 30 seconds wait time
  uint8_t times;		// total wait time
  shown_points = 0;
    4720:	20 e0       	ldi	r18, 0x00	; 0
#endif
  TCCR1B = (0<<WGM13) | (1<<WGM12) | (0<<CS12) | (0<<CS11) | (1<<CS10); // no clock divide
//  wish_freq = 1;		// start with 1 Hz
  f_incre = 1;		// increment with 1 Hz
  f_digit = 1;			// start value
  Max_Digit = 10;	// normally 10, only for 100kHz steps 20
    4722:	fa e0       	ldi	r31, 0x0A	; 10
    4724:	2f 2e       	mov	r2, r31
  DDRB  |= (1<<DDB2);	// set output enable for OC1B
#endif
  TCCR1B = (0<<WGM13) | (1<<WGM12) | (0<<CS12) | (0<<CS11) | (1<<CS10); // no clock divide
//  wish_freq = 1;		// start with 1 Hz
  f_incre = 1;		// increment with 1 Hz
  f_digit = 1;			// start value
    4726:	31 e0       	ldi	r19, 0x01	; 1
    4728:	3b 83       	std	Y+3, r19	; 0x03
#else
  DDRB  |= (1<<DDB2);	// set output enable for OC1B
#endif
  TCCR1B = (0<<WGM13) | (1<<WGM12) | (0<<CS12) | (0<<CS11) | (1<<CS10); // no clock divide
//  wish_freq = 1;		// start with 1 Hz
  f_incre = 1;		// increment with 1 Hz
    472a:	81 2c       	mov	r8, r1
    472c:	91 2c       	mov	r9, r1
    472e:	54 01       	movw	r10, r8
    4730:	83 94       	inc	r8
  f_digit = 1;			// start value
  Max_Digit = 10;	// normally 10, only for 100kHz steps 20
  significant = 16+1;	// only one significant frequency digit (Hz resolution)
    4732:	41 e1       	ldi	r20, 0x11	; 17
    4734:	4c 83       	std	Y+4, r20	; 0x04
#else
  while (1)			/* wait endless without option POWER_OFF */
#endif
  {
#ifdef POWER_OFF
     new_points = (times+10) / 30;
    4736:	83 2d       	mov	r24, r3
    4738:	90 e0       	ldi	r25, 0x00	; 0
    473a:	0a 96       	adiw	r24, 0x0a	; 10
    473c:	6e e1       	ldi	r22, 0x1E	; 30
    473e:	70 e0       	ldi	r23, 0x00	; 0
    4740:	0e 94 cd 32 	call	0x659a	; 0x659a <__divmodhi4>
    4744:	6a 83       	std	Y+2, r22	; 0x02
    4746:	06 2f       	mov	r16, r22
     if (new_points != shown_points) {
    4748:	62 17       	cp	r22, r18
    474a:	81 f0       	breq	.+32     	; 0x476c <make_frequency+0x9e>
        // count of points has changed, build LCD line1 new
        lcd_line1();	// position to line 1 
    474c:	0e 94 3a 02 	call	0x474	; 0x474 <lcd_line1>
        lcd_MEM2_string(F_GEN_str);	// display f-Generator
    4750:	83 ee       	ldi	r24, 0xE3	; 227
    4752:	91 e0       	ldi	r25, 0x01	; 1
    4754:	0e 94 7c 02 	call	0x4f8	; 0x4f8 <lcd_fix_string>
        shown_points = new_points;
        for (new_points=0; new_points<shown_points ;new_points++) {
    4758:	10 e0       	ldi	r17, 0x00	; 0
    475a:	10 17       	cp	r17, r16
    475c:	28 f4       	brcc	.+10     	; 0x4768 <make_frequency+0x9a>
           lcd_data('.');		// show elapsed time, one point is 60 seconds
    475e:	8e e2       	ldi	r24, 0x2E	; 46
    4760:	0e 94 d8 01 	call	0x3b0	; 0x3b0 <lcd_data>
     if (new_points != shown_points) {
        // count of points has changed, build LCD line1 new
        lcd_line1();	// position to line 1 
        lcd_MEM2_string(F_GEN_str);	// display f-Generator
        shown_points = new_points;
        for (new_points=0; new_points<shown_points ;new_points++) {
    4764:	1f 5f       	subi	r17, 0xFF	; 255
    4766:	f9 cf       	rjmp	.-14     	; 0x475a <make_frequency+0x8c>
           lcd_data('.');		// show elapsed time, one point is 60 seconds
        }
        lcd_clear_line();	// clear remainder of line1
    4768:	0e 94 d8 02 	call	0x5b0	; 0x5b0 <lcd_clear_line>
     }
#endif
     // Generate frequency
     if (significant > (16+1)) {
    476c:	5c 81       	ldd	r21, Y+4	; 0x04
    476e:	52 31       	cpi	r21, 0x12	; 18
    4770:	b8 f0       	brcs	.+46     	; 0x47a0 <make_frequency+0xd2>
        // use lower significant digits and the frequency selection digit f_digit
        wish_freq = (wish_freq % f_incre) + ((f_digit%Max_Digit) * f_incre);
    4772:	c7 01       	movw	r24, r14
    4774:	b6 01       	movw	r22, r12
    4776:	a5 01       	movw	r20, r10
    4778:	94 01       	movw	r18, r8
    477a:	0e 94 e0 32 	call	0x65c0	; 0x65c0 <__udivmodsi4>
    477e:	6b 01       	movw	r12, r22
    4780:	7c 01       	movw	r14, r24
    4782:	8b 81       	ldd	r24, Y+3	; 0x03
    4784:	62 2d       	mov	r22, r2
    4786:	0e 94 ad 32 	call	0x655a	; 0x655a <__udivmodqi4>
    478a:	a9 2f       	mov	r26, r25
    478c:	b0 e0       	ldi	r27, 0x00	; 0
    478e:	a5 01       	movw	r20, r10
    4790:	94 01       	movw	r18, r8
    4792:	0e 94 33 33 	call	0x6666	; 0x6666 <__muluhisi3>
    4796:	c6 0e       	add	r12, r22
    4798:	d7 1e       	adc	r13, r23
    479a:	e8 1e       	adc	r14, r24
    479c:	f9 1e       	adc	r15, r25
    479e:	0c c0       	rjmp	.+24     	; 0x47b8 <make_frequency+0xea>
     } else {
	// with only one significant there are no lower significant digits
        wish_freq = ((f_digit%Max_Digit) * f_incre);
    47a0:	8b 81       	ldd	r24, Y+3	; 0x03
    47a2:	62 2d       	mov	r22, r2
    47a4:	0e 94 ad 32 	call	0x655a	; 0x655a <__udivmodqi4>
    47a8:	a9 2f       	mov	r26, r25
    47aa:	b0 e0       	ldi	r27, 0x00	; 0
    47ac:	a5 01       	movw	r20, r10
    47ae:	94 01       	movw	r18, r8
    47b0:	0e 94 33 33 	call	0x6666	; 0x6666 <__muluhisi3>
    47b4:	6b 01       	movw	r12, r22
    47b6:	7c 01       	movw	r14, r24
     }
     lcd_line2();
    47b8:	0e 94 48 02 	call	0x490	; 0x490 <lcd_line2>
     right = ((f_digit == Max_Digit) && (significant > 17));
    47bc:	8b 81       	ldd	r24, Y+3	; 0x03
    47be:	82 11       	cpse	r24, r2
    47c0:	09 c0       	rjmp	.+18     	; 0x47d4 <make_frequency+0x106>
    47c2:	81 e0       	ldi	r24, 0x01	; 1
    47c4:	9c 81       	ldd	r25, Y+4	; 0x04
    47c6:	92 31       	cpi	r25, 0x12	; 18
    47c8:	08 f4       	brcc	.+2      	; 0x47cc <make_frequency+0xfe>
    47ca:	80 e0       	ldi	r24, 0x00	; 0
    47cc:	89 83       	std	Y+1, r24	; 0x01
     uint8_t long_key_char;
     if (right) {
    47ce:	81 11       	cpse	r24, r1
    47d0:	07 c0       	rjmp	.+14     	; 0x47e0 <make_frequency+0x112>
    47d2:	01 c0       	rjmp	.+2      	; 0x47d6 <make_frequency+0x108>
     } else {
	// with only one significant there are no lower significant digits
        wish_freq = ((f_digit%Max_Digit) * f_incre);
     }
     lcd_line2();
     right = ((f_digit == Max_Digit) && (significant > 17));
    47d4:	19 82       	std	Y+1, r1	; 0x01
     uint8_t long_key_char;
     if (right) {
        long_key_char = '<';	// the frequency string will move to the left by long key press
     } else {
        if (significant < (16+6)) {
    47d6:	2c 81       	ldd	r18, Y+4	; 0x04
    47d8:	26 31       	cpi	r18, 0x16	; 22
    47da:	20 f0       	brcs	.+8      	; 0x47e4 <make_frequency+0x116>
           long_key_char = '>';		// move the frequency string to the right with one leading zero
        } else {
           long_key_char = 'R';		// i100kHz is the last position, Reset to 1 by long key press
    47dc:	82 e5       	ldi	r24, 0x52	; 82
    47de:	03 c0       	rjmp	.+6      	; 0x47e6 <make_frequency+0x118>
     }
     lcd_line2();
     right = ((f_digit == Max_Digit) && (significant > 17));
     uint8_t long_key_char;
     if (right) {
        long_key_char = '<';	// the frequency string will move to the left by long key press
    47e0:	8c e3       	ldi	r24, 0x3C	; 60
    47e2:	01 c0       	rjmp	.+2      	; 0x47e6 <make_frequency+0x118>
     } else {
        if (significant < (16+6)) {
           long_key_char = '>';		// move the frequency string to the right with one leading zero
    47e4:	8e e3       	ldi	r24, 0x3E	; 62
        } else {
           long_key_char = 'R';		// i100kHz is the last position, Reset to 1 by long key press
        }
     }
     lcd_data(long_key_char);		// show the selected character for long key action
    47e6:	0e 94 d8 01 	call	0x3b0	; 0x3b0 <lcd_data>
#if (LCD_LINES > 2)
     lcd_space();
#endif
     Display_Hz(wish_freq, significant);	// show the selected frequuency
    47ea:	4c 81       	ldd	r20, Y+4	; 0x04
    47ec:	c7 01       	movw	r24, r14
    47ee:	b6 01       	movw	r22, r12
    47f0:	0e 94 04 05 	call	0xa08	; 0xa08 <Display_Hz>
     hperiod.dw = (F_CPU + wish_freq) / (wish_freq * 2);  // total divider for selected frequenx
    47f4:	c7 01       	movw	r24, r14
    47f6:	b6 01       	movw	r22, r12
    47f8:	7c 5d       	subi	r23, 0xDC	; 220
    47fa:	8b 40       	sbci	r24, 0x0B	; 11
    47fc:	9f 4f       	sbci	r25, 0xFF	; 255
    47fe:	a7 01       	movw	r20, r14
    4800:	96 01       	movw	r18, r12
    4802:	22 0f       	add	r18, r18
    4804:	33 1f       	adc	r19, r19
    4806:	44 1f       	adc	r20, r20
    4808:	55 1f       	adc	r21, r21
    480a:	0e 94 e0 32 	call	0x65c0	; 0x65c0 <__udivmodsi4>
     divider = 1;
     if (hperiod.w[1] >= 256) {
    480e:	ca 01       	movw	r24, r20
    4810:	4f 3f       	cpi	r20, 0xFF	; 255
    4812:	51 05       	cpc	r21, r1
    4814:	39 f0       	breq	.+14     	; 0x4824 <make_frequency+0x156>
    4816:	30 f0       	brcs	.+12     	; 0x4824 <make_frequency+0x156>
        // divide by 1024
        TCCR1B = (0<<WGM13) | (1<<WGM12) | (1<<CS12) | (0<<CS11) | (1<<CS10); // divide clock by 1024
    4818:	8d e0       	ldi	r24, 0x0D	; 13
    481a:	80 93 81 00 	sts	0x0081, r24	; 0x800081 <__TEXT_REGION_LENGTH__+0x7e0081>
        divider = 1024;
    481e:	80 e0       	ldi	r24, 0x00	; 0
    4820:	94 e0       	ldi	r25, 0x04	; 4
    4822:	1f c0       	rjmp	.+62     	; 0x4862 <make_frequency+0x194>
     } else if (hperiod.w[1] >= 64) {
    4824:	40 34       	cpi	r20, 0x40	; 64
    4826:	51 05       	cpc	r21, r1
    4828:	30 f0       	brcs	.+12     	; 0x4836 <make_frequency+0x168>
        // divide by 256
        TCCR1B = (0<<WGM13) | (1<<WGM12) | (1<<CS12) | (0<<CS11) | (0<<CS10); // divide clock by 256
    482a:	8c e0       	ldi	r24, 0x0C	; 12
    482c:	80 93 81 00 	sts	0x0081, r24	; 0x800081 <__TEXT_REGION_LENGTH__+0x7e0081>
        divider = 256;
    4830:	80 e0       	ldi	r24, 0x00	; 0
    4832:	91 e0       	ldi	r25, 0x01	; 1
    4834:	16 c0       	rjmp	.+44     	; 0x4862 <make_frequency+0x194>
     } else if (hperiod.w[1] >= 8) {
    4836:	48 30       	cpi	r20, 0x08	; 8
    4838:	51 05       	cpc	r21, r1
    483a:	30 f0       	brcs	.+12     	; 0x4848 <make_frequency+0x17a>
        // divide by 64
        TCCR1B = (0<<WGM13) | (1<<WGM12) | (0<<CS12) | (1<<CS11) | (1<<CS10); // divide clock by 64
    483c:	8b e0       	ldi	r24, 0x0B	; 11
    483e:	80 93 81 00 	sts	0x0081, r24	; 0x800081 <__TEXT_REGION_LENGTH__+0x7e0081>
        divider = 64;
    4842:	80 e4       	ldi	r24, 0x40	; 64
    4844:	90 e0       	ldi	r25, 0x00	; 0
    4846:	0d c0       	rjmp	.+26     	; 0x4862 <make_frequency+0x194>
     } else if (hperiod.w[1] >= 1) {
    4848:	89 2b       	or	r24, r25
    484a:	31 f0       	breq	.+12     	; 0x4858 <make_frequency+0x18a>
        // divide by 8
        TCCR1B = (0<<WGM13) | (1<<WGM12) | (0<<CS12) | (1<<CS11) | (0<<CS10); // divide clock by 8
    484c:	9a e0       	ldi	r25, 0x0A	; 10
    484e:	90 93 81 00 	sts	0x0081, r25	; 0x800081 <__TEXT_REGION_LENGTH__+0x7e0081>
        divider = 8;
    4852:	88 e0       	ldi	r24, 0x08	; 8
    4854:	90 e0       	ldi	r25, 0x00	; 0
    4856:	05 c0       	rjmp	.+10     	; 0x4862 <make_frequency+0x194>
     } else {
        // no divide
        TCCR1B = (0<<WGM13) | (1<<WGM12) | (0<<CS12) | (0<<CS11) | (1<<CS10); // no clock divide
    4858:	89 e0       	ldi	r24, 0x09	; 9
    485a:	80 93 81 00 	sts	0x0081, r24	; 0x800081 <__TEXT_REGION_LENGTH__+0x7e0081>
#if (LCD_LINES > 2)
     lcd_space();
#endif
     Display_Hz(wish_freq, significant);	// show the selected frequuency
     hperiod.dw = (F_CPU + wish_freq) / (wish_freq * 2);  // total divider for selected frequenx
     divider = 1;
    485e:	81 e0       	ldi	r24, 0x01	; 1
    4860:	90 e0       	ldi	r25, 0x00	; 0
        divider = 8;
     } else {
        // no divide
        TCCR1B = (0<<WGM13) | (1<<WGM12) | (0<<CS12) | (0<<CS11) | (1<<CS10); // no clock divide
     }
     OCR1A = (hperiod.dw / divider) - 1;	// the remainder divider  match to 16-bit counter 
    4862:	2c 01       	movw	r4, r24
    4864:	61 2c       	mov	r6, r1
    4866:	71 2c       	mov	r7, r1
    4868:	ca 01       	movw	r24, r20
    486a:	b9 01       	movw	r22, r18
    486c:	a3 01       	movw	r20, r6
    486e:	92 01       	movw	r18, r4
    4870:	0e 94 e0 32 	call	0x65c0	; 0x65c0 <__udivmodsi4>
    4874:	21 50       	subi	r18, 0x01	; 1
    4876:	31 09       	sbc	r19, r1
    4878:	30 93 89 00 	sts	0x0089, r19	; 0x800089 <__TEXT_REGION_LENGTH__+0x7e0089>
    487c:	20 93 88 00 	sts	0x0088, r18	; 0x800088 <__TEXT_REGION_LENGTH__+0x7e0088>
     if (OCR1A == 0) OCR1A = 1;
    4880:	80 91 88 00 	lds	r24, 0x0088	; 0x800088 <__TEXT_REGION_LENGTH__+0x7e0088>
    4884:	90 91 89 00 	lds	r25, 0x0089	; 0x800089 <__TEXT_REGION_LENGTH__+0x7e0089>
    4888:	89 2b       	or	r24, r25
    488a:	31 f4       	brne	.+12     	; 0x4898 <make_frequency+0x1ca>
    488c:	21 e0       	ldi	r18, 0x01	; 1
    488e:	30 e0       	ldi	r19, 0x00	; 0
    4890:	30 93 89 00 	sts	0x0089, r19	; 0x800089 <__TEXT_REGION_LENGTH__+0x7e0089>
    4894:	20 93 88 00 	sts	0x0088, r18	; 0x800088 <__TEXT_REGION_LENGTH__+0x7e0088>
//     }
//     lcd_data('z');
//     lcd_clear_line();
#endif
     long int diff_freq;
     diff_freq = (((F_CPU/2) / divider) * 100) / (OCR1A + 1) - (wish_freq * 100);
    4898:	00 91 88 00 	lds	r16, 0x0088	; 0x800088 <__TEXT_REGION_LENGTH__+0x7e0088>
    489c:	10 91 89 00 	lds	r17, 0x0089	; 0x800089 <__TEXT_REGION_LENGTH__+0x7e0089>
#if (LCD_LINES > 2)
     DisplayValue(diff_freq,-2,'H',32+5);
#else
     DisplayValue(diff_freq,-2,'H',32+2);
    48a0:	60 e0       	ldi	r22, 0x00	; 0
    48a2:	72 e1       	ldi	r23, 0x12	; 18
    48a4:	8a e7       	ldi	r24, 0x7A	; 122
    48a6:	90 e0       	ldi	r25, 0x00	; 0
    48a8:	a3 01       	movw	r20, r6
    48aa:	92 01       	movw	r18, r4
    48ac:	0e 94 e0 32 	call	0x65c0	; 0x65c0 <__udivmodsi4>
    48b0:	a4 e6       	ldi	r26, 0x64	; 100
    48b2:	b0 e0       	ldi	r27, 0x00	; 0
    48b4:	0e 94 33 33 	call	0x6666	; 0x6666 <__muluhisi3>
    48b8:	98 01       	movw	r18, r16
    48ba:	2f 5f       	subi	r18, 0xFF	; 255
    48bc:	3f 4f       	sbci	r19, 0xFF	; 255
    48be:	40 e0       	ldi	r20, 0x00	; 0
    48c0:	50 e0       	ldi	r21, 0x00	; 0
    48c2:	0e 94 e0 32 	call	0x65c0	; 0x65c0 <__udivmodsi4>
    48c6:	29 01       	movw	r4, r18
    48c8:	3a 01       	movw	r6, r20
    48ca:	a4 e6       	ldi	r26, 0x64	; 100
    48cc:	b0 e0       	ldi	r27, 0x00	; 0
    48ce:	a7 01       	movw	r20, r14
    48d0:	96 01       	movw	r18, r12
    48d2:	0e 94 33 33 	call	0x6666	; 0x6666 <__muluhisi3>
    48d6:	a3 01       	movw	r20, r6
    48d8:	92 01       	movw	r18, r4
    48da:	26 1b       	sub	r18, r22
    48dc:	37 0b       	sbc	r19, r23
    48de:	48 0b       	sbc	r20, r24
    48e0:	59 0b       	sbc	r21, r25
    48e2:	ca 01       	movw	r24, r20
    48e4:	b9 01       	movw	r22, r18
    48e6:	02 e2       	ldi	r16, 0x22	; 34
    48e8:	28 e4       	ldi	r18, 0x48	; 72
    48ea:	4e ef       	ldi	r20, 0xFE	; 254
    48ec:	0e 94 05 04 	call	0x80a	; 0x80a <DisplayValue>
#endif
     lcd_data('z');
    48f0:	8a e7       	ldi	r24, 0x7A	; 122
    48f2:	0e 94 d8 01 	call	0x3b0	; 0x3b0 <lcd_data>
     lcd_clear_line();
    48f6:	0e 94 d8 02 	call	0x5b0	; 0x5b0 <lcd_clear_line>
     key_pressed = wait_for_key_ms(2000);	// check key and rotary encoder
    48fa:	80 ed       	ldi	r24, 0xD0	; 208
    48fc:	97 e0       	ldi	r25, 0x07	; 7
    48fe:	0e 94 f1 05 	call	0xbe2	; 0xbe2 <wait_for_key_ms>
#ifdef POWER_OFF
 #ifdef WITH_ROTARY_SWITCH
     if ((key_pressed != 0) || (rotary.incre > 0)) times = 0;	// reset counter, operator is active
 #else
     if (key_pressed != 0)  times = 0;	// reset counter, operator is active
    4902:	88 23       	and	r24, r24
    4904:	09 f4       	brne	.+2      	; 0x4908 <make_frequency+0x23a>
    4906:	49 c0       	rjmp	.+146    	; 0x499a <make_frequency+0x2cc>
 #endif
#endif
     if(key_pressed >= 200) break;	// more than 2.0 seconds
    4908:	88 3c       	cpi	r24, 0xC8	; 200
    490a:	60 f0       	brcs	.+24     	; 0x4924 <make_frequency+0x256>
     f_digit = f_digit % (Max_Digit + 1);
#ifdef POWER_OFF
     times = Pwr_mode_check(times);	// no time limit with DC_Pwr_mode
#endif
  } /* end for times */
  TCCR1B = 0;		// stop counter
    490c:	10 92 81 00 	sts	0x0081, r1	; 0x800081 <__TEXT_REGION_LENGTH__+0x7e0081>
  TCCR1A = 0;		// stop counter
    4910:	10 92 80 00 	sts	0x0080, r1	; 0x800080 <__TEXT_REGION_LENGTH__+0x7e0080>
  ADC_DDR =  TXD_MSK;	// disconnect TP1 
    4914:	88 e0       	ldi	r24, 0x08	; 8
    4916:	87 b9       	out	0x07, r24	; 7
  R_DDR = 0;		// switch resistor ports to Input
    4918:	14 b8       	out	0x04, r1	; 4
#if PROCESSOR_TYP == 1280
  DDRB  &= ~(1<<DDB6);	// disable output 
#else
  DDRB  &= ~(1<<DDB2);	// disable output 
    491a:	22 98       	cbi	0x04, 2	; 4
#endif

} /* end make frequency */
    491c:	24 96       	adiw	r28, 0x04	; 4
    491e:	e2 e1       	ldi	r30, 0x12	; 18
    4920:	0c 94 e4 33 	jmp	0x67c8	; 0x67c8 <__epilogue_restores__>
 #else
     if (key_pressed != 0)  times = 0;	// reset counter, operator is active
 #endif
#endif
     if(key_pressed >= 200) break;	// more than 2.0 seconds
     if (key_pressed > 80) {	/* more than 0.8 seconds key press */
    4924:	81 35       	cpi	r24, 0x51	; 81
    4926:	98 f1       	brcs	.+102    	; 0x498e <make_frequency+0x2c0>
        // change of f_incre
        if (right) {
    4928:	39 81       	ldd	r19, Y+1	; 0x01
    492a:	33 23       	and	r19, r19
    492c:	e9 f0       	breq	.+58     	; 0x4968 <make_frequency+0x29a>
           // frequency string will move to the left, upper digit will move to the next lower digit
           Max_Digit = 10;		// f_incre will be 10kHz or less, allways 0-9
           significant--;		// diplay one digit less
    492e:	4c 81       	ldd	r20, Y+4	; 0x04
    4930:	41 50       	subi	r20, 0x01	; 1
    4932:	4c 83       	std	Y+4, r20	; 0x04
           f_incre /= 10;		// 
    4934:	c5 01       	movw	r24, r10
    4936:	b4 01       	movw	r22, r8
    4938:	2a e0       	ldi	r18, 0x0A	; 10
    493a:	30 e0       	ldi	r19, 0x00	; 0
    493c:	40 e0       	ldi	r20, 0x00	; 0
    493e:	50 e0       	ldi	r21, 0x00	; 0
    4940:	0e 94 e0 32 	call	0x65c0	; 0x65c0 <__udivmodsi4>
    4944:	49 01       	movw	r8, r18
    4946:	5a 01       	movw	r10, r20
           f_digit = (wish_freq / f_incre) % 10; // start with last digit
    4948:	c7 01       	movw	r24, r14
    494a:	b6 01       	movw	r22, r12
    494c:	0e 94 e0 32 	call	0x65c0	; 0x65c0 <__udivmodsi4>
    4950:	ca 01       	movw	r24, r20
    4952:	b9 01       	movw	r22, r18
    4954:	2a e0       	ldi	r18, 0x0A	; 10
    4956:	30 e0       	ldi	r19, 0x00	; 0
    4958:	40 e0       	ldi	r20, 0x00	; 0
    495a:	50 e0       	ldi	r21, 0x00	; 0
    495c:	0e 94 e0 32 	call	0x65c0	; 0x65c0 <__udivmodsi4>
    4960:	6b 83       	std	Y+3, r22	; 0x03
     if(key_pressed >= 200) break;	// more than 2.0 seconds
     if (key_pressed > 80) {	/* more than 0.8 seconds key press */
        // change of f_incre
        if (right) {
           // frequency string will move to the left, upper digit will move to the next lower digit
           Max_Digit = 10;		// f_incre will be 10kHz or less, allways 0-9
    4962:	3a e0       	ldi	r19, 0x0A	; 10
    4964:	23 2e       	mov	r2, r19
           significant--;		// diplay one digit less
           f_incre /= 10;		// 
           f_digit = (wish_freq / f_incre) % 10; // start with last digit
           continue;
    4966:	37 c0       	rjmp	.+110    	; 0x49d6 <make_frequency+0x308>
        } else {
           if (significant >= (16+6)) {
    4968:	5c 81       	ldd	r21, Y+4	; 0x04
    496a:	56 31       	cpi	r21, 0x16	; 22
    496c:	50 f5       	brcc	.+84     	; 0x49c2 <make_frequency+0x2f4>
              f_incre = 1;		// increment with 1 Hz
              f_digit = 1;		// start value = 1 Hz
              significant = 16+1;	// only one significant digit
              continue;
           }
           significant++;		// display one digit more
    496e:	5f 5f       	subi	r21, 0xFF	; 255
    4970:	5c 83       	std	Y+4, r21	; 0x04
           if (significant == (16+6)) Max_Digit = 21;
    4972:	56 31       	cpi	r21, 0x16	; 22
    4974:	11 f4       	brne	.+4      	; 0x497a <make_frequency+0x2ac>
    4976:	25 e1       	ldi	r18, 0x15	; 21
    4978:	22 2e       	mov	r2, r18
           f_incre *= 10;		// change next digit to the left
    497a:	aa e0       	ldi	r26, 0x0A	; 10
    497c:	b0 e0       	ldi	r27, 0x00	; 0
    497e:	a5 01       	movw	r20, r10
    4980:	94 01       	movw	r18, r8
    4982:	0e 94 33 33 	call	0x6666	; 0x6666 <__muluhisi3>
    4986:	4b 01       	movw	r8, r22
    4988:	5c 01       	movw	r10, r24
           f_digit = 0;			// start new digit with zero
    498a:	1b 82       	std	Y+3, r1	; 0x03
           continue;
    498c:	24 c0       	rjmp	.+72     	; 0x49d6 <make_frequency+0x308>
        }
     } else {
        if (key_pressed > KEYPRESS_LENGTH_10ms) f_digit++; // longer key press select next frequency
    498e:	8b 30       	cpi	r24, 0x0B	; 11
    4990:	18 f0       	brcs	.+6      	; 0x4998 <make_frequency+0x2ca>
    4992:	8b 81       	ldd	r24, Y+3	; 0x03
    4994:	8f 5f       	subi	r24, 0xFF	; 255
    4996:	8b 83       	std	Y+3, r24	; 0x03
     key_pressed = wait_for_key_ms(2000);	// check key and rotary encoder
#ifdef POWER_OFF
 #ifdef WITH_ROTARY_SWITCH
     if ((key_pressed != 0) || (rotary.incre > 0)) times = 0;	// reset counter, operator is active
 #else
     if (key_pressed != 0)  times = 0;	// reset counter, operator is active
    4998:	31 2c       	mov	r3, r1
        f_digit += rotary.count;		// increase the frequency number by rotary.count
     } else {
        f_digit += (Max_Digit + 1 + rotary.count);	// decrease the frequency by rotary.count
     }
#endif
     f_digit = f_digit % (Max_Digit + 1);
    499a:	2b 81       	ldd	r18, Y+3	; 0x03
    499c:	82 2f       	mov	r24, r18
    499e:	90 e0       	ldi	r25, 0x00	; 0
    49a0:	62 2d       	mov	r22, r2
    49a2:	70 e0       	ldi	r23, 0x00	; 0
    49a4:	6f 5f       	subi	r22, 0xFF	; 255
    49a6:	7f 4f       	sbci	r23, 0xFF	; 255
    49a8:	0e 94 cd 32 	call	0x659a	; 0x659a <__divmodhi4>
    49ac:	8b 83       	std	Y+3, r24	; 0x03
#ifdef POWER_OFF
     times = Pwr_mode_check(times);	// no time limit with DC_Pwr_mode
    49ae:	83 2d       	mov	r24, r3
    49b0:	0e 94 61 1b 	call	0x36c2	; 0x36c2 <Pwr_mode_check>
    49b4:	38 2e       	mov	r3, r24
#ifdef POWER_OFF
  uint8_t new_points;		// one point for every 30 seconds wait time
  uint8_t shown_points;		// one point for every 30 seconds wait time
  uint8_t times;		// total wait time
  shown_points = 0;
  for (times=0; times<240;) 
    49b6:	3f ee       	ldi	r19, 0xEF	; 239
    49b8:	38 17       	cp	r19, r24
    49ba:	08 f4       	brcc	.+2      	; 0x49be <make_frequency+0x2f0>
    49bc:	a7 cf       	rjmp	.-178    	; 0x490c <make_frequency+0x23e>
/* *************************************************** */
/* make frequency starts a frequency generator at TP2 with 680 Ohm resistor */
/* some predefined frequencies can be switched with the key */
/* a long key press returns to the selection menu */
/* *************************************************** */
void make_frequency() {
    49be:	2a 81       	ldd	r18, Y+2	; 0x02
    49c0:	ba ce       	rjmp	.-652    	; 0x4736 <make_frequency+0x68>
           continue;
        } else {
           if (significant >= (16+6)) {
              // reset to begin
//              wish_freq = 1;		// start with 1 Hz
              Max_Digit = 10;
    49c2:	8a e0       	ldi	r24, 0x0A	; 10
    49c4:	28 2e       	mov	r2, r24
              f_incre = 1;		// increment with 1 Hz
              f_digit = 1;		// start value = 1 Hz
    49c6:	41 e0       	ldi	r20, 0x01	; 1
    49c8:	4b 83       	std	Y+3, r20	; 0x03
        } else {
           if (significant >= (16+6)) {
              // reset to begin
//              wish_freq = 1;		// start with 1 Hz
              Max_Digit = 10;
              f_incre = 1;		// increment with 1 Hz
    49ca:	81 2c       	mov	r8, r1
    49cc:	91 2c       	mov	r9, r1
    49ce:	54 01       	movw	r10, r8
    49d0:	83 94       	inc	r8
              f_digit = 1;		// start value = 1 Hz
              significant = 16+1;	// only one significant digit
    49d2:	51 e1       	ldi	r21, 0x11	; 17
    49d4:	5c 83       	std	Y+4, r21	; 0x04
/* *************************************************** */
/* make frequency starts a frequency generator at TP2 with 680 Ohm resistor */
/* some predefined frequencies can be switched with the key */
/* a long key press returns to the selection menu */
/* *************************************************** */
void make_frequency() {
    49d6:	31 2c       	mov	r3, r1
    49d8:	f2 cf       	rjmp	.-28     	; 0x49be <make_frequency+0x2f0>

000049da <do_10bit_PWM>:
/* do_10bit PWM                                        */
/* a short key press increase the duty cycle with 1%   */
/* a longer key press incrrase with 10%                */
/* a very long key press returns to menue              */
/* *************************************************** */
void do_10bit_PWM() {
    49da:	a0 e0       	ldi	r26, 0x00	; 0
    49dc:	b0 e0       	ldi	r27, 0x00	; 0
    49de:	e3 ef       	ldi	r30, 0xF3	; 243
    49e0:	f4 e2       	ldi	r31, 0x24	; 36
    49e2:	0c 94 ca 33 	jmp	0x6794	; 0x6794 <__prologue_saves__+0x4>
  uint8_t key_pressed;
  uint8_t percent;		// requestet duty-cycle in %
  uint8_t old_perc;		// old duty-cycle in %
  unsigned int pwm_flip;	// value for counter to flip the state
  message_key_released(PWM_10bit_str);	// display PWM-Generator and wait for key released
    49e6:	88 ed       	ldi	r24, 0xD8	; 216
    49e8:	91 e0       	ldi	r25, 0x01	; 1
    49ea:	39 d1       	rcall	.+626    	; 0x4c5e <message_key_released>
  // OC1B is connected with 680 Ohm resistor to TP2 (middle test pin) 
  TCCR1A = (1<<COM1B1) | (0<<COM1B0) | (1<<WGM11) | (1<<WGM10); // fast PWM mode, mode 7: count to 10 bit
    49ec:	83 e2       	ldi	r24, 0x23	; 35
    49ee:	80 93 80 00 	sts	0x0080, r24	; 0x800080 <__TEXT_REGION_LENGTH__+0x7e0080>
  TIMSK1 = 0;		// no interrupt used
    49f2:	10 92 6f 00 	sts	0x006F, r1	; 0x80006f <__TEXT_REGION_LENGTH__+0x7e006f>
  OCR1B	= 0xff;		// toggle OC1B at this count
    49f6:	8f ef       	ldi	r24, 0xFF	; 255
    49f8:	90 e0       	ldi	r25, 0x00	; 0
    49fa:	90 93 8b 00 	sts	0x008B, r25	; 0x80008b <__TEXT_REGION_LENGTH__+0x7e008b>
    49fe:	80 93 8a 00 	sts	0x008A, r24	; 0x80008a <__TEXT_REGION_LENGTH__+0x7e008a>
  TIFR1 = (1<<OCF1A) | (1<<OCF1A) | (1<<TOV1);	// reset interrupt flags
    4a02:	83 e0       	ldi	r24, 0x03	; 3
    4a04:	86 bb       	out	0x16, r24	; 22
  TCCR1C = 0;
    4a06:	10 92 82 00 	sts	0x0082, r1	; 0x800082 <__TEXT_REGION_LENGTH__+0x7e0082>

  R_PORT = 0;		// set all resistor port outputs to GND
    4a0a:	15 b8       	out	0x05, r1	; 5
#if PROCESSOR_TYP == 644
  R_DDR = (1<<PIN_RL1) | (1<<PIN_RL2) | (1<<PIN_RL3);		// set TP1, DDD4(TP2) and TP3 to output
#else
  R_DDR = (1<<PIN_RL1) | (1<<PIN_RL3);		// set TP1 and TP3 to output
    4a0c:	81 e1       	ldi	r24, 0x11	; 17
    4a0e:	84 b9       	out	0x04, r24	; 4
#endif
  ADC_PORT = TXD_VAL;
    4a10:	88 e0       	ldi	r24, 0x08	; 8
    4a12:	88 b9       	out	0x08, r24	; 8
  ADC_DDR = (1<<TP1) | TXD_MSK;			//connect TP1 to GND
    4a14:	89 e0       	ldi	r24, 0x09	; 9
    4a16:	87 b9       	out	0x07, r24	; 7
#if PROCESSOR_TYP == 1280
  DDRB  |= (1<<DDB6);	// set output enable for OC1B
#else
  DDRB  |= (1<<DDB2);	// set output enable
    4a18:	22 9a       	sbi	0x04, 2	; 4
#endif
#ifdef PWM_SERVO
  TCCR1B = (1<<WGM13) | (1<<WGM12) | SERVO_START; // mode 15, clock divide by 8 or 64
  OCR1A = PWM_MAX_COUNT - 1;	// clock tics for 20 ms
#else
  OCR1A = 1;		// highest frequency
    4a1a:	21 e0       	ldi	r18, 0x01	; 1
    4a1c:	30 e0       	ldi	r19, 0x00	; 0
    4a1e:	30 93 89 00 	sts	0x0089, r19	; 0x800089 <__TEXT_REGION_LENGTH__+0x7e0089>
    4a22:	20 93 88 00 	sts	0x0088, r18	; 0x800088 <__TEXT_REGION_LENGTH__+0x7e0088>
  TCCR1B = (0<<WGM13) | (1<<WGM12) | (0<<CS12) | (0<<CS11) | (1<<CS10); // mode 7, no clock divide
    4a26:	80 93 81 00 	sts	0x0081, r24	; 0x800081 <__TEXT_REGION_LENGTH__+0x7e0081>
  key_pressed = 0;
  old_perc = 0;
  percent = (SERVO_MAX + SERVO_MIN) / 2;	// set to middle
#ifdef POWER_OFF
  uint8_t times;		// time limit
  for (times=0; times<240; ) 
    4a2a:	10 e0       	ldi	r17, 0x00	; 0
#else
  OCR1A = 1;		// highest frequency
  TCCR1B = (0<<WGM13) | (1<<WGM12) | (0<<CS12) | (0<<CS11) | (1<<CS10); // mode 7, no clock divide
#endif
  key_pressed = 0;
  old_perc = 0;
    4a2c:	c0 e0       	ldi	r28, 0x00	; 0
  percent = (SERVO_MAX + SERVO_MIN) / 2;	// set to middle
    4a2e:	d2 e3       	ldi	r29, 0x32	; 50
  OCR1A = PWM_MAX_COUNT - 1;	// clock tics for 20 ms
#else
  OCR1A = 1;		// highest frequency
  TCCR1B = (0<<WGM13) | (1<<WGM12) | (0<<CS12) | (0<<CS11) | (1<<CS10); // mode 7, no clock divide
#endif
  key_pressed = 0;
    4a30:	00 e0       	ldi	r16, 0x00	; 0
	   percent -= (SERVO_MAX - SERVO_MIN);		// reset near to mininum value
        }
#ifdef PWM_SERVO
        pwm_flip = (((unsigned long)PWM_MAX_COUNT * percent) + 500) / 1000;
#else
        pwm_flip = (((unsigned long)PWM_MAX_COUNT * percent) + 50) / 100;
    4a32:	84 e6       	ldi	r24, 0x64	; 100
    4a34:	c8 2e       	mov	r12, r24
    4a36:	d1 2c       	mov	r13, r1
    4a38:	e1 2c       	mov	r14, r1
    4a3a:	f1 2c       	mov	r15, r1
	lcd_space();
	lcd_data('/');
	lcd_space();
	DisplayValue16(((unsigned long)PWM_MAX_COUNT * SERVO_DIV)/MHZ_CPU, -6,'s',3);
#else
        DisplayValue16((((unsigned long)pwm_flip * 1000) + (PWM_MAX_COUNT/2)) / PWM_MAX_COUNT,-1,'%',5);
    4a3c:	88 24       	eor	r8, r8
    4a3e:	8a 94       	dec	r8
    4a40:	93 e0       	ldi	r25, 0x03	; 3
    4a42:	99 2e       	mov	r9, r25
    4a44:	a1 2c       	mov	r10, r1
    4a46:	b1 2c       	mov	r11, r1
  for (times=0; times<240; ) 
#else
  while (1)			/* wait endless without option POWER_OFF */
#endif
  {
     if (percent != old_perc) {
    4a48:	dc 17       	cp	r29, r28
    4a4a:	c1 f1       	breq	.+112    	; 0x4abc <do_10bit_PWM+0xe2>
        // new duty cycle is requested
        if (percent >= SERVO_MAX) {
    4a4c:	d4 36       	cpi	r29, 0x64	; 100
    4a4e:	18 f0       	brcs	.+6      	; 0x4a56 <do_10bit_PWM+0x7c>
	   percent -= (SERVO_MAX - SERVO_MIN);		// reset near to mininum value
    4a50:	cc e9       	ldi	r28, 0x9C	; 156
    4a52:	cd 0f       	add	r28, r29
    4a54:	01 c0       	rjmp	.+2      	; 0x4a58 <do_10bit_PWM+0x7e>
    4a56:	cd 2f       	mov	r28, r29
        }
#ifdef PWM_SERVO
        pwm_flip = (((unsigned long)PWM_MAX_COUNT * percent) + 500) / 1000;
#else
        pwm_flip = (((unsigned long)PWM_MAX_COUNT * percent) + 50) / 100;
    4a58:	2c 2f       	mov	r18, r28
    4a5a:	30 e0       	ldi	r19, 0x00	; 0
    4a5c:	af ef       	ldi	r26, 0xFF	; 255
    4a5e:	b3 e0       	ldi	r27, 0x03	; 3
    4a60:	0e 94 1e 33 	call	0x663c	; 0x663c <__umulhisi3>
    4a64:	6e 5c       	subi	r22, 0xCE	; 206
    4a66:	7f 4f       	sbci	r23, 0xFF	; 255
    4a68:	8f 4f       	sbci	r24, 0xFF	; 255
    4a6a:	9f 4f       	sbci	r25, 0xFF	; 255
    4a6c:	a7 01       	movw	r20, r14
    4a6e:	96 01       	movw	r18, r12
    4a70:	0e 94 e0 32 	call	0x65c0	; 0x65c0 <__udivmodsi4>
    4a74:	29 01       	movw	r4, r18
    4a76:	3a 01       	movw	r6, r20
#endif
        OCR1B = pwm_flip;		// new percentage
    4a78:	30 93 8b 00 	sts	0x008B, r19	; 0x80008b <__TEXT_REGION_LENGTH__+0x7e008b>
    4a7c:	20 93 8a 00 	sts	0x008A, r18	; 0x80008a <__TEXT_REGION_LENGTH__+0x7e008a>
        lcd_line2();		// goto line 2
    4a80:	0e 94 48 02 	call	0x490	; 0x490 <lcd_line2>
	lcd_space();
	lcd_data('/');
	lcd_space();
	DisplayValue16(((unsigned long)PWM_MAX_COUNT * SERVO_DIV)/MHZ_CPU, -6,'s',3);
#else
        DisplayValue16((((unsigned long)pwm_flip * 1000) + (PWM_MAX_COUNT/2)) / PWM_MAX_COUNT,-1,'%',5);
    4a84:	a8 ee       	ldi	r26, 0xE8	; 232
    4a86:	b3 e0       	ldi	r27, 0x03	; 3
    4a88:	a3 01       	movw	r20, r6
    4a8a:	92 01       	movw	r18, r4
    4a8c:	0e 94 33 33 	call	0x6666	; 0x6666 <__muluhisi3>
    4a90:	61 50       	subi	r22, 0x01	; 1
    4a92:	7e 4f       	sbci	r23, 0xFE	; 254
    4a94:	8f 4f       	sbci	r24, 0xFF	; 255
    4a96:	9f 4f       	sbci	r25, 0xFF	; 255
    4a98:	a5 01       	movw	r20, r10
    4a9a:	94 01       	movw	r18, r8
    4a9c:	0e 94 e0 32 	call	0x65c0	; 0x65c0 <__udivmodsi4>
    4aa0:	da 01       	movw	r26, r20
    4aa2:	c9 01       	movw	r24, r18
    4aa4:	25 e0       	ldi	r18, 0x05	; 5
    4aa6:	45 e2       	ldi	r20, 0x25	; 37
    4aa8:	6f ef       	ldi	r22, 0xFF	; 255
    4aaa:	0e 94 ef 04 	call	0x9de	; 0x9de <DisplayValue16>
#endif
        lcd_clear_line();
    4aae:	0e 94 d8 02 	call	0x5b0	; 0x5b0 <lcd_clear_line>
        old_perc = percent;	// update the old duty cycle
        if (key_pressed > 40) {
    4ab2:	09 32       	cpi	r16, 0x29	; 41
    4ab4:	18 f0       	brcs	.+6      	; 0x4abc <do_10bit_PWM+0xe2>
           wait_about300ms();	// wait some time to release the button
    4ab6:	8c e3       	ldi	r24, 0x3C	; 60
    4ab8:	0e 94 47 05 	call	0xa8e	; 0xa8e <sleep_5ms>
        }
     } /* end if percent != old_perc */
     key_pressed = wait_for_key_ms(1600);
    4abc:	80 e4       	ldi	r24, 0x40	; 64
    4abe:	96 e0       	ldi	r25, 0x06	; 6
    4ac0:	0e 94 f1 05 	call	0xbe2	; 0xbe2 <wait_for_key_ms>
    4ac4:	08 2f       	mov	r16, r24
     if(key_pressed > 130) break;	// more than 1.3 seconds
    4ac6:	83 38       	cpi	r24, 0x83	; 131
    4ac8:	68 f0       	brcs	.+26     	; 0x4ae4 <do_10bit_PWM+0x10a>
#ifdef POWER_OFF
     times = Pwr_mode_check(times);	// no time limit with DC_Pwr_mode
#endif
  } /* end for times */

  ADC_DDR =  TXD_MSK;	// disconnect TP1 
    4aca:	88 e0       	ldi	r24, 0x08	; 8
    4acc:	87 b9       	out	0x07, r24	; 7
  TCCR1B = 0;		// stop counter
    4ace:	10 92 81 00 	sts	0x0081, r1	; 0x800081 <__TEXT_REGION_LENGTH__+0x7e0081>
  TCCR1A = 0;		// stop counter
    4ad2:	10 92 80 00 	sts	0x0080, r1	; 0x800080 <__TEXT_REGION_LENGTH__+0x7e0080>
  R_DDR = 0;		// switch resistor ports to Input
    4ad6:	14 b8       	out	0x04, r1	; 4
#if PROCESSOR_TYP == 1280
  DDRB  &= ~(1<<DDB6);	// disable output 
#else
  DDRB  &= ~(1<<DDB2);	// disable output 
    4ad8:	22 98       	cbi	0x04, 2	; 4
#endif
} /* end do_10bit_PWM */
    4ada:	cd b7       	in	r28, 0x3d	; 61
    4adc:	de b7       	in	r29, 0x3e	; 62
    4ade:	e0 e1       	ldi	r30, 0x10	; 16
    4ae0:	0c 94 e6 33 	jmp	0x67cc	; 0x67cc <__epilogue_restores__+0x4>
        percent += rotary.count;		// increase the duty cycle by rotary.count
     } else {
        percent += ((SERVO_MAX-SERVO_MIN) + rotary.count);	// decrease the duty cycle by rotary.count
     }
#endif
     if (key_pressed > 50) {
    4ae4:	83 33       	cpi	r24, 0x33	; 51
    4ae6:	10 f0       	brcs	.+4      	; 0x4aec <do_10bit_PWM+0x112>
        percent += 10;		// duty cycle will be increased with 10
    4ae8:	da e0       	ldi	r29, 0x0A	; 10
    4aea:	03 c0       	rjmp	.+6      	; 0x4af2 <do_10bit_PWM+0x118>
     } else {
        if (key_pressed > 0) percent += 1;	// duty cycle will be increased with 1
    4aec:	88 23       	and	r24, r24
    4aee:	21 f0       	breq	.+8      	; 0x4af8 <do_10bit_PWM+0x11e>
    4af0:	d1 e0       	ldi	r29, 0x01	; 1
    4af2:	dc 0f       	add	r29, r28
     }
#ifdef POWER_OFF
 #ifdef WITH_ROTARY_SWITCH
     if ((key_pressed > 0) || (rotary.incre > 0)) times = 0;	// reset the loop counter, operator is active
 #else
     if (key_pressed > 0) times = 0;		//reset the loop counter, operator is active
    4af4:	10 e0       	ldi	r17, 0x00	; 0
    4af6:	01 c0       	rjmp	.+2      	; 0x4afa <do_10bit_PWM+0x120>
    4af8:	dc 2f       	mov	r29, r28
 #endif
#endif
#ifdef POWER_OFF
     times = Pwr_mode_check(times);	// no time limit with DC_Pwr_mode
    4afa:	81 2f       	mov	r24, r17
    4afc:	0e 94 61 1b 	call	0x36c2	; 0x36c2 <Pwr_mode_check>
    4b00:	18 2f       	mov	r17, r24
  key_pressed = 0;
  old_perc = 0;
  percent = (SERVO_MAX + SERVO_MIN) / 2;	// set to middle
#ifdef POWER_OFF
  uint8_t times;		// time limit
  for (times=0; times<240; ) 
    4b02:	80 3f       	cpi	r24, 0xF0	; 240
    4b04:	08 f4       	brcc	.+2      	; 0x4b08 <do_10bit_PWM+0x12e>
    4b06:	a0 cf       	rjmp	.-192    	; 0x4a48 <do_10bit_PWM+0x6e>
    4b08:	e0 cf       	rjmp	.-64     	; 0x4aca <do_10bit_PWM+0xf0>

00004b0a <set_big_cap_corr>:
/* *************************************************** */
/* set the correction value for big capacitor measurement */
/* *************************************************** */
#define MIN_KORR (-20)
#define MAX_KORR 80
void set_big_cap_corr(void) {
    4b0a:	0f 93       	push	r16
    4b0c:	1f 93       	push	r17
    4b0e:	cf 93       	push	r28
uint8_t key_pressed;
int8_t korr;
  // set the contrast value
  message_key_released(SetCapCorr_str);	// display Capacity correction and wait for key released
    4b10:	df 93       	push	r29
    4b12:	87 ec       	ldi	r24, 0xC7	; 199
    4b14:	91 e0       	ldi	r25, 0x01	; 1
    4b16:	a3 d0       	rcall	.+326    	; 0x4c5e <message_key_released>
  korr = eeprom_read_byte((uint8_t *)&big_cap_corr);
    4b18:	87 e0       	ldi	r24, 0x07	; 7
    4b1a:	93 e0       	ldi	r25, 0x03	; 3
    4b1c:	0e 94 5b 34 	call	0x68b6	; 0x68b6 <eeprom_read_byte>
    4b20:	c8 2f       	mov	r28, r24
  #ifdef POWER_OFF
  uint8_t times;
  for (times=0;times<240;)
    4b22:	d0 e0       	ldi	r29, 0x00	; 0
  #else
  while (1)                     /* wait endless without option POWER_OFF */
  #endif
  {
     lcd_line2();
    4b24:	0e 94 48 02 	call	0x490	; 0x490 <lcd_line2>
    4b28:	0c 2f       	mov	r16, r28
    4b2a:	0c 2e       	mov	r0, r28
    4b2c:	00 0c       	add	r0, r0
    4b2e:	11 0b       	sbc	r17, r17
     if (korr < 0) {
    4b30:	c7 ff       	sbrs	r28, 7
    4b32:	0b c0       	rjmp	.+22     	; 0x4b4a <set_big_cap_corr+0x40>
       lcd_data('-');
    4b34:	8d e2       	ldi	r24, 0x2D	; 45
    4b36:	0e 94 d8 01 	call	0x3b0	; 0x3b0 <lcd_data>
       DisplayValue16(-korr,-1,'%',3);
    4b3a:	23 e0       	ldi	r18, 0x03	; 3
    4b3c:	45 e2       	ldi	r20, 0x25	; 37
    4b3e:	6f ef       	ldi	r22, 0xFF	; 255
    4b40:	88 27       	eor	r24, r24
    4b42:	99 27       	eor	r25, r25
    4b44:	80 1b       	sub	r24, r16
    4b46:	91 0b       	sbc	r25, r17
    4b48:	04 c0       	rjmp	.+8      	; 0x4b52 <set_big_cap_corr+0x48>
     } else {
       DisplayValue16(korr,-1,'%',3);
    4b4a:	23 e0       	ldi	r18, 0x03	; 3
    4b4c:	45 e2       	ldi	r20, 0x25	; 37
    4b4e:	6f ef       	ldi	r22, 0xFF	; 255
    4b50:	c8 01       	movw	r24, r16
    4b52:	0e 94 ef 04 	call	0x9de	; 0x9de <DisplayValue16>
     }
     lcd_clear_line();		// clear to end of line
    4b56:	0e 94 d8 02 	call	0x5b0	; 0x5b0 <lcd_clear_line>
     key_pressed = wait_for_key_ms(1600);
    4b5a:	80 e4       	ldi	r24, 0x40	; 64
    4b5c:	96 e0       	ldi	r25, 0x06	; 6
    4b5e:	0e 94 f1 05 	call	0xbe2	; 0xbe2 <wait_for_key_ms>
#ifdef POWER_OFF
 #ifdef WITH_ROTARY_SWITCH
     if ((key_pressed != 0) || (rotary.incre > 0)) times = 0;	// reset counter, operator is active
 #else
     if (key_pressed != 0)  times = 0;	// reset counter, operator is active
    4b62:	88 23       	and	r24, r24
    4b64:	31 f0       	breq	.+12     	; 0x4b72 <set_big_cap_corr+0x68>
 #endif
#endif
     if(key_pressed >= 130) break;	// more than 1.3 seconds
    4b66:	82 38       	cpi	r24, 0x82	; 130
    4b68:	88 f4       	brcc	.+34     	; 0x4b8c <set_big_cap_corr+0x82>
#ifdef WITH_ROTARY_SWITCH
     if (rotary.incre > FAST_ROTATION) break;		// fast rotation ends setting of korr
     korr += rotary.count;		// increase or decrease the korr by rotary.count
#endif
     if (key_pressed > 0) {
        if (key_pressed > 40) {
    4b6a:	89 32       	cpi	r24, 0x29	; 41
    4b6c:	c8 f0       	brcs	.+50     	; 0x4ba0 <set_big_cap_corr+0x96>
           korr++; // longer key press select higher korr value
    4b6e:	cf 5f       	subi	r28, 0xFF	; 255
     key_pressed = wait_for_key_ms(1600);
#ifdef POWER_OFF
 #ifdef WITH_ROTARY_SWITCH
     if ((key_pressed != 0) || (rotary.incre > 0)) times = 0;	// reset counter, operator is active
 #else
     if (key_pressed != 0)  times = 0;	// reset counter, operator is active
    4b70:	d0 e0       	ldi	r29, 0x00	; 0
           korr++; // longer key press select higher korr value
        } else {
           korr--;	// decrease the korr 
        }
     }
     if (korr > MAX_KORR) korr -= (MAX_KORR - MIN_KORR + 1);
    4b72:	c1 35       	cpi	r28, 0x51	; 81
    4b74:	14 f0       	brlt	.+4      	; 0x4b7a <set_big_cap_corr+0x70>
    4b76:	c5 56       	subi	r28, 0x65	; 101
    4b78:	03 c0       	rjmp	.+6      	; 0x4b80 <set_big_cap_corr+0x76>
     if (korr < MIN_KORR) korr += (MAX_KORR - MIN_KORR + 1);
    4b7a:	cc 3e       	cpi	r28, 0xEC	; 236
    4b7c:	0c f4       	brge	.+2      	; 0x4b80 <set_big_cap_corr+0x76>
    4b7e:	cb 59       	subi	r28, 0x9B	; 155
#ifdef POWER_OFF
     times = Pwr_mode_check(times);	// no time limit with DC_Pwr_mode
    4b80:	8d 2f       	mov	r24, r29
    4b82:	0e 94 61 1b 	call	0x36c2	; 0x36c2 <Pwr_mode_check>
    4b86:	d8 2f       	mov	r29, r24
  // set the contrast value
  message_key_released(SetCapCorr_str);	// display Capacity correction and wait for key released
  korr = eeprom_read_byte((uint8_t *)&big_cap_corr);
  #ifdef POWER_OFF
  uint8_t times;
  for (times=0;times<240;)
    4b88:	80 3f       	cpi	r24, 0xF0	; 240
    4b8a:	60 f2       	brcs	.-104    	; 0x4b24 <set_big_cap_corr+0x1a>
#ifdef POWER_OFF
     times = Pwr_mode_check(times);	// no time limit with DC_Pwr_mode
#endif
  } /* end for times */

  eeprom_write_byte((uint8_t *)(&big_cap_corr), (int8_t)korr);	// save korr value
    4b8c:	6c 2f       	mov	r22, r28
    4b8e:	87 e0       	ldi	r24, 0x07	; 7
    4b90:	93 e0       	ldi	r25, 0x03	; 3
    4b92:	0e 94 68 34 	call	0x68d0	; 0x68d0 <eeprom_write_byte>
}	/* end set_big_cap_corr() */
    4b96:	df 91       	pop	r29
    4b98:	cf 91       	pop	r28
    4b9a:	1f 91       	pop	r17
    4b9c:	0f 91       	pop	r16
#endif
     if (key_pressed > 0) {
        if (key_pressed > 40) {
           korr++; // longer key press select higher korr value
        } else {
           korr--;	// decrease the korr 
    4b9e:	08 95       	ret
    4ba0:	c1 50       	subi	r28, 0x01	; 1
//    u2lcd(func_number);
#ifndef NO_FREQ_COUNTER
 #ifdef WITH_FREQUENCY_DIVIDER
    if (func_number == MODE_FSCALER) setFScaler(); 	// set scaler to 1,2,4,8,16,32,64,128,256,512
 #endif
    if (func_number == MODE_FREQ) GetFrequency(0);
    4ba2:	e6 cf       	rjmp	.-52     	; 0x4b70 <set_big_cap_corr+0x66>

00004ba4 <do_menu>:
    4ba4:	81 30       	cpi	r24, 0x01	; 1
    4ba6:	19 f4       	brne	.+6      	; 0x4bae <do_menu+0xa>
    4ba8:	80 e0       	ldi	r24, 0x00	; 0
#if PROCESSOR_TYP == 644
    if (func_number == MODE_HFREQ) GetFrequency(1);	// measure high frequency with 16:1 divider
    if (func_number == MODE_H_CRYSTAL) GetFrequency(5); // HF crystal input + 16:1 divider
    if (func_number == MODE_L_CRYSTAL) GetFrequency(6); // LF crystal input, 1:1 divider
#endif
    if (func_number == MODE_FGEN) {
    4baa:	d6 ca       	rjmp	.-2644   	; 0x4158 <GetFrequency>
    4bac:	08 95       	ret
       make_frequency();		// make some sample frequencies
    4bae:	82 30       	cpi	r24, 0x02	; 2
    4bb0:	11 f4       	brne	.+4      	; 0x4bb6 <do_menu+0x12>
    }
    if (func_number == MODE_PWM) {
    4bb2:	8d cd       	rjmp	.-1254   	; 0x46ce <make_frequency>
    4bb4:	08 95       	ret
       do_10bit_PWM();		// generate 10bit PWM
    4bb6:	83 30       	cpi	r24, 0x03	; 3
    4bb8:	11 f4       	brne	.+4      	; 0x4bbe <do_menu+0x1a>
    4bba:	0f cf       	rjmp	.-482    	; 0x49da <do_10bit_PWM>
    }
    if (func_number == MODE_ESR) {
    4bbc:	08 95       	ret
    4bbe:	84 30       	cpi	r24, 0x04	; 4
       show_C_ESR();		// measure capacity and ESR at TP1 and TP3
    4bc0:	11 f4       	brne	.+4      	; 0x4bc6 <do_menu+0x22>
    4bc2:	1f cd       	rjmp	.-1474   	; 0x4602 <show_C_ESR>
    4bc4:	08 95       	ret
    }
    if (func_number == MODE_RESIS) {
    4bc6:	85 30       	cpi	r24, 0x05	; 5
    4bc8:	19 f4       	brne	.+6      	; 0x4bd0 <do_menu+0x2c>
       show_Resis13();		// measure resistor at TP1 and TP3
    4bca:	0c 94 6b 1b 	jmp	0x36d6	; 0x36d6 <show_Resis13>
    }
    if (func_number == MODE_CAP13) {
    4bce:	08 95       	ret
    4bd0:	86 30       	cpi	r24, 0x06	; 6
   lcd_clear();
    4bd2:	29 f4       	brne	.+10     	; 0x4bde <do_menu+0x3a>
    4bd4:	0e 94 42 02 	call	0x484	; 0x484 <lcd_clear>
       show_Cap13();		// measure capacitor at TP1 and TP3
    4bd8:	0c 94 a6 1b 	jmp	0x374c	; 0x374c <show_Cap13>
#ifdef WITH_ROTARY_CHECK
    if (func_number == MODE_ROTARY) {
       CheckRotaryEncoder();		// check rotary encoder
    }
#endif
    if (func_number == MODE_BIG_CAP_CORR) {
    4bdc:	08 95       	ret
    4bde:	87 30       	cpi	r24, 0x07	; 7
       set_big_cap_corr();
    4be0:	11 f4       	brne	.+4      	; 0x4be6 <do_menu+0x42>
    4be2:	93 cf       	rjmp	.-218    	; 0x4b0a <set_big_cap_corr>
    }
#ifdef WITH_SELFTEST
    if (func_number == MODE_SELFTEST) AutoCheck(0x11);	// Full selftest with calibration
    4be4:	08 95       	ret
    4be6:	88 30       	cpi	r24, 0x08	; 8
    4be8:	21 f4       	brne	.+8      	; 0x4bf2 <do_menu+0x4e>
    4bea:	81 e1       	ldi	r24, 0x11	; 17
    4bec:	0c 94 6d 07 	jmp	0xeda	; 0xeda <AutoCheck>
#endif
#ifdef LCD_CHANGE_COLOR
    if (func_number == MODE_SELECT_FG) select_color(0);		// select foreground color
    if (func_number == MODE_SELECT_BG) select_color(1);		// select background color
#endif
    if (func_number == MODE_SHOW) {
    4bf0:	08 95       	ret
    4bf2:	89 30       	cpi	r24, 0x09	; 9
       ShowData();			// Show Calibration Data
    4bf4:	11 f4       	brne	.+4      	; 0x4bfa <do_menu+0x56>
    4bf6:	84 c1       	rjmp	.+776    	; 0x4f00 <ShowData>
    }
    if (func_number == MODE_OFF) {
    4bf8:	08 95       	ret
    4bfa:	8a 30       	cpi	r24, 0x0A	; 10
       switch_tester_off();		//switch off power
    4bfc:	11 f4       	brne	.+4      	; 0x4c02 <do_menu+0x5e>
    4bfe:	0c 94 13 07 	jmp	0xe26	; 0xe26 <switch_tester_off>
  }
}

#else // !WITH_HARDWARE_SERIAL

uint8_t function_menu() {
    4c02:	08 95       	ret

00004c04 <function_menu>:
  rotary.count = 0;
 #endif
#endif

  func_number = 0;
  message_key_released(SELECTION_str);
    4c04:	cf 93       	push	r28
    4c06:	df 93       	push	r29
    4c08:	87 e1       	ldi	r24, 0x17	; 23
    4c0a:	92 e0       	ldi	r25, 0x02	; 2
 #ifdef POWER_OFF
  uint8_t ll;
  for (ll=0;ll<((MODE_LAST+1)*10);ll++) 
    4c0c:	28 d0       	rcall	.+80     	; 0x4c5e <message_key_released>
 #ifdef WITH_ROTARY_SWITCH
  rotary.count = 0;
 #endif
#endif

  func_number = 0;
    4c0e:	d0 e0       	ldi	r29, 0x00	; 0
        message2line(f_nr);	// show function for this line
     } while (++mm < MENU_LINES);

 #endif         /* PAGE_MODE */
#else	/* not LCD_LINES > 3 */
     lcd_line2();
    4c10:	c0 e0       	ldi	r28, 0x00	; 0
    4c12:	0e 94 48 02 	call	0x490	; 0x490 <lcd_line2>
     message2line(func_number);
    4c16:	8c 2f       	mov	r24, r28
    4c18:	b4 dc       	rcall	.-1688   	; 0x4582 <message2line>
#endif /* (LCD_LINES > 3) */
#ifdef POWER_OFF
     ii = wait_for_key_ms(SHORT_WAIT_TIME);	// wait about 5 seconds
    4c1a:	80 e4       	ldi	r24, 0x40	; 64
    4c1c:	9f e1       	ldi	r25, 0x1F	; 31
    4c1e:	0e 94 f1 05 	call	0xbe2	; 0xbe2 <wait_for_key_ms>
     if (ii > 0) ll = 0;			// reset timer, operator present
     if (DC_Pwr_mode == 1) ll = 0;
    4c22:	81 11       	cpse	r24, r1
    4c24:	d0 e0       	ldi	r29, 0x00	; 0
    4c26:	90 91 35 01 	lds	r25, 0x0135	; 0x800135 <DC_Pwr_mode>
    4c2a:	91 30       	cpi	r25, 0x01	; 1
     ii = wait_for_key_ms(0);			// wait endless
#endif
#ifdef WITH_ROTARY_SWITCH
     if ((ii >= MIN_SELECT_TIME) || ((rotary_switch_present != 0) && (ii > 0)))
#else
     if (ii >= MIN_SELECT_TIME)
    4c2c:	09 f4       	brne	.+2      	; 0x4c30 <function_menu+0x2c>
    4c2e:	d0 e0       	ldi	r29, 0x00	; 0
#endif
     {
        // selection only with key-press
        if (func_number == MODE_TRANS) return 0;		// return to TransistorTester
    4c30:	82 33       	cpi	r24, 0x32	; 50
    4c32:	40 f0       	brcs	.+16     	; 0x4c44 <function_menu+0x40>
        do_menu(func_number);
    4c34:	cc 23       	and	r28, r28
    4c36:	79 f0       	breq	.+30     	; 0x4c56 <function_menu+0x52>
    4c38:	8c 2f       	mov	r24, r28
        ii = 0;			// function was executed before, do not increase func_number
#ifdef WITH_ROTARY_SWITCH
        rotary.incre = 0;	// reset all rotary information
        rotary.count = 0;
#endif
        message_key_released(SELECTION_str);	//write Line 1 with Selection:
    4c3a:	b4 df       	rcall	.-152    	; 0x4ba4 <do_menu>
    4c3c:	87 e1       	ldi	r24, 0x17	; 23
    4c3e:	92 e0       	ldi	r25, 0x02	; 2
    4c40:	0e d0       	rcall	.+28     	; 0x4c5e <message_key_released>
    4c42:	02 c0       	rjmp	.+4      	; 0x4c48 <function_menu+0x44>
        func_number += rotary.count;	// function number is increased by rotary steps
     } else {
        func_number += (MODE_LAST + 1 + rotary.count);	// function is decreased by rotary steps
     }
#endif
     if (ii > 0) func_number++;	// increase the function number with key press
    4c44:	81 11       	cpse	r24, r1
    4c46:	cf 5f       	subi	r28, 0xFF	; 255

  func_number = 0;
  message_key_released(SELECTION_str);
 #ifdef POWER_OFF
  uint8_t ll;
  for (ll=0;ll<((MODE_LAST+1)*10);ll++) 
    4c48:	df 5f       	subi	r29, 0xFF	; 255
    4c4a:	de 36       	cpi	r29, 0x6E	; 110
    4c4c:	20 f4       	brcc	.+8      	; 0x4c56 <function_menu+0x52>
 #else
  while (1)		/* without end, if no power off specified */
 #endif
  {
     if (func_number > MODE_LAST) func_number -= (MODE_LAST + 1);
    4c4e:	cb 30       	cpi	r28, 0x0B	; 11
    4c50:	00 f3       	brcs	.-64     	; 0x4c12 <function_menu+0xe>
    4c52:	cb 50       	subi	r28, 0x0B	; 11
    4c54:	de cf       	rjmp	.-68     	; 0x4c12 <function_menu+0xe>
#endif
     if (ii > 0) func_number++;	// increase the function number with key press
  } /* end for ll */

  return 0;
 } // end function_menu()
    4c56:	80 e0       	ldi	r24, 0x00	; 0
    4c58:	df 91       	pop	r29
    4c5a:	cf 91       	pop	r28
    4c5c:	08 95       	ret

00004c5e <message_key_released>:

//=================================================================
// Clear display, show Message XX_str and wait for key release

#if FLASHEND > 0x3fff
void message_key_released(const unsigned char XX_str[]) {
    4c5e:	cf 93       	push	r28
    4c60:	df 93       	push	r29
    4c62:	ec 01       	movw	r28, r24
//  lcd_clear_line();
//  lcd_line2();
//  lcd_clear_line();
//  lcd_line1();
//#else
  lcd_clear();
    4c64:	0e 94 42 02 	call	0x484	; 0x484 <lcd_clear>
//#endif
  lcd_MEM2_string(XX_str);		// display MEM2_str in row 1
    4c68:	ce 01       	movw	r24, r28
    4c6a:	0e 94 7c 02 	call	0x4f8	; 0x4f8 <lcd_fix_string>
    4c6e:	c4 e6       	ldi	r28, 0x64	; 100
  for (times=0;times<100;times++) {
     wait_about10ms();
    4c70:	82 e0       	ldi	r24, 0x02	; 2
    4c72:	0e 94 47 05 	call	0xa8e	; 0xa8e <sleep_5ms>
    if((RST_PIN_REG & (1<<RST_PIN))) break;	// key is released
    4c76:	4f 99       	sbic	0x09, 7	; 9
    4c78:	02 c0       	rjmp	.+4      	; 0x4c7e <message_key_released+0x20>
    4c7a:	c1 50       	subi	r28, 0x01	; 1
//  lcd_line1();
//#else
  lcd_clear();
//#endif
  lcd_MEM2_string(XX_str);		// display MEM2_str in row 1
  for (times=0;times<100;times++) {
    4c7c:	c9 f7       	brne	.-14     	; 0x4c70 <message_key_released+0x12>
     wait_about10ms();
    if((RST_PIN_REG & (1<<RST_PIN))) break;	// key is released
  }
  lcd_line2();
    4c7e:	0e 94 48 02 	call	0x490	; 0x490 <lcd_line2>
  return;
} /* end message_key_released() */
    4c82:	df 91       	pop	r29
    4c84:	cf 91       	pop	r28
    4c86:	08 95       	ret

00004c88 <ReadBigCap>:
#include "Transistortester.h"


#ifdef WITH_MENU
//=================================================================
void ReadBigCap(uint8_t HighPin, uint8_t LowPin) {
    4c88:	a0 e0       	ldi	r26, 0x00	; 0
    4c8a:	b0 e0       	ldi	r27, 0x00	; 0
    4c8c:	ea e4       	ldi	r30, 0x4A	; 74
    4c8e:	f6 e2       	ldi	r31, 0x26	; 38
    4c90:	0c 94 d1 33 	jmp	0x67a2	; 0x67a2 <__prologue_saves__+0x12>
    4c94:	18 2f       	mov	r17, r24
    4c96:	06 2f       	mov	r16, r22
//#endif

#if (((PIN_RL1 + 1) != PIN_RH1) || ((PIN_RL2 + 1) != PIN_RH2) || ((PIN_RL3 + 1) != PIN_RH3))
  LoADC = pgm_read_byte((&PinRLRHADCtab[6])+LowPin-TP_MIN) | TXD_MSK;
#else
  LoADC = pgm_read_byte((&PinRLRHADCtab[3])+LowPin-TP_MIN) | TXD_MSK;
    4c98:	86 2f       	mov	r24, r22
    4c9a:	90 e0       	ldi	r25, 0x00	; 0
    4c9c:	fc 01       	movw	r30, r24
    4c9e:	e1 57       	subi	r30, 0x71	; 113
    4ca0:	fe 4f       	sbci	r31, 0xFE	; 254
    4ca2:	e4 91       	lpm	r30, Z
    4ca4:	e8 60       	ori	r30, 0x08	; 8
    4ca6:	fe 2e       	mov	r15, r30
#endif
  HiPinR_L = pgm_read_byte(&PinRLRHADCtab[HighPin-TP_MIN]);	//R_L mask for HighPin R_L load
    4ca8:	e1 2f       	mov	r30, r17
    4caa:	f0 e0       	ldi	r31, 0x00	; 0
    4cac:	e4 57       	subi	r30, 0x74	; 116
    4cae:	fe 4f       	sbci	r31, 0xFE	; 254
    4cb0:	c4 91       	lpm	r28, Z
  LoPinR_L = pgm_read_byte(&PinRLRHADCtab[LowPin-TP_MIN]);	//R_L mask for LowPin R_L load
    4cb2:	fc 01       	movw	r30, r24
    4cb4:	e4 57       	subi	r30, 0x74	; 116
    4cb6:	fe 4f       	sbci	r31, 0xFE	; 254
    4cb8:	d4 91       	lpm	r29, Z

#if FLASHEND > 0x1fff
  cap.esr = 0;				// set ESR of capacitor to zero
    4cba:	10 92 80 01 	sts	0x0180, r1	; 0x800180 <cap+0xd>
    4cbe:	10 92 7f 01 	sts	0x017F, r1	; 0x80017f <cap+0xc>
#endif
  cap.cval = 0;				// set capacity value to zero
    4cc2:	10 92 73 01 	sts	0x0173, r1	; 0x800173 <cap>
    4cc6:	10 92 74 01 	sts	0x0174, r1	; 0x800174 <cap+0x1>
    4cca:	10 92 75 01 	sts	0x0175, r1	; 0x800175 <cap+0x2>
    4cce:	10 92 76 01 	sts	0x0176, r1	; 0x800176 <cap+0x3>
  cap.cpre = -9;			//default unit is nF
    4cd2:	87 ef       	ldi	r24, 0xF7	; 247
    4cd4:	80 93 85 01 	sts	0x0185, r24	; 0x800185 <cap+0x12>
  EntladePins();			// discharge capacitor
    4cd8:	0e 94 04 15 	call	0x2a08	; 0x2a08 <EntladePins>
  ADC_PORT = TXD_VAL;			// switch ADC-Port to GND
    4cdc:	88 e0       	ldi	r24, 0x08	; 8
    4cde:	88 b9       	out	0x08, r24	; 8
// The polarity of residual voltage of the capacitor depends on the measurement
// history.   Because the ADC can not measure a negative Voltage,
// the LowPin voltage is shifted to 139mV with the R_L resistor.
// The voltage of the capacitor is build as difference between HighPin and LowPin voltage.
  ADC_DDR = LoADC;			// switch Low-Pin to output (GND)
    4ce0:	f7 b8       	out	0x07, r15	; 7
  R_DDR = LoPinR_L;			// switch R_L Port of LoPin to VCC
    4ce2:	d4 b9       	out	0x04, r29	; 4
  R_PORT = LoPinR_L;			// switch R_L Port of LoPin to VCC
    4ce4:	d5 b9       	out	0x05, r29	; 5
  residual_voltage = ReadADC(HighPin) - ReadADC(LowPin);	// capacitor voltage before any load 
    4ce6:	81 2f       	mov	r24, r17
    4ce8:	0e 94 7f 05 	call	0xafe	; 0xafe <ReadADC>
    4cec:	7c 01       	movw	r14, r24
    4cee:	80 2f       	mov	r24, r16
    4cf0:	0e 94 7f 05 	call	0xafe	; 0xafe <ReadADC>
    4cf4:	e8 1a       	sub	r14, r24
    4cf6:	f9 0a       	sbc	r15, r25
  R_DDR = 0;				// switch all R_L Port to input
    4cf8:	14 b8       	out	0x04, r1	; 4
  cap_voltage1 = 0;			// preset to prevent compiler warning
  
  ovcnt16 = 0;
    4cfa:	10 92 52 01 	sts	0x0152, r1	; 0x800152 <ovcnt16+0x1>
    4cfe:	10 92 51 01 	sts	0x0151, r1	; 0x800151 <ovcnt16>
  ADC_DDR = LoADC;			// switch Low-Pin to output (GND)
  R_DDR = LoPinR_L;			// switch R_L Port of LoPin to VCC
  R_PORT = LoPinR_L;			// switch R_L Port of LoPin to VCC
  residual_voltage = ReadADC(HighPin) - ReadADC(LowPin);	// capacitor voltage before any load 
  R_DDR = 0;				// switch all R_L Port to input
  cap_voltage1 = 0;			// preset to prevent compiler warning
    4d02:	20 e0       	ldi	r18, 0x00	; 0
    4d04:	30 e0       	ldi	r19, 0x00	; 0
  ovcnt16 = 0;
#define MAX_LOAD_TIME 12500
#define MIN_VOLTAGE 300
  while (ovcnt16 < MAX_LOAD_TIME) {
     R_PORT = HiPinR_L;			//R_L to 1 (VCC) 
     if ((ovcnt16 == 0) || ((MIN_VOLTAGE-cap_voltage1) < (cap_voltage1*10/ovcnt16))) {
    4d06:	5c e2       	ldi	r21, 0x2C	; 44
    4d08:	c5 2e       	mov	r12, r21
    4d0a:	dd 24       	eor	r13, r13
    4d0c:	d3 94       	inc	r13
    4d0e:	da e0       	ldi	r29, 0x0A	; 10
        R_DDR = HiPinR_L;		//switch Pin to output, across R to VCC
        wait200us();			// wait exactly 0.2ms, do not sleep
        R_DDR = 0;			// switch back to input
        ovcnt16++;
     } else if ((ovcnt16 > 10) && ((MIN_VOLTAGE-cap_voltage1) > ((cap_voltage1*100)/ovcnt16))){
    4d10:	64 e6       	ldi	r22, 0x64	; 100
    4d12:	b6 2e       	mov	r11, r22
  cap_voltage1 = 0;			// preset to prevent compiler warning
  
  ovcnt16 = 0;
#define MAX_LOAD_TIME 12500
#define MIN_VOLTAGE 300
  while (ovcnt16 < MAX_LOAD_TIME) {
    4d14:	80 91 51 01 	lds	r24, 0x0151	; 0x800151 <ovcnt16>
    4d18:	90 91 52 01 	lds	r25, 0x0152	; 0x800152 <ovcnt16+0x1>
    4d1c:	84 3d       	cpi	r24, 0xD4	; 212
    4d1e:	90 43       	sbci	r25, 0x30	; 48
    4d20:	08 f0       	brcs	.+2      	; 0x4d24 <ReadBigCap+0x9c>
    4d22:	71 c0       	rjmp	.+226    	; 0x4e06 <ReadBigCap+0x17e>
     R_PORT = HiPinR_L;			//R_L to 1 (VCC) 
    4d24:	c5 b9       	out	0x05, r28	; 5
     if ((ovcnt16 == 0) || ((MIN_VOLTAGE-cap_voltage1) < (cap_voltage1*10/ovcnt16))) {
    4d26:	80 91 51 01 	lds	r24, 0x0151	; 0x800151 <ovcnt16>
    4d2a:	90 91 52 01 	lds	r25, 0x0152	; 0x800152 <ovcnt16+0x1>
    4d2e:	89 2b       	or	r24, r25
    4d30:	89 f0       	breq	.+34     	; 0x4d54 <ReadBigCap+0xcc>
    4d32:	f6 01       	movw	r30, r12
    4d34:	e2 1b       	sub	r30, r18
    4d36:	f3 0b       	sbc	r31, r19
    4d38:	60 91 51 01 	lds	r22, 0x0151	; 0x800151 <ovcnt16>
    4d3c:	70 91 52 01 	lds	r23, 0x0152	; 0x800152 <ovcnt16+0x1>
    4d40:	d2 9f       	mul	r29, r18
    4d42:	c0 01       	movw	r24, r0
    4d44:	d3 9f       	mul	r29, r19
    4d46:	90 0d       	add	r25, r0
    4d48:	11 24       	eor	r1, r1
    4d4a:	0e 94 b9 32 	call	0x6572	; 0x6572 <__udivmodhi4>
    4d4e:	e6 17       	cp	r30, r22
    4d50:	f7 07       	cpc	r31, r23
    4d52:	50 f4       	brcc	.+20     	; 0x4d68 <ReadBigCap+0xe0>
        R_DDR = HiPinR_L;		//switch Pin to output, across R to VCC
    4d54:	c4 b9       	out	0x04, r28	; 4
        wait200us();			// wait exactly 0.2ms, do not sleep
    4d56:	0e 94 39 05 	call	0xa72	; 0xa72 <wait200us>
        R_DDR = 0;			// switch back to input
    4d5a:	14 b8       	out	0x04, r1	; 4
        ovcnt16++;
    4d5c:	80 91 51 01 	lds	r24, 0x0151	; 0x800151 <ovcnt16>
    4d60:	90 91 52 01 	lds	r25, 0x0152	; 0x800152 <ovcnt16+0x1>
    4d64:	01 96       	adiw	r24, 0x01	; 1
    4d66:	28 c0       	rjmp	.+80     	; 0x4db8 <ReadBigCap+0x130>
     } else if ((ovcnt16 > 10) && ((MIN_VOLTAGE-cap_voltage1) > ((cap_voltage1*100)/ovcnt16))){
    4d68:	80 91 51 01 	lds	r24, 0x0151	; 0x800151 <ovcnt16>
    4d6c:	90 91 52 01 	lds	r25, 0x0152	; 0x800152 <ovcnt16+0x1>
    4d70:	0b 97       	sbiw	r24, 0x0b	; 11
    4d72:	c8 f0       	brcs	.+50     	; 0x4da6 <ReadBigCap+0x11e>
    4d74:	60 91 51 01 	lds	r22, 0x0151	; 0x800151 <ovcnt16>
    4d78:	70 91 52 01 	lds	r23, 0x0152	; 0x800152 <ovcnt16+0x1>
    4d7c:	b2 9e       	mul	r11, r18
    4d7e:	c0 01       	movw	r24, r0
    4d80:	b3 9e       	mul	r11, r19
    4d82:	90 0d       	add	r25, r0
    4d84:	11 24       	eor	r1, r1
    4d86:	0e 94 b9 32 	call	0x6572	; 0x6572 <__udivmodhi4>
    4d8a:	6e 17       	cp	r22, r30
    4d8c:	7f 07       	cpc	r23, r31
    4d8e:	58 f4       	brcc	.+22     	; 0x4da6 <ReadBigCap+0x11e>
        R_DDR = HiPinR_L;		//switch Pin to output, across R to VCC
    4d90:	c4 b9       	out	0x04, r28	; 4
        wait20ms();			// wait exactly 20ms, do not sleep
    4d92:	0e 94 2e 05 	call	0xa5c	; 0xa5c <wait20ms>
        R_DDR = 0;			// switch back to input
    4d96:	14 b8       	out	0x04, r1	; 4
        ovcnt16 += 100;
    4d98:	80 91 51 01 	lds	r24, 0x0151	; 0x800151 <ovcnt16>
    4d9c:	90 91 52 01 	lds	r25, 0x0152	; 0x800152 <ovcnt16+0x1>
    4da0:	8c 59       	subi	r24, 0x9C	; 156
    4da2:	9f 4f       	sbci	r25, 0xFF	; 255
    4da4:	09 c0       	rjmp	.+18     	; 0x4db8 <ReadBigCap+0x130>
     } else {
        R_DDR = HiPinR_L;		//switch Pin to output, across R to VCC
    4da6:	c4 b9       	out	0x04, r28	; 4
        wait2ms();			// wait exactly 2ms, do not sleep
    4da8:	0e 94 34 05 	call	0xa68	; 0xa68 <wait2ms>
        R_DDR = 0;			// switch back to input
    4dac:	14 b8       	out	0x04, r1	; 4
        ovcnt16 += 10;
    4dae:	80 91 51 01 	lds	r24, 0x0151	; 0x800151 <ovcnt16>
    4db2:	90 91 52 01 	lds	r25, 0x0152	; 0x800152 <ovcnt16+0x1>
    4db6:	0a 96       	adiw	r24, 0x0a	; 10
    4db8:	90 93 52 01 	sts	0x0152, r25	; 0x800152 <ovcnt16+0x1>
    4dbc:	80 93 51 01 	sts	0x0151, r24	; 0x800151 <ovcnt16>
     }
     R_PORT = 0;			// no Pull up
    4dc0:	15 b8       	out	0x05, r1	; 5
     wait50us();			//wait a little time
    4dc2:	0e 94 3b 05 	call	0xa76	; 0xa76 <wait50us>
     wdt_reset();
    4dc6:	a8 95       	wdr
     // read voltage without current, is already charged enough?
     cap_voltage1 = ReadADC(HighPin) - residual_voltage;	// voltage loaded to capacitor
    4dc8:	81 2f       	mov	r24, r17
    4dca:	0e 94 7f 05 	call	0xafe	; 0xafe <ReadADC>
    4dce:	9c 01       	movw	r18, r24
    4dd0:	2e 19       	sub	r18, r14
    4dd2:	3f 09       	sbc	r19, r15
     if ((ovcnt16 > (MAX_LOAD_TIME/8)) && (cap_voltage1 < (MIN_VOLTAGE/8))) {
    4dd4:	80 91 51 01 	lds	r24, 0x0151	; 0x800151 <ovcnt16>
    4dd8:	90 91 52 01 	lds	r25, 0x0152	; 0x800152 <ovcnt16+0x1>
    4ddc:	8b 31       	cpi	r24, 0x1B	; 27
    4dde:	96 40       	sbci	r25, 0x06	; 6
    4de0:	18 f0       	brcs	.+6      	; 0x4de8 <ReadBigCap+0x160>
    4de2:	25 32       	cpi	r18, 0x25	; 37
    4de4:	31 05       	cpc	r19, r1
    4de6:	7c f0       	brlt	.+30     	; 0x4e06 <ReadBigCap+0x17e>
        // 300mV can not be reached well-timed 
        break;		// don't try to load any more
     }
     // probably 50mF can be charged well-timed 
     if (cap_voltage1 > MIN_VOLTAGE) {
    4de8:	2d 32       	cpi	r18, 0x2D	; 45
    4dea:	81 e0       	ldi	r24, 0x01	; 1
    4dec:	38 07       	cpc	r19, r24
    4dee:	0c f4       	brge	.+2      	; 0x4df2 <ReadBigCap+0x16a>
    4df0:	91 cf       	rjmp	.-222    	; 0x4d14 <ReadBigCap+0x8c>
//  wdt_reset();
  if (cap_voltage1 <= MIN_VOLTAGE) {
     goto keinC;		// was never charged enough, >20mF or shorted
  }
  //voltage is rised properly and keeps the voltage enough
  if ((ovcnt16 == 1 ) && (cap_voltage1 > 1300)) {
    4df2:	80 91 51 01 	lds	r24, 0x0151	; 0x800151 <ovcnt16>
    4df6:	90 91 52 01 	lds	r25, 0x0152	; 0x800152 <ovcnt16+0x1>
    4dfa:	01 97       	sbiw	r24, 0x01	; 1
    4dfc:	71 f4       	brne	.+28     	; 0x4e1a <ReadBigCap+0x192>
    4dfe:	25 31       	cpi	r18, 0x15	; 21
    4e00:	85 e0       	ldi	r24, 0x05	; 5
    4e02:	38 07       	cpc	r19, r24
    4e04:	54 f0       	brlt	.+20     	; 0x4e1a <ReadBigCap+0x192>
keinC:
  // discharge capacitor again
//  EntladePins();		// discharge capacitors
  //ready
  // switch all ports to input
  ADC_DDR =  TXD_MSK;		// switch all ADC ports to input
    4e06:	88 e0       	ldi	r24, 0x08	; 8
    4e08:	87 b9       	out	0x07, r24	; 7
  ADC_PORT = TXD_VAL;		// switch all ADC outputs to GND, no pull up
    4e0a:	88 b9       	out	0x08, r24	; 8
  R_DDR = 0;			// switch all resistor ports to input
    4e0c:	14 b8       	out	0x04, r1	; 4
  R_PORT = 0; 			// switch all resistor outputs to GND, no pull up
    4e0e:	15 b8       	out	0x05, r1	; 5
  return;
 } // end ReadBigCap()
    4e10:	cd b7       	in	r28, 0x3d	; 61
    4e12:	de b7       	in	r29, 0x3e	; 62
    4e14:	e9 e0       	ldi	r30, 0x09	; 9
    4e16:	0c 94 ed 33 	jmp	0x67da	; 0x67da <__epilogue_restores__+0x12>
  //voltage is rised properly and keeps the voltage enough
  if ((ovcnt16 == 1 ) && (cap_voltage1 > 1300)) {
     goto keinC;		// Voltage of more than 1300mV is reached in one pulse, too fast loaded
  }
  // Capacity is more than about 50µF
  cap.cval_uncorrected.dw = ovcnt16*2;
    4e1a:	80 91 51 01 	lds	r24, 0x0151	; 0x800151 <ovcnt16>
    4e1e:	90 91 52 01 	lds	r25, 0x0152	; 0x800152 <ovcnt16+0x1>
    4e22:	88 0f       	add	r24, r24
    4e24:	99 1f       	adc	r25, r25
    4e26:	a0 e0       	ldi	r26, 0x00	; 0
    4e28:	b0 e0       	ldi	r27, 0x00	; 0
    4e2a:	80 93 7b 01 	sts	0x017B, r24	; 0x80017b <cap+0x8>
    4e2e:	90 93 7c 01 	sts	0x017C, r25	; 0x80017c <cap+0x9>
    4e32:	a0 93 7d 01 	sts	0x017D, r26	; 0x80017d <cap+0xa>
    4e36:	b0 93 7e 01 	sts	0x017E, r27	; 0x80017e <cap+0xb>
  // compute factor with load voltage + lost voltage during the voltage load time
//  cap.cval_uncorrected.dw *= GetRLmultip(cap_voltage1);	// get factor to convert time to capacity from table
  cap.cval_uncorrected.dw *= GetRLmultip(cap_voltage1 + cap_voltage1/40);	// get factor to convert time to capacity from table
    4e3a:	c9 01       	movw	r24, r18
    4e3c:	68 e2       	ldi	r22, 0x28	; 40
    4e3e:	70 e0       	ldi	r23, 0x00	; 0
    4e40:	0e 94 cd 32 	call	0x659a	; 0x659a <__divmodhi4>
    4e44:	cb 01       	movw	r24, r22
    4e46:	82 0f       	add	r24, r18
    4e48:	93 1f       	adc	r25, r19
    4e4a:	0e 94 e4 18 	call	0x31c8	; 0x31c8 <GetRLmultip>
    4e4e:	20 91 7b 01 	lds	r18, 0x017B	; 0x80017b <cap+0x8>
    4e52:	30 91 7c 01 	lds	r19, 0x017C	; 0x80017c <cap+0x9>
    4e56:	40 91 7d 01 	lds	r20, 0x017D	; 0x80017d <cap+0xa>
    4e5a:	50 91 7e 01 	lds	r21, 0x017E	; 0x80017e <cap+0xb>
    4e5e:	dc 01       	movw	r26, r24
    4e60:	0e 94 33 33 	call	0x6666	; 0x6666 <__muluhisi3>
    4e64:	60 93 7b 01 	sts	0x017B, r22	; 0x80017b <cap+0x8>
    4e68:	70 93 7c 01 	sts	0x017C, r23	; 0x80017c <cap+0x9>
    4e6c:	80 93 7d 01 	sts	0x017D, r24	; 0x80017d <cap+0xa>
    4e70:	90 93 7e 01 	sts	0x017E, r25	; 0x80017e <cap+0xb>
   cap.cval = cap.cval_uncorrected.dw;	// set result to uncorrected
    4e74:	60 93 73 01 	sts	0x0173, r22	; 0x800173 <cap>
    4e78:	70 93 74 01 	sts	0x0174, r23	; 0x800174 <cap+0x1>
    4e7c:	80 93 75 01 	sts	0x0175, r24	; 0x800175 <cap+0x2>
    4e80:	90 93 76 01 	sts	0x0176, r25	; 0x800176 <cap+0x3>
   Scale_C_with_vcc();
    4e84:	0e 94 94 15 	call	0x2b28	; 0x2b28 <Scale_C_with_vcc>
   // cap.cval for this type is at least 40000nF, so the last digit will be never shown
//   cap.cval -= ((cap.cval * C_H_KORR) / 1000);	// correct with C_H_KORR with 0.1% resolution, but prevent overflow
//   cap.cval /= 10;
#ifdef WITH_MENU
   cap.cval *= (1000 - (int8_t)eeprom_read_byte((uint8_t *)&big_cap_corr));	// correct with actual big_cap_korr at 0.1% resolution
    4e88:	c0 90 73 01 	lds	r12, 0x0173	; 0x800173 <cap>
    4e8c:	d0 90 74 01 	lds	r13, 0x0174	; 0x800174 <cap+0x1>
    4e90:	e0 90 75 01 	lds	r14, 0x0175	; 0x800175 <cap+0x2>
    4e94:	f0 90 76 01 	lds	r15, 0x0176	; 0x800176 <cap+0x3>
    4e98:	87 e0       	ldi	r24, 0x07	; 7
    4e9a:	93 e0       	ldi	r25, 0x03	; 3
    4e9c:	0e 94 5b 34 	call	0x68b6	; 0x68b6 <eeprom_read_byte>
#else
   cap.cval *= (1000 - C_H_KORR);	// correct with C_H_KORR at 0.1% resolution
#endif
   cap.cval /= 10000;
    4ea0:	a8 ee       	ldi	r26, 0xE8	; 232
    4ea2:	b3 e0       	ldi	r27, 0x03	; 3
    4ea4:	a8 1b       	sub	r26, r24
    4ea6:	b1 09       	sbc	r27, r1
    4ea8:	87 fd       	sbrc	r24, 7
    4eaa:	b3 95       	inc	r27
    4eac:	a7 01       	movw	r20, r14
    4eae:	96 01       	movw	r18, r12
    4eb0:	0e 94 3d 33 	call	0x667a	; 0x667a <__mulshisi3>
    4eb4:	20 e1       	ldi	r18, 0x10	; 16
    4eb6:	37 e2       	ldi	r19, 0x27	; 39
    4eb8:	40 e0       	ldi	r20, 0x00	; 0
    4eba:	50 e0       	ldi	r21, 0x00	; 0
    4ebc:	0e 94 e0 32 	call	0x65c0	; 0x65c0 <__udivmodsi4>
    4ec0:	20 93 73 01 	sts	0x0173, r18	; 0x800173 <cap>
    4ec4:	30 93 74 01 	sts	0x0174, r19	; 0x800174 <cap+0x1>
    4ec8:	40 93 75 01 	sts	0x0175, r20	; 0x800175 <cap+0x2>
    4ecc:	50 93 76 01 	sts	0x0176, r21	; 0x800176 <cap+0x3>

//==================================================================================

   PartFound = PART_CAPACITOR;	//capacitor is found
    4ed0:	88 e0       	ldi	r24, 0x08	; 8
    4ed2:	80 93 1a 01 	sts	0x011A, r24	; 0x80011a <PartFound>
      cap.cval_max = cap.cval;
    4ed6:	20 93 77 01 	sts	0x0177, r18	; 0x800177 <cap+0x4>
    4eda:	30 93 78 01 	sts	0x0178, r19	; 0x800178 <cap+0x5>
    4ede:	40 93 79 01 	sts	0x0179, r20	; 0x800179 <cap+0x6>
    4ee2:	50 93 7a 01 	sts	0x017A, r21	; 0x80017a <cap+0x7>
      cap.cpre_max = cap.cpre;
    4ee6:	80 91 85 01 	lds	r24, 0x0185	; 0x800185 <cap+0x12>
    4eea:	80 93 86 01 	sts	0x0186, r24	; 0x800186 <cap+0x13>
#if FLASHEND > 0x1fff
      cap.v_loss = 0;			// set lost voltage to zero
    4eee:	10 92 82 01 	sts	0x0182, r1	; 0x800182 <cap+0xf>
    4ef2:	10 92 81 01 	sts	0x0181, r1	; 0x800181 <cap+0xe>
#endif
      cap.ca = LowPin;		// save LowPin
    4ef6:	00 93 83 01 	sts	0x0183, r16	; 0x800183 <cap+0x10>
      cap.cb = HighPin;		// save HighPin
    4efa:	10 93 84 01 	sts	0x0184, r17	; 0x800184 <cap+0x11>
    4efe:	83 cf       	rjmp	.-250    	; 0x4e06 <ReadBigCap+0x17e>

00004f00 <ShowData>:
#include "Transistortester.h"
/*  ShowData shows the Software version number and */
/*  the calibration data at the 2-line or 4-line LCD */
#ifdef WITH_MENU
void ShowData(void) {
    4f00:	cf 92       	push	r12
    4f02:	df 92       	push	r13
    4f04:	ff 92       	push	r15
    4f06:	0f 93       	push	r16
    4f08:	1f 93       	push	r17
    4f0a:	cf 93       	push	r28
    4f0c:	df 93       	push	r29
#endif

#ifdef WITH_ROTARY_SWITCH
show_page_1:
#endif
  lcd_clear();
    4f0e:	0e 94 42 02 	call	0x484	; 0x484 <lcd_clear>
  lcd_MEM_string(VERSION_str);	// "Version x.xxk"
    4f12:	85 ef       	ldi	r24, 0xF5	; 245
    4f14:	90 e0       	ldi	r25, 0x00	; 0
    4f16:	0e 94 7c 02 	call	0x4f8	; 0x4f8 <lcd_fix_string>
  lcd_line2();
    4f1a:	0e 94 48 02 	call	0x490	; 0x490 <lcd_line2>
  lcd_MEM2_string(R0_str);	// "R0="
    4f1e:	81 eb       	ldi	r24, 0xB1	; 177
    4f20:	90 e0       	ldi	r25, 0x00	; 0
    4f22:	0e 94 7c 02 	call	0x4f8	; 0x4f8 <lcd_fix_string>
  DisplayValue16(eeprom_read_byte(&EE_ESR_ZEROtab[2]),-2,' ',3);
    4f26:	85 e0       	ldi	r24, 0x05	; 5
    4f28:	93 e0       	ldi	r25, 0x03	; 3
    4f2a:	0e 94 5b 34 	call	0x68b6	; 0x68b6 <eeprom_read_byte>
    4f2e:	23 e0       	ldi	r18, 0x03	; 3
    4f30:	40 e2       	ldi	r20, 0x20	; 32
    4f32:	6e ef       	ldi	r22, 0xFE	; 254
    4f34:	90 e0       	ldi	r25, 0x00	; 0
    4f36:	0e 94 ef 04 	call	0x9de	; 0x9de <DisplayValue16>
  DisplayValue16(eeprom_read_byte(&EE_ESR_ZEROtab[3]),-2,' ',3);
    4f3a:	86 e0       	ldi	r24, 0x06	; 6
    4f3c:	93 e0       	ldi	r25, 0x03	; 3
    4f3e:	0e 94 5b 34 	call	0x68b6	; 0x68b6 <eeprom_read_byte>
    4f42:	23 e0       	ldi	r18, 0x03	; 3
    4f44:	40 e2       	ldi	r20, 0x20	; 32
    4f46:	6e ef       	ldi	r22, 0xFE	; 254
    4f48:	90 e0       	ldi	r25, 0x00	; 0
    4f4a:	0e 94 ef 04 	call	0x9de	; 0x9de <DisplayValue16>
  DisplayValue16(eeprom_read_byte(&EE_ESR_ZEROtab[1]),-2,LCD_CHAR_OMEGA,3);
    4f4e:	84 e0       	ldi	r24, 0x04	; 4
    4f50:	93 e0       	ldi	r25, 0x03	; 3
    4f52:	0e 94 5b 34 	call	0x68b6	; 0x68b6 <eeprom_read_byte>
    4f56:	23 e0       	ldi	r18, 0x03	; 3
    4f58:	44 ef       	ldi	r20, 0xF4	; 244
    4f5a:	6e ef       	ldi	r22, 0xFE	; 254
    4f5c:	90 e0       	ldi	r25, 0x00	; 0
    4f5e:	0e 94 ef 04 	call	0x9de	; 0x9de <DisplayValue16>
#if (LCD_LINES > 3)
  lcd_line3();
#else
  wait_for_key_ms(MIDDLE_WAIT_TIME);
    4f62:	88 e9       	ldi	r24, 0x98	; 152
    4f64:	9a e3       	ldi	r25, 0x3A	; 58
    4f66:	0e 94 f1 05 	call	0xbe2	; 0xbe2 <wait_for_key_ms>
 #ifdef WITH_ROTARY_SWITCH
  if (rotary.incre > FAST_ROTATION) return;	// fast rotation ends the function
  if (rotary.count < 0) goto show_page_1;
show_page_2:
 #endif
  lcd_clear();
    4f6a:	0e 94 42 02 	call	0x484	; 0x484 <lcd_clear>
#endif
  /* output line 3 */
  lcd_MEM_string(RIHI_str); // "RiHi="
    4f6e:	8a ea       	ldi	r24, 0xAA	; 170
    4f70:	90 e0       	ldi	r25, 0x00	; 0
    4f72:	0e 94 7c 02 	call	0x4f8	; 0x4f8 <lcd_fix_string>
  DisplayValue16(RRpinPL,-1,LCD_CHAR_OMEGA,3);
    4f76:	23 e0       	ldi	r18, 0x03	; 3
    4f78:	44 ef       	ldi	r20, 0xF4	; 244
    4f7a:	6f ef       	ldi	r22, 0xFF	; 255
    4f7c:	80 91 31 01 	lds	r24, 0x0131	; 0x800131 <pin_rpl>
    4f80:	90 91 32 01 	lds	r25, 0x0132	; 0x800132 <pin_rpl+0x1>
    4f84:	0e 94 ef 04 	call	0x9de	; 0x9de <DisplayValue16>
#if (LCD_LINES > 3)
  lcd_line4();
#else
  lcd_line2();
    4f88:	0e 94 48 02 	call	0x490	; 0x490 <lcd_line2>
#endif
  /* output line 4 */
  lcd_MEM_string(RILO_str); // "RiLo="
    4f8c:	83 ea       	ldi	r24, 0xA3	; 163
    4f8e:	90 e0       	ldi	r25, 0x00	; 0
    4f90:	0e 94 7c 02 	call	0x4f8	; 0x4f8 <lcd_fix_string>
  DisplayValue16(RRpinMI,-1,LCD_CHAR_OMEGA,3);
    4f94:	23 e0       	ldi	r18, 0x03	; 3
    4f96:	44 ef       	ldi	r20, 0xF4	; 244
    4f98:	6f ef       	ldi	r22, 0xFF	; 255
    4f9a:	80 91 38 01 	lds	r24, 0x0138	; 0x800138 <pin_rmi>
    4f9e:	90 91 39 01 	lds	r25, 0x0139	; 0x800139 <pin_rmi+0x1>
    4fa2:	0e 94 ef 04 	call	0x9de	; 0x9de <DisplayValue16>

  wait_for_key_ms(MIDDLE_WAIT_TIME);
    4fa6:	88 e9       	ldi	r24, 0x98	; 152
    4fa8:	9a e3       	ldi	r25, 0x3A	; 58
    4faa:	0e 94 f1 05 	call	0xbe2	; 0xbe2 <wait_for_key_ms>
  if (rotary.count < -1) goto show_page_1;
  if (rotary.count < 0) goto show_page_2;
 #endif
show_page_3:
#endif
  lcd_clear();
    4fae:	0e 94 42 02 	call	0x484	; 0x484 <lcd_clear>
  lcd_MEM_string(C0_str);                       //output "C0 "
    4fb2:	8f e9       	ldi	r24, 0x9F	; 159
    4fb4:	90 e0       	ldi	r25, 0x00	; 0
    4fb6:	0e 94 7c 02 	call	0x4f8	; 0x4f8 <lcd_fix_string>
  u2lcd_space(eeprom_read_byte(&c_zero_tab[5]) -(COMP_SLEW1 / (CC0 + CABLE_CAP + COMP_SLEW2)));		//output cap0 1:3
    4fba:	89 e2       	ldi	r24, 0x29	; 41
    4fbc:	93 e0       	ldi	r25, 0x03	; 3
    4fbe:	0e 94 5b 34 	call	0x68b6	; 0x68b6 <eeprom_read_byte>
    4fc2:	90 e0       	ldi	r25, 0x00	; 0
    4fc4:	42 97       	sbiw	r24, 0x12	; 18
    4fc6:	0e 94 49 03 	call	0x692	; 0x692 <u2lcd_space>
  u2lcd_space(eeprom_read_byte(&c_zero_tab[6]) -(COMP_SLEW1 / (CC0 + CABLE_CAP + COMP_SLEW2)));		//output cap0 2:3
    4fca:	8a e2       	ldi	r24, 0x2A	; 42
    4fcc:	93 e0       	ldi	r25, 0x03	; 3
    4fce:	0e 94 5b 34 	call	0x68b6	; 0x68b6 <eeprom_read_byte>
    4fd2:	90 e0       	ldi	r25, 0x00	; 0
    4fd4:	42 97       	sbiw	r24, 0x12	; 18
    4fd6:	0e 94 49 03 	call	0x692	; 0x692 <u2lcd_space>
  DisplayValue16(eeprom_read_byte(&c_zero_tab[2]) -(COMP_SLEW1 / (CC0 + CABLE_CAP + COMP_SLEW2)) ,-12,'F',3);		//output cap0 1:2
    4fda:	86 e2       	ldi	r24, 0x26	; 38
    4fdc:	93 e0       	ldi	r25, 0x03	; 3
    4fde:	0e 94 5b 34 	call	0x68b6	; 0x68b6 <eeprom_read_byte>
    4fe2:	90 e0       	ldi	r25, 0x00	; 0
    4fe4:	23 e0       	ldi	r18, 0x03	; 3
    4fe6:	46 e4       	ldi	r20, 0x46	; 70
    4fe8:	64 ef       	ldi	r22, 0xF4	; 244
    4fea:	42 97       	sbiw	r24, 0x12	; 18
    4fec:	0e 94 ef 04 	call	0x9de	; 0x9de <DisplayValue16>
  lcd_line2();
    4ff0:	0e 94 48 02 	call	0x490	; 0x490 <lcd_line2>
  lcd_spaces(3);
    4ff4:	83 e0       	ldi	r24, 0x03	; 3
    4ff6:	0e 94 14 02 	call	0x428	; 0x428 <lcd_spaces>
  u2lcd_space(eeprom_read_byte(&c_zero_tab[1]) -(COMP_SLEW1 / (CC0 + CABLE_CAP + COMP_SLEW2)));		//output cap0 3:1
    4ffa:	85 e2       	ldi	r24, 0x25	; 37
    4ffc:	93 e0       	ldi	r25, 0x03	; 3
    4ffe:	0e 94 5b 34 	call	0x68b6	; 0x68b6 <eeprom_read_byte>
    5002:	90 e0       	ldi	r25, 0x00	; 0
    5004:	42 97       	sbiw	r24, 0x12	; 18
    5006:	0e 94 49 03 	call	0x692	; 0x692 <u2lcd_space>
  u2lcd_space(eeprom_read_byte(&c_zero_tab[4]) -(COMP_SLEW1 / (CC0 + CABLE_CAP + COMP_SLEW2)));		//output cap0 3:2
    500a:	88 e2       	ldi	r24, 0x28	; 40
    500c:	93 e0       	ldi	r25, 0x03	; 3
    500e:	0e 94 5b 34 	call	0x68b6	; 0x68b6 <eeprom_read_byte>
    5012:	90 e0       	ldi	r25, 0x00	; 0
    5014:	42 97       	sbiw	r24, 0x12	; 18
    5016:	0e 94 49 03 	call	0x692	; 0x692 <u2lcd_space>
  DisplayValue16(eeprom_read_byte(&c_zero_tab[0]) -(COMP_SLEW1 / (CC0 + CABLE_CAP + COMP_SLEW2)) ,-12,'F',3);		//output cap0 2:1
    501a:	84 e2       	ldi	r24, 0x24	; 36
    501c:	93 e0       	ldi	r25, 0x03	; 3
    501e:	0e 94 5b 34 	call	0x68b6	; 0x68b6 <eeprom_read_byte>
    5022:	90 e0       	ldi	r25, 0x00	; 0
    5024:	23 e0       	ldi	r18, 0x03	; 3
    5026:	46 e4       	ldi	r20, 0x46	; 70
    5028:	64 ef       	ldi	r22, 0xF4	; 244
    502a:	42 97       	sbiw	r24, 0x12	; 18
    502c:	0e 94 ef 04 	call	0x9de	; 0x9de <DisplayValue16>
#if (LCD_LINES > 3)
  lcd_line3();
#else
  wait_for_key_ms(MIDDLE_WAIT_TIME);
    5030:	88 e9       	ldi	r24, 0x98	; 152
    5032:	9a e3       	ldi	r25, 0x3A	; 58
    5034:	0e 94 f1 05 	call	0xbe2	; 0xbe2 <wait_for_key_ms>
  if (rotary.count < -2) goto show_page_1;
  if (rotary.count < -1) goto show_page_2;
  if (rotary.count < 0) goto show_page_3;
show_page_4:
 #endif
  lcd_clear();
    5038:	0e 94 42 02 	call	0x484	; 0x484 <lcd_clear>
#endif
  /* output line 7 */
  lcd_MEM2_string(REF_C_str);	// "REF_C="
    503c:	8d e1       	ldi	r24, 0x1D	; 29
    503e:	90 e0       	ldi	r25, 0x00	; 0
    5040:	0e 94 7c 02 	call	0x4f8	; 0x4f8 <lcd_fix_string>
  i2lcd((int16_t)eeprom_read_word((uint16_t *)(&ref_offset)));
    5044:	8b e2       	ldi	r24, 0x2B	; 43
    5046:	93 e0       	ldi	r25, 0x03	; 3
    5048:	0e 94 63 34 	call	0x68c6	; 0x68c6 <eeprom_read_word>
    504c:	0e 94 34 03 	call	0x668	; 0x668 <i2lcd>
#if (LCD_LINES > 3)
  lcd_line4();
#else
  lcd_line2();
    5050:	0e 94 48 02 	call	0x490	; 0x490 <lcd_line2>
#endif
  /* output line 8 */
  lcd_MEM2_string(REF_R_str);  // "REF_R="
    5054:	86 e1       	ldi	r24, 0x16	; 22
    5056:	90 e0       	ldi	r25, 0x00	; 0
    5058:	0e 94 7c 02 	call	0x4f8	; 0x4f8 <lcd_fix_string>
  i2lcd((int8_t)eeprom_read_byte((uint8_t *)(&RefDiff)));
    505c:	8d e2       	ldi	r24, 0x2D	; 45
    505e:	93 e0       	ldi	r25, 0x03	; 3
    5060:	0e 94 5b 34 	call	0x68b6	; 0x68b6 <eeprom_read_byte>
    5064:	08 2e       	mov	r0, r24
    5066:	00 0c       	add	r0, r0
    5068:	99 0b       	sbc	r25, r25
    506a:	0e 94 34 03 	call	0x668	; 0x668 <i2lcd>
#ifdef SamplingADC
#ifdef WITH_ROTARY_SWITCH
show_page_5:
#endif
  /* modified output from sampling_cap_calibrate */
  lcd_set_cursor((LCD_LINES-1)*PAGES_PER_LINE,0);      // set for initial clear screen
    506e:	60 e0       	ldi	r22, 0x00	; 0
    5070:	81 e0       	ldi	r24, 0x01	; 1
    5072:	0e 94 25 02 	call	0x44a	; 0x44a <lcd_set_cursor>
  for (ii=0;ii<=2;ii++)
    5076:	c0 e0       	ldi	r28, 0x00	; 0
    5078:	fc 2e       	mov	r15, r28
    507a:	ff 0c       	add	r15, r15
    507c:	fc 0e       	add	r15, r28
#include "Transistortester.h"
/*  ShowData shows the Software version number and */
/*  the calibration data at the 2-line or 4-line LCD */
#ifdef WITH_MENU
void ShowData(void) {
    507e:	d0 e0       	ldi	r29, 0x00	; 0
    5080:	fa 94       	dec	r15
#endif
  /* modified output from sampling_cap_calibrate */
  lcd_set_cursor((LCD_LINES-1)*PAGES_PER_LINE,0);      // set for initial clear screen
  for (ii=0;ii<=2;ii++)
    for (jj=0;jj<=2;jj++)
       if (ii != jj) {
    5082:	cd 17       	cp	r28, r29
    5084:	d9 f1       	breq	.+118    	; 0x50fc <ShowData+0x1fc>
    5086:	0f 2d       	mov	r16, r15
    5088:	0d 0f       	add	r16, r29
          kk = (ii * 3) + jj - 1;
          cc = eeprom_read_word((void *)(c_zero_tab2_lo+kk));
    508a:	10 e0       	ldi	r17, 0x00	; 0
    508c:	00 0f       	add	r16, r16
    508e:	11 1f       	adc	r17, r17
    5090:	c8 01       	movw	r24, r16
    5092:	8a 5e       	subi	r24, 0xEA	; 234
    5094:	9c 4f       	sbci	r25, 0xFC	; 252
    5096:	0e 94 63 34 	call	0x68c6	; 0x68c6 <eeprom_read_word>
    509a:	6c 01       	movw	r12, r24
          dd = eeprom_read_word((void *)(c_zero_tab2_hi+kk));
    509c:	c8 01       	movw	r24, r16
    509e:	88 5f       	subi	r24, 0xF8	; 248
    50a0:	9c 4f       	sbci	r25, 0xFC	; 252
    50a2:	0e 94 63 34 	call	0x68c6	; 0x68c6 <eeprom_read_word>
    50a6:	8c 01       	movw	r16, r24
          if (lcd_text_line > (LCD_LINES - 2)) {
    50a8:	80 91 a1 01 	lds	r24, 0x01A1	; 0x8001a1 <lcd_text_line>
    50ac:	88 23       	and	r24, r24
    50ae:	39 f0       	breq	.+14     	; 0x50be <ShowData+0x1be>
             wait_for_key_ms(MIDDLE_WAIT_TIME);
    50b0:	88 e9       	ldi	r24, 0x98	; 152
    50b2:	9a e3       	ldi	r25, 0x3A	; 58
    50b4:	0e 94 f1 05 	call	0xbe2	; 0xbe2 <wait_for_key_ms>
             if (rotary.count < -2) goto show_page_3;
             if (rotary.count < -1) goto show_page_4;
             if (rotary.count < 0) goto show_page_5;
  #endif
 #endif  /* WITH_ROTARY_SWITCH */
             lcd_clear();
    50b8:	0e 94 42 02 	call	0x484	; 0x484 <lcd_clear>
    50bc:	03 c0       	rjmp	.+6      	; 0x50c4 <ShowData+0x1c4>
          } else {  
	     lcd_next_line(0);
    50be:	80 e0       	ldi	r24, 0x00	; 0
    50c0:	0e 94 de 02 	call	0x5bc	; 0x5bc <lcd_next_line>
          }
          lcd_MEM_string(C0samp_str);	// "C0samp "
    50c4:	87 e9       	ldi	r24, 0x97	; 151
    50c6:	90 e0       	ldi	r25, 0x00	; 0
    50c8:	0e 94 7c 02 	call	0x4f8	; 0x4f8 <lcd_fix_string>
	  lcd_testpin(ii);
    50cc:	8c 2f       	mov	r24, r28
    50ce:	0e 94 0e 02 	call	0x41c	; 0x41c <lcd_testpin>
	  lcd_data(':');
    50d2:	8a e3       	ldi	r24, 0x3A	; 58
    50d4:	0e 94 d8 01 	call	0x3b0	; 0x3b0 <lcd_data>
          lcd_testpin(jj);
    50d8:	8d 2f       	mov	r24, r29
    50da:	0e 94 0e 02 	call	0x41c	; 0x41c <lcd_testpin>
	  lcd_next_line(0);
    50de:	80 e0       	ldi	r24, 0x00	; 0
    50e0:	0e 94 de 02 	call	0x5bc	; 0x5bc <lcd_next_line>
	  DisplayValue16(cc,-2,' ',3);
    50e4:	23 e0       	ldi	r18, 0x03	; 3
    50e6:	40 e2       	ldi	r20, 0x20	; 32
    50e8:	6e ef       	ldi	r22, 0xFE	; 254
    50ea:	c6 01       	movw	r24, r12
    50ec:	0e 94 ef 04 	call	0x9de	; 0x9de <DisplayValue16>
	  DisplayValue16(dd,-12-2,'F',3);
    50f0:	23 e0       	ldi	r18, 0x03	; 3
    50f2:	46 e4       	ldi	r20, 0x46	; 70
    50f4:	62 ef       	ldi	r22, 0xF2	; 242
    50f6:	c8 01       	movw	r24, r16
    50f8:	0e 94 ef 04 	call	0x9de	; 0x9de <DisplayValue16>
show_page_5:
#endif
  /* modified output from sampling_cap_calibrate */
  lcd_set_cursor((LCD_LINES-1)*PAGES_PER_LINE,0);      // set for initial clear screen
  for (ii=0;ii<=2;ii++)
    for (jj=0;jj<=2;jj++)
    50fc:	df 5f       	subi	r29, 0xFF	; 255
    50fe:	d3 30       	cpi	r29, 0x03	; 3
    5100:	09 f0       	breq	.+2      	; 0x5104 <ShowData+0x204>
    5102:	bf cf       	rjmp	.-130    	; 0x5082 <ShowData+0x182>
#ifdef WITH_ROTARY_SWITCH
show_page_5:
#endif
  /* modified output from sampling_cap_calibrate */
  lcd_set_cursor((LCD_LINES-1)*PAGES_PER_LINE,0);      // set for initial clear screen
  for (ii=0;ii<=2;ii++)
    5104:	cf 5f       	subi	r28, 0xFF	; 255
    5106:	c3 30       	cpi	r28, 0x03	; 3
    5108:	09 f0       	breq	.+2      	; 0x510c <ShowData+0x20c>
    510a:	b6 cf       	rjmp	.-148    	; 0x5078 <ShowData+0x178>
  if (rotary.count < 0) goto show_page_4;
  #endif
 #endif

#endif  /* SamplingADC */
  wait_for_key_ms(MIDDLE_WAIT_TIME);
    510c:	88 e9       	ldi	r24, 0x98	; 152
    510e:	9a e3       	ldi	r25, 0x3A	; 58
    5110:	0e 94 f1 05 	call	0xbe2	; 0xbe2 <wait_for_key_ms>
//#if  defined(WITH_GRAPHICS) && !defined(SamplingADC)
#ifdef SHOW_ICONS
 ShowIcons();		// show all Icons
#endif
}
    5114:	df 91       	pop	r29
    5116:	cf 91       	pop	r28
    5118:	1f 91       	pop	r17
    511a:	0f 91       	pop	r16
    511c:	ff 90       	pop	r15
    511e:	df 90       	pop	r13
    5120:	cf 90       	pop	r12
    5122:	08 95       	ret

00005124 <EE_check_init>:
#include <avr/eeprom.h>
#include <stdlib.h>
#include "Transistortester.h"

// check some EEprom values for correct values 
void EE_check_init(void) {
    5124:	08 95       	ret

00005126 <mylog>:



// calculate -32768*ln(1-y/32768)
static unsigned int mylog(unsigned int y)
{
    5126:	8f 92       	push	r8
    5128:	9f 92       	push	r9
    512a:	af 92       	push	r10
    512c:	bf 92       	push	r11
    512e:	cf 92       	push	r12
    5130:	df 92       	push	r13
    5132:	ef 92       	push	r14
    5134:	ff 92       	push	r15
    5136:	fc 01       	movw	r30, r24
*/

   // newer version: uses one more term for better accuracy (0.2% instead of 1% in the test mentioned above)
   // only 30 bytes longer than the 1% version
   unsigned short int bb;
   b=y;
    5138:	4c 01       	movw	r8, r24
    513a:	a1 2c       	mov	r10, r1
    513c:	b1 2c       	mov	r11, r1
   a = (b<<16);
    513e:	74 01       	movw	r14, r8
    5140:	dd 24       	eor	r13, r13
    5142:	cc 24       	eor	r12, r12
   a += b* (y+(y>>4)+(y>>8));
    5144:	4f 2f       	mov	r20, r31
    5146:	55 27       	eor	r21, r21
   b = b*y;
   bb = b>>16;
    5148:	9f 01       	movw	r18, r30
    514a:	df 01       	movw	r26, r30
    514c:	0e 94 1e 33 	call	0x663c	; 0x663c <__umulhisi3>
   bb>>=2;                                     // not integrated in previous line because then compiler does an 18-position shift of a 32-bit variable :-(
    5150:	9c 01       	movw	r18, r24
    5152:	36 95       	lsr	r19
    5154:	27 95       	ror	r18
    5156:	36 95       	lsr	r19
    5158:	27 95       	ror	r18
   unsigned short bb2=bb>>2;                   // without this intermediate variable, compiler does some of >> multiple times
    515a:	c9 01       	movw	r24, r18
    515c:	96 95       	lsr	r25
    515e:	87 95       	ror	r24
    5160:	96 95       	lsr	r25
    5162:	87 95       	ror	r24
   a += y * (unsigned long int) (bb - bb2);
   bb = (bb2>>1)*(y>>8);            
    5164:	bc 01       	movw	r22, r24
    5166:	76 95       	lsr	r23
    5168:	67 95       	ror	r22
    516a:	64 9f       	mul	r22, r20
    516c:	d0 01       	movw	r26, r0
    516e:	65 9f       	mul	r22, r21
    5170:	b0 0d       	add	r27, r0
    5172:	74 9f       	mul	r23, r20
    5174:	b0 0d       	add	r27, r0
    5176:	11 24       	eor	r1, r1
   a += y * (unsigned long int)(bb - (bb>>3));
   return a>>16;
    5178:	bf 01       	movw	r22, r30
    517a:	72 95       	swap	r23
    517c:	62 95       	swap	r22
    517e:	6f 70       	andi	r22, 0x0F	; 15
    5180:	67 27       	eor	r22, r23
    5182:	7f 70       	andi	r23, 0x0F	; 15
    5184:	67 27       	eor	r22, r23
    5186:	46 0f       	add	r20, r22
    5188:	57 1f       	adc	r21, r23
    518a:	e4 0f       	add	r30, r20
    518c:	f5 1f       	adc	r31, r21
    518e:	28 1b       	sub	r18, r24
    5190:	39 0b       	sbc	r19, r25
    5192:	a9 01       	movw	r20, r18
    5194:	60 e0       	ldi	r22, 0x00	; 0
    5196:	70 e0       	ldi	r23, 0x00	; 0
    5198:	4e 0f       	add	r20, r30
    519a:	5f 1f       	adc	r21, r31
    519c:	61 1d       	adc	r22, r1
    519e:	71 1d       	adc	r23, r1
    51a0:	cd 01       	movw	r24, r26
    51a2:	23 e0       	ldi	r18, 0x03	; 3
    51a4:	96 95       	lsr	r25
    51a6:	87 95       	ror	r24
    51a8:	2a 95       	dec	r18
    51aa:	e1 f7       	brne	.-8      	; 0x51a4 <mylog+0x7e>
    51ac:	a8 1b       	sub	r26, r24
    51ae:	b9 0b       	sbc	r27, r25
    51b0:	9a 01       	movw	r18, r20
    51b2:	ab 01       	movw	r20, r22
    51b4:	2a 0f       	add	r18, r26
    51b6:	3b 1f       	adc	r19, r27
    51b8:	41 1d       	adc	r20, r1
    51ba:	51 1d       	adc	r21, r1
    51bc:	c5 01       	movw	r24, r10
    51be:	b4 01       	movw	r22, r8
    51c0:	0e 94 9e 32 	call	0x653c	; 0x653c <__mulsi3>
    51c4:	6c 0d       	add	r22, r12
    51c6:	7d 1d       	adc	r23, r13
    51c8:	8e 1d       	adc	r24, r14
    51ca:	9f 1d       	adc	r25, r15
} /* end mylog */
    51cc:	ff 90       	pop	r15
    51ce:	ef 90       	pop	r14
    51d0:	df 90       	pop	r13
    51d2:	cf 90       	pop	r12
    51d4:	bf 90       	pop	r11
    51d6:	af 90       	pop	r10
    51d8:	9f 90       	pop	r9
    51da:	8f 90       	pop	r8
    51dc:	08 95       	ret

000051de <sampling_cap>:


int32_t sampling_cap(byte HighPin, byte LowPin, byte opts)
{
    51de:	a1 e0       	ldi	r26, 0x01	; 1
    51e0:	b2 e0       	ldi	r27, 0x02	; 2
    51e2:	e5 ef       	ldi	r30, 0xF5	; 245
    51e4:	f8 e2       	ldi	r31, 0x28	; 40
    51e6:	0c 94 c8 33 	jmp	0x6790	; 0x6790 <__prologue_saves__>
    51ea:	78 2e       	mov	r7, r24
    51ec:	16 2f       	mov	r17, r22
    51ee:	64 2e       	mov	r6, r20
  EntladePins();
    51f0:	0e 94 04 15 	call	0x2a08	; 0x2a08 <EntladePins>

  uint8_t HiPinR_L, HiPinR_H;
  uint8_t LoADC;
  uint16_t samp_opt;
  HiPinR_L = pgm_read_byte(&PinRLRHADCtab[HighPin]);	//R_L mask for HighPin R_L load
    51f4:	e7 2d       	mov	r30, r7
    51f6:	f0 e0       	ldi	r31, 0x00	; 0
    51f8:	e4 57       	subi	r30, 0x74	; 116
    51fa:	fe 4f       	sbci	r31, 0xFE	; 254
    51fc:	f4 90       	lpm	r15, Z
#if (((PIN_RL1 + 1) != PIN_RH1) || ((PIN_RL2 + 1) != PIN_RH2) || ((PIN_RL3 + 1) != PIN_RH3))
  HiPinR_H = pgm_read_byte((&PinRLRHADCtab[3])+HighPin);	//R_H mask for HighPin R_H load
  LoADC = pgm_read_byte((&PinRLRHADCtab[6])+LowPin) | TXD_MSK;
#else
  HiPinR_H = HiPinR_L + HiPinR_L;	//double for HighPin R_H load
    51fe:	bf 2c       	mov	r11, r15
    5200:	bb 0c       	add	r11, r11
  LoADC = pgm_read_byte((&PinRLRHADCtab[3])+LowPin) | TXD_MSK;
    5202:	e1 2f       	mov	r30, r17
    5204:	f0 e0       	ldi	r31, 0x00	; 0
    5206:	e1 57       	subi	r30, 0x71	; 113
    5208:	fe 4f       	sbci	r31, 0xFE	; 254
    520a:	e4 91       	lpm	r30, Z
    520c:	e8 60       	ori	r30, 0x08	; 8
#endif

   byte i=0;

   unsigned int uu[256];
   ADC_DDR = LoADC;			// switch Low-Pin to output (GND)
    520e:	e7 b9       	out	0x07, r30	; 7
   R_PORT = 0;			//R_L to 0 (GND) 
    5210:	15 b8       	out	0x05, r1	; 5
   R_DDR = HiPinR_L;			
    5212:	f4 b8       	out	0x04, r15	; 4
//   wait200us();			// let the last ADC cycle finish

   ADMUX = HighPin|(1<<REFS0);	// switch Multiplexer to Highpin and use 5V reference voltage
    5214:	87 2d       	mov	r24, r7
    5216:	80 64       	ori	r24, 0x40	; 64
    5218:	80 93 7c 00 	sts	0x007C, r24	; 0x80007c <__TEXT_REGION_LENGTH__+0x7e007c>
#ifdef NO_AREF_CAP
    wait100us(); /* time for voltage stabilization */
    521c:	0e 94 3a 05 	call	0xa74	; 0xa74 <wait100us>
#ifdef SamplingADC_CNT
   samp_opt = 1;		// sample distance 1
#else
   samp_opt = 0;
#endif
   byte d=( (opts&1) ? HiPinR_L : HiPinR_H );
    5220:	26 2d       	mov	r18, r6
    5222:	21 70       	andi	r18, 0x01	; 1
    5224:	cf 5f       	subi	r28, 0xFF	; 255
    5226:	dd 4f       	sbci	r29, 0xFD	; 253
    5228:	28 83       	st	Y, r18
    522a:	c1 50       	subi	r28, 0x01	; 1
    522c:	d2 40       	sbci	r29, 0x02	; 2
    522e:	60 fc       	sbrc	r6, 0
    5230:	02 c0       	rjmp	.+4      	; 0x5236 <sampling_cap+0x58>
    5232:	ab 2c       	mov	r10, r11
    5234:	01 c0       	rjmp	.+2      	; 0x5238 <sampling_cap+0x5a>
    5236:	af 2c       	mov	r10, r15
    5238:	f0 e2       	ldi	r31, 0x20	; 32
    523a:	df 2e       	mov	r13, r31
   #define sumx (unsigned long)((N2*(N2+1l)/2)-(N4*(N4-1l)/2)+(N3*(N3-1l)/2)-(N1*(N1-1l)/2))
   unsigned long sumxx=(unsigned long)((N2*(N2+1l)*(2*N2+1l)/6)-(N4*(N4-1l)*(2*N4-1l)/6)+(N3*(N3-1l)*(2*N3-1l)/6)-(N1*(N1-1l)*(2*N1-1l)/6));
#ifdef SamplingADC_CNT
   samp_opt = 1;		// sample distance 1
#else
   samp_opt = 0;
    523c:	80 e0       	ldi	r24, 0x00	; 0
    523e:	90 e0       	ldi	r25, 0x00	; 0
#endif
   byte d=( (opts&1) ? HiPinR_L : HiPinR_H );

   for (i=0;i<32;i++) {
      samplingADC(samp_opt, uu, N2+1, d, HiPinR_H, d, HiPinR_L);
    5240:	cf 2c       	mov	r12, r15
    5242:	ea 2c       	mov	r14, r10
    5244:	0b 2d       	mov	r16, r11
    5246:	2a 2d       	mov	r18, r10
    5248:	47 ee       	ldi	r20, 0xE7	; 231
    524a:	be 01       	movw	r22, r28
    524c:	6f 5f       	subi	r22, 0xFF	; 255
    524e:	7f 4f       	sbci	r23, 0xFF	; 255
    5250:	0e 94 34 00 	call	0x68	; 0x68 <samplingADC>
    5254:	da 94       	dec	r13
      samp_opt |= samplingADC_cumul;
    5256:	80 e4       	ldi	r24, 0x40	; 64
    5258:	90 e0       	ldi	r25, 0x00	; 0
#else
   samp_opt = 0;
#endif
   byte d=( (opts&1) ? HiPinR_L : HiPinR_H );

   for (i=0;i<32;i++) {
    525a:	d1 10       	cpse	r13, r1
    525c:	f1 cf       	rjmp	.-30     	; 0x5240 <sampling_cap+0x62>
      samplingADC(samp_opt, uu, N2+1, d, HiPinR_H, d, HiPinR_L);
      samp_opt |= samplingADC_cumul;
   }
//   uart_newline(); for (i=0;i<N2;i++) { myuart_putc('a'); myuart_putc(' '); uart_int(uu[i]); uart_newline(); wdt_reset(); }

   R_DDR = 0;			
    525e:	14 b8       	out	0x04, r1	; 4
#endif

   // we use the least-squares algorithm to find the slope
   // cf. e.g. https://en.wikipedia.org/wiki/Ordinary_least_squares
   unsigned long sumy, sumxy;
   sumy=sumxy=0;
    5260:	c1 2c       	mov	r12, r1
    5262:	d1 2c       	mov	r13, r1
    5264:	76 01       	movw	r14, r12
    5266:	21 2c       	mov	r2, r1
    5268:	31 2c       	mov	r3, r1
    526a:	21 01       	movw	r4, r2
   for (i=N1;i<=N2;i++) {	/* 70-230 @16MHz, 35-115 @8MHz */
    526c:	06 e4       	ldi	r16, 0x46	; 70
      if (i==N3) i=N4;		// skip from N3 to (N4-1), 182-192 @16MHz, 200-200 @8MHz
      unsigned int z;
      if (opts&1) z=mylog(32768-uu[i]);
    526e:	81 2c       	mov	r8, r1
    5270:	e0 e8       	ldi	r30, 0x80	; 128
    5272:	9e 2e       	mov	r9, r30
    5274:	a0 2e       	mov	r10, r16
    5276:	b1 2c       	mov	r11, r1
    5278:	cf 5f       	subi	r28, 0xFF	; 255
    527a:	dd 4f       	sbci	r29, 0xFD	; 253
    527c:	38 81       	ld	r19, Y
    527e:	c1 50       	subi	r28, 0x01	; 1
    5280:	d2 40       	sbci	r29, 0x02	; 2
    5282:	f5 01       	movw	r30, r10
    5284:	ee 0f       	add	r30, r30
    5286:	ff 1f       	adc	r31, r31
    5288:	41 e0       	ldi	r20, 0x01	; 1
    528a:	50 e0       	ldi	r21, 0x00	; 0
    528c:	4c 0f       	add	r20, r28
    528e:	5d 1f       	adc	r21, r29
    5290:	e4 0f       	add	r30, r20
    5292:	f5 1f       	adc	r31, r21
    5294:	80 81       	ld	r24, Z
    5296:	91 81       	ldd	r25, Z+1	; 0x01
    5298:	33 23       	and	r19, r19
    529a:	21 f0       	breq	.+8      	; 0x52a4 <sampling_cap+0xc6>
    529c:	94 01       	movw	r18, r8
    529e:	28 1b       	sub	r18, r24
    52a0:	39 0b       	sbc	r19, r25
    52a2:	c9 01       	movw	r24, r18
      else z=mylog(uu[i]);
    52a4:	40 df       	rcall	.-384    	; 0x5126 <mylog>
      sumy+=z;
    52a6:	28 0e       	add	r2, r24
    52a8:	39 1e       	adc	r3, r25
    52aa:	41 1c       	adc	r4, r1
    52ac:	51 1c       	adc	r5, r1
      sumxy+=(unsigned long int)i*z;
    52ae:	95 01       	movw	r18, r10
    52b0:	dc 01       	movw	r26, r24
    52b2:	0e 94 1e 33 	call	0x663c	; 0x663c <__umulhisi3>
    52b6:	c6 0e       	add	r12, r22
    52b8:	d7 1e       	adc	r13, r23
    52ba:	e8 1e       	adc	r14, r24
    52bc:	f9 1e       	adc	r15, r25

   // we use the least-squares algorithm to find the slope
   // cf. e.g. https://en.wikipedia.org/wiki/Ordinary_least_squares
   unsigned long sumy, sumxy;
   sumy=sumxy=0;
   for (i=N1;i<=N2;i++) {	/* 70-230 @16MHz, 35-115 @8MHz */
    52be:	0f 5f       	subi	r16, 0xFF	; 255
    52c0:	07 3e       	cpi	r16, 0xE7	; 231
    52c2:	21 f0       	breq	.+8      	; 0x52cc <sampling_cap+0xee>
      if (i==N3) i=N4;		// skip from N3 to (N4-1), 182-192 @16MHz, 200-200 @8MHz
    52c4:	06 3b       	cpi	r16, 0xB6	; 182
    52c6:	b1 f6       	brne	.-84     	; 0x5274 <sampling_cap+0x96>
    52c8:	01 ec       	ldi	r16, 0xC1	; 193
    52ca:	d4 cf       	rjmp	.-88     	; 0x5274 <sampling_cap+0x96>
   // sumy ~ 2^22
   // sumxy ~ 2^30
   // at 8 MHz, we sum roughly half as many sample samples, and x will get only half as big, so sumxy will be about 1/4, and sumxx 1/8
   sumxx -= sumx*sumx/N;
   // now sumxx ~ <2^19 , as it turns out; note that sumxx is a constant, depending only on N and N1..4; it was a variable previously, hence this code
   sumxy -= sumx*(sumy/N);
    52cc:	c2 01       	movw	r24, r4
    52ce:	b1 01       	movw	r22, r2
    52d0:	26 e9       	ldi	r18, 0x96	; 150
    52d2:	30 e0       	ldi	r19, 0x00	; 0
    52d4:	40 e0       	ldi	r20, 0x00	; 0
    52d6:	50 e0       	ldi	r21, 0x00	; 0
    52d8:	0e 94 e0 32 	call	0x65c0	; 0x65c0 <__udivmodsi4>
    52dc:	ad e4       	ldi	r26, 0x4D	; 77
    52de:	b6 e5       	ldi	r27, 0x56	; 86
    52e0:	0e 94 33 33 	call	0x6666	; 0x6666 <__muluhisi3>
    52e4:	a7 01       	movw	r20, r14
    52e6:	96 01       	movw	r18, r12
    52e8:	26 1b       	sub	r18, r22
    52ea:	37 0b       	sbc	r19, r23
    52ec:	48 0b       	sbc	r20, r24
    52ee:	59 0b       	sbc	r21, r25
#elif MHZ_CPU==8
   sumxx>>=0;
   sumxy>>=4;
#endif
   unsigned long int c3;
   c3 = sumxx*((uint32_t)(((20480000000./R_H_VAL)+4)/8))/sumxy;  // units of 0.01 pF
    52f0:	66 e0       	ldi	r22, 0x06	; 6
    52f2:	56 95       	lsr	r21
    52f4:	47 95       	ror	r20
    52f6:	37 95       	ror	r19
    52f8:	27 95       	ror	r18
    52fa:	6a 95       	dec	r22
    52fc:	d1 f7       	brne	.-12     	; 0x52f2 <sampling_cap+0x114>
    52fe:	6c ea       	ldi	r22, 0xAC	; 172
    5300:	77 e4       	ldi	r23, 0x47	; 71
    5302:	85 e8       	ldi	r24, 0x85	; 133
    5304:	96 e8       	ldi	r25, 0x86	; 134
    5306:	0e 94 e0 32 	call	0x65c0	; 0x65c0 <__udivmodsi4>
    530a:	69 01       	movw	r12, r18
    530c:	7a 01       	movw	r14, r20
   // the /8 is to make the (...) factor (about 435745) fit in 16 bits
   // note that the /8 is compensated for by the different bitshifts of sumxx and sumxy, and the +4 rounds this number properly
   if (!(opts&2)) 
    530e:	61 fc       	sbrc	r6, 1
    5310:	1b c0       	rjmp	.+54     	; 0x5348 <sampling_cap+0x16a>
   {
      byte k = ((HighPin - TP_MIN)*3) + LowPin - TP_MIN -1;
    5312:	87 2d       	mov	r24, r7
    5314:	88 0f       	add	r24, r24
    5316:	78 0e       	add	r7, r24
    5318:	11 50       	subi	r17, 0x01	; 1
    531a:	71 0e       	add	r7, r17
    531c:	87 2d       	mov	r24, r7
    531e:	90 e0       	ldi	r25, 0x00	; 0
      if (opts&1) c3-= eeprom_read_word(c_zero_tab2_hi+k);
    5320:	cf 5f       	subi	r28, 0xFF	; 255
    5322:	dd 4f       	sbci	r29, 0xFD	; 253
    5324:	38 81       	ld	r19, Y
    5326:	c1 50       	subi	r28, 0x01	; 1
    5328:	d2 40       	sbci	r29, 0x02	; 2
    532a:	88 0f       	add	r24, r24
    532c:	99 1f       	adc	r25, r25
    532e:	33 23       	and	r19, r19
    5330:	19 f0       	breq	.+6      	; 0x5338 <sampling_cap+0x15a>
    5332:	88 5f       	subi	r24, 0xF8	; 248
    5334:	9c 4f       	sbci	r25, 0xFC	; 252
    5336:	02 c0       	rjmp	.+4      	; 0x533c <sampling_cap+0x15e>
      else c3-= eeprom_read_word(c_zero_tab2_lo+k);
    5338:	8a 5e       	subi	r24, 0xEA	; 234
    533a:	9c 4f       	sbci	r25, 0xFC	; 252
    533c:	0e 94 63 34 	call	0x68c6	; 0x68c6 <eeprom_read_word>
    5340:	c8 1a       	sub	r12, r24
    5342:	d9 0a       	sbc	r13, r25
    5344:	e1 08       	sbc	r14, r1
    5346:	f1 08       	sbc	r15, r1
   }
   return c3;
}  /* end sampling_cap */
    5348:	c7 01       	movw	r24, r14
    534a:	b6 01       	movw	r22, r12
    534c:	cf 5f       	subi	r28, 0xFF	; 255
    534e:	dd 4f       	sbci	r29, 0xFD	; 253
    5350:	e2 e1       	ldi	r30, 0x12	; 18
    5352:	0c 94 e4 33 	jmp	0x67c8	; 0x67c8 <__epilogue_restores__>

00005356 <sampling_cap_calibrate>:




void sampling_cap_calibrate()
{
    5356:	4f 92       	push	r4
    5358:	5f 92       	push	r5
    535a:	6f 92       	push	r6
    535c:	7f 92       	push	r7
    535e:	8f 92       	push	r8
    5360:	9f 92       	push	r9
    5362:	af 92       	push	r10
    5364:	bf 92       	push	r11
    5366:	ff 92       	push	r15
    5368:	0f 93       	push	r16
    536a:	1f 93       	push	r17
    536c:	cf 93       	push	r28
    536e:	df 93       	push	r29
   // measure capacitance of all combinations without anything connected
   byte i,j;
   for (i=0;i<=2;i++)
    5370:	c0 e0       	ldi	r28, 0x00	; 0
    5372:	fc 2e       	mov	r15, r28
    5374:	ff 0c       	add	r15, r15
    5376:	fc 0e       	add	r15, r28




void sampling_cap_calibrate()
{
    5378:	d0 e0       	ldi	r29, 0x00	; 0
    537a:	fa 94       	dec	r15
   // measure capacitance of all combinations without anything connected
   byte i,j;
   for (i=0;i<=2;i++)
      for (j=0;j<=2;j++)
         if (i!=j) {
    537c:	cd 17       	cp	r28, r29
    537e:	09 f4       	brne	.+2      	; 0x5382 <sampling_cap_calibrate+0x2c>
    5380:	40 c0       	rjmp	.+128    	; 0x5402 <sampling_cap_calibrate+0xac>
            unsigned int c;
            c=sampling_cap(i,j,2);
    5382:	42 e0       	ldi	r20, 0x02	; 2
    5384:	6d 2f       	mov	r22, r29
    5386:	8c 2f       	mov	r24, r28
    5388:	2a df       	rcall	.-428    	; 0x51de <sampling_cap>
    538a:	2b 01       	movw	r4, r22
    538c:	3c 01       	movw	r6, r24
#ifdef PULLUP_DISABLE
            unsigned int d;
            d=sampling_cap(i,j,3);
    538e:	43 e0       	ldi	r20, 0x03	; 3
    5390:	6d 2f       	mov	r22, r29
    5392:	8c 2f       	mov	r24, r28
    5394:	24 df       	rcall	.-440    	; 0x51de <sampling_cap>
    5396:	4b 01       	movw	r8, r22
    5398:	5c 01       	movw	r10, r24
#endif
            lcd_clear();
    539a:	0e 94 42 02 	call	0x484	; 0x484 <lcd_clear>
            lcd_MEM2_string(C0samp_str);			//output "C0samp "
    539e:	87 e9       	ldi	r24, 0x97	; 151
    53a0:	90 e0       	ldi	r25, 0x00	; 0
    53a2:	0e 94 7c 02 	call	0x4f8	; 0x4f8 <lcd_fix_string>
            lcd_space();				// lcd_data(' ');
    53a6:	0e 94 11 02 	call	0x422	; 0x422 <lcd_space>
            lcd_testpin(i);
    53aa:	8c 2f       	mov	r24, r28
    53ac:	0e 94 0e 02 	call	0x41c	; 0x41c <lcd_testpin>
            lcd_data(':');
    53b0:	8a e3       	ldi	r24, 0x3A	; 58
    53b2:	0e 94 d8 01 	call	0x3b0	; 0x3b0 <lcd_data>
            lcd_testpin(j);
    53b6:	8d 2f       	mov	r24, r29
    53b8:	0e 94 0e 02 	call	0x41c	; 0x41c <lcd_testpin>
            lcd_space();				//lcd_data(' ');
    53bc:	0e 94 11 02 	call	0x422	; 0x422 <lcd_space>
            lcd_line2();
    53c0:	0e 94 48 02 	call	0x490	; 0x490 <lcd_line2>
            byte k=3*i+j-1;
#ifdef PULLUP_DISABLE
            DisplayValue16(c,-2,' ',4);
    53c4:	24 e0       	ldi	r18, 0x04	; 4
    53c6:	40 e2       	ldi	r20, 0x20	; 32
    53c8:	6e ef       	ldi	r22, 0xFE	; 254
    53ca:	c2 01       	movw	r24, r4
    53cc:	0e 94 ef 04 	call	0x9de	; 0x9de <DisplayValue16>
            DisplayValue16(d,-14,'F',4);
    53d0:	24 e0       	ldi	r18, 0x04	; 4
    53d2:	46 e4       	ldi	r20, 0x46	; 70
    53d4:	62 ef       	ldi	r22, 0xF2	; 242
    53d6:	c4 01       	movw	r24, r8
    53d8:	0e 94 ef 04 	call	0x9de	; 0x9de <DisplayValue16>
            eeprom_write_word((void*)(c_zero_tab2_lo+k),c); /* C0 from 0 to 1 */
    53dc:	0f 2d       	mov	r16, r15
    53de:	0d 0f       	add	r16, r29
    53e0:	10 e0       	ldi	r17, 0x00	; 0
    53e2:	00 0f       	add	r16, r16
    53e4:	11 1f       	adc	r17, r17
    53e6:	b2 01       	movw	r22, r4
    53e8:	c8 01       	movw	r24, r16
    53ea:	8a 5e       	subi	r24, 0xEA	; 234
    53ec:	9c 4f       	sbci	r25, 0xFC	; 252
    53ee:	0e 94 76 34 	call	0x68ec	; 0x68ec <eeprom_write_word>
            eeprom_write_word((void*)(c_zero_tab2_hi+k),d); /* C0 from 1 to 0 */
    53f2:	b4 01       	movw	r22, r8
    53f4:	c8 01       	movw	r24, r16
    53f6:	88 5f       	subi	r24, 0xF8	; 248
    53f8:	9c 4f       	sbci	r25, 0xFC	; 252
    53fa:	0e 94 76 34 	call	0x68ec	; 0x68ec <eeprom_write_word>
#else
            DisplayValue16(c,-14,' ',4);
            eeprom_write_word((void*)(c_zero_tab2_lo+k),c); /* C0 from 0 to 1 */
            eeprom_write_word((void*)(c_zero_tab2_hi+k),c); /* set 1to0 same as 0to1 */
#endif
            lcd_clear_line();
    53fe:	0e 94 d8 02 	call	0x5b0	; 0x5b0 <lcd_clear_line>
void sampling_cap_calibrate()
{
   // measure capacitance of all combinations without anything connected
   byte i,j;
   for (i=0;i<=2;i++)
      for (j=0;j<=2;j++)
    5402:	df 5f       	subi	r29, 0xFF	; 255
    5404:	d3 30       	cpi	r29, 0x03	; 3
    5406:	09 f0       	breq	.+2      	; 0x540a <sampling_cap_calibrate+0xb4>
    5408:	b9 cf       	rjmp	.-142    	; 0x537c <sampling_cap_calibrate+0x26>

void sampling_cap_calibrate()
{
   // measure capacitance of all combinations without anything connected
   byte i,j;
   for (i=0;i<=2;i++)
    540a:	cf 5f       	subi	r28, 0xFF	; 255
    540c:	c3 30       	cpi	r28, 0x03	; 3
    540e:	09 f0       	breq	.+2      	; 0x5412 <sampling_cap_calibrate+0xbc>
    5410:	b0 cf       	rjmp	.-160    	; 0x5372 <sampling_cap_calibrate+0x1c>
            eeprom_write_word((void*)(c_zero_tab2_hi+k),c); /* set 1to0 same as 0to1 */
#endif
            lcd_clear_line();
            lcd_refresh();
         }
   lcd_line1();
    5412:	0e 94 3a 02 	call	0x474	; 0x474 <lcd_line1>
   lcd_MEM_string(OK_str);	// "OK"
    5416:	87 e9       	ldi	r24, 0x97	; 151
    5418:	91 e0       	ldi	r25, 0x01	; 1
    541a:	0e 94 7c 02 	call	0x4f8	; 0x4f8 <lcd_fix_string>
   lcd_clear_line();
    541e:	0e 94 d8 02 	call	0x5b0	; 0x5b0 <lcd_clear_line>
   lcd_refresh();
   wait_about200ms();
    5422:	88 e2       	ldi	r24, 0x28	; 40
    5424:	0e 94 47 05 	call	0xa8e	; 0xa8e <sleep_5ms>
} /* end sampling_cap_calibrate */
    5428:	df 91       	pop	r29
    542a:	cf 91       	pop	r28
    542c:	1f 91       	pop	r17
    542e:	0f 91       	pop	r16
    5430:	ff 90       	pop	r15
    5432:	bf 90       	pop	r11
    5434:	af 90       	pop	r10
    5436:	9f 90       	pop	r9
    5438:	8f 90       	pop	r8
    543a:	7f 90       	pop	r7
    543c:	6f 90       	pop	r6
    543e:	5f 90       	pop	r5
    5440:	4f 90       	pop	r4
    5442:	08 95       	ret

00005444 <peaksearch>:

static unsigned int peaksearch(unsigned int uu[], unsigned int *qptr)
// searches uu[256] for peaks, using averaging over dist samples 
// writes measured Q *10 into *qptr if non-NULL
// returns measured period, with 6 bits of fraction, or 256*64 if no resonance found
{  
    5444:	a2 e1       	ldi	r26, 0x12	; 18
    5446:	b0 e0       	ldi	r27, 0x00	; 0
    5448:	e8 e2       	ldi	r30, 0x28	; 40
    544a:	fa e2       	ldi	r31, 0x2A	; 42
    544c:	0c 94 c8 33 	jmp	0x6790	; 0x6790 <__prologue_saves__>
    5450:	2c 01       	movw	r4, r24
    5452:	7c 83       	std	Y+4, r23	; 0x04
    5454:	6b 83       	std	Y+3, r22	; 0x03
   unsigned int mean_per;		// average period; the (ipk>>2) provides for rounding
   unsigned int last_per;		// length of last period with 6 bits of fraction
   unsigned int sum_ab;
   unsigned int rr;
   
   dist = 1;		// begin peak search with dist=1
    5456:	dd 24       	eor	r13, r13
    5458:	d3 94       	inc	r13
 #define MinPK 1
   sawzero = 0;		// flag: did we allready encounter a growing signal?
#endif
   prevdelta=1;
   mean_per = 256<<6;	// set period illegal
   for (ii=0;ii<255-dist;ii++) 
    545a:	2d 2c       	mov	r2, r13
    545c:	31 2c       	mov	r3, r1

#if PeakSearchMethod == 1
         if (ipk != 0)
#endif
         {
            if (sum_ab < (3*dist)) break;  // stop if peak not significantly high
    545e:	83 e0       	ldi	r24, 0x03	; 3
    5460:	d8 9e       	mul	r13, r24
    5462:	a0 01       	movw	r20, r0
    5464:	11 24       	eor	r1, r1
    5466:	5c 87       	std	Y+12, r21	; 0x0c
    5468:	4b 87       	std	Y+11, r20	; 0x0b
    546a:	f1 01       	movw	r30, r2
    546c:	ee 0f       	add	r30, r30
    546e:	ff 1f       	adc	r31, r31
    5470:	ee 0f       	add	r30, r30
    5472:	ff 1f       	adc	r31, r31
    5474:	fe 87       	std	Y+14, r31	; 0x0e
    5476:	ed 87       	std	Y+13, r30	; 0x0d
#else
 #define MinPK 1
   sawzero = 0;		// flag: did we allready encounter a growing signal?
#endif
   prevdelta=1;
   mean_per = 256<<6;	// set period illegal
    5478:	81 2c       	mov	r8, r1
    547a:	30 e4       	ldi	r19, 0x40	; 64
    547c:	93 2e       	mov	r9, r19
#if PeakSearchMethod == 1
 #define MinPK 2
   sawzero=1;                // flag: did we already encounter a zero?
#else
 #define MinPK 1
   sawzero = 0;		// flag: did we allready encounter a growing signal?
    547e:	50 e0       	ldi	r21, 0x00	; 0
   ipk=0;    // peak counter
   firstpeak_sum=0;      // height of first peak
   prevpeak_sum=0;       // height of previous peak
   sumpeak=0;        // sum of peaks
   firstpeak_x=0;     // time of first peak, with 6 bits of fraction
   prevpeak_x=0;      // time of previous peak, with 6 bits of fraction
    5480:	61 2c       	mov	r6, r1
    5482:	71 2c       	mov	r7, r1
   bb = 0;
   ipk=0;    // peak counter
   firstpeak_sum=0;      // height of first peak
   prevpeak_sum=0;       // height of previous peak
   sumpeak=0;        // sum of peaks
   firstpeak_x=0;     // time of first peak, with 6 bits of fraction
    5484:	18 86       	std	Y+8, r1	; 0x08
    5486:	1f 82       	std	Y+7, r1	; 0x07
   aa = 0;
   bb = 0;
   ipk=0;    // peak counter
   firstpeak_sum=0;      // height of first peak
   prevpeak_sum=0;       // height of previous peak
   sumpeak=0;        // sum of peaks
    5488:	a1 2c       	mov	r10, r1
    548a:	b1 2c       	mov	r11, r1
repeat:
   aa = 0;
   bb = 0;
   ipk=0;    // peak counter
   firstpeak_sum=0;      // height of first peak
   prevpeak_sum=0;       // height of previous peak
    548c:	1a 82       	std	Y+2, r1	; 0x02
    548e:	19 82       	std	Y+1, r1	; 0x01

repeat:
   aa = 0;
   bb = 0;
   ipk=0;    // peak counter
   firstpeak_sum=0;      // height of first peak
    5490:	1e 82       	std	Y+6, r1	; 0x06
    5492:	1d 82       	std	Y+5, r1	; 0x05
   dist = 1;		// begin peak search with dist=1

repeat:
   aa = 0;
   bb = 0;
   ipk=0;    // peak counter
    5494:	40 e0       	ldi	r20, 0x00	; 0
 #define MinPK 1
   sawzero = 0;		// flag: did we allready encounter a growing signal?
#endif
   prevdelta=1;
   mean_per = 256<<6;	// set period illegal
   for (ii=0;ii<255-dist;ii++) 
    5496:	c1 2c       	mov	r12, r1
   
   dist = 1;		// begin peak search with dist=1

repeat:
   aa = 0;
   bb = 0;
    5498:	e0 e0       	ldi	r30, 0x00	; 0
    549a:	f0 e0       	ldi	r31, 0x00	; 0
   unsigned int rr;
   
   dist = 1;		// begin peak search with dist=1

repeat:
   aa = 0;
    549c:	20 e0       	ldi	r18, 0x00	; 0
    549e:	30 e0       	ldi	r19, 0x00	; 0
   sawzero=1;                // flag: did we already encounter a zero?
#else
 #define MinPK 1
   sawzero = 0;		// flag: did we allready encounter a growing signal?
#endif
   prevdelta=1;
    54a0:	61 e0       	ldi	r22, 0x01	; 1
    54a2:	70 e0       	ldi	r23, 0x00	; 0
   mean_per = 256<<6;	// set period illegal
   for (ii=0;ii<255-dist;ii++) 
    54a4:	8f ef       	ldi	r24, 0xFF	; 255
    54a6:	90 e0       	ldi	r25, 0x00	; 0
    54a8:	82 19       	sub	r24, r2
    54aa:	93 09       	sbc	r25, r3
    54ac:	98 8b       	std	Y+16, r25	; 0x10
    54ae:	8f 87       	std	Y+15, r24	; 0x0f
    54b0:	0c 2d       	mov	r16, r12
    54b2:	10 e0       	ldi	r17, 0x00	; 0
    54b4:	8f 85       	ldd	r24, Y+15	; 0x0f
    54b6:	98 89       	ldd	r25, Y+16	; 0x10
    54b8:	08 17       	cp	r16, r24
    54ba:	19 07       	cpc	r17, r25
    54bc:	0c f0       	brlt	.+2      	; 0x54c0 <peaksearch+0x7c>
    54be:	5f c0       	rjmp	.+190    	; 0x557e <peaksearch+0x13a>
   {
      bb += uu[ii+dist];
    54c0:	d8 01       	movw	r26, r16
    54c2:	a2 0d       	add	r26, r2
    54c4:	b3 1d       	adc	r27, r3
    54c6:	aa 0f       	add	r26, r26
    54c8:	bb 1f       	adc	r27, r27
    54ca:	a4 0d       	add	r26, r4
    54cc:	b5 1d       	adc	r27, r5
    54ce:	8d 91       	ld	r24, X+
    54d0:	9c 91       	ld	r25, X
    54d2:	e8 0f       	add	r30, r24
    54d4:	f9 1f       	adc	r31, r25
      aa += uu[ii];
    54d6:	d8 01       	movw	r26, r16
    54d8:	aa 0f       	add	r26, r26
    54da:	bb 1f       	adc	r27, r27
    54dc:	a4 0d       	add	r26, r4
    54de:	b5 1d       	adc	r27, r5
    54e0:	8d 91       	ld	r24, X+
    54e2:	9c 91       	ld	r25, X
    54e4:	28 0f       	add	r18, r24
    54e6:	39 1f       	adc	r19, r25
      if (ii < dist) continue;
    54e8:	cd 14       	cp	r12, r13
    54ea:	08 f4       	brcc	.+2      	; 0x54ee <peaksearch+0xaa>
    54ec:	8d c0       	rjmp	.+282    	; 0x5608 <peaksearch+0x1c4>
      aa -= uu[ii-dist];
    54ee:	d8 01       	movw	r26, r16
    54f0:	a2 19       	sub	r26, r2
    54f2:	b3 09       	sbc	r27, r3
    54f4:	aa 0f       	add	r26, r26
    54f6:	bb 1f       	adc	r27, r27
    54f8:	a4 0d       	add	r26, r4
    54fa:	b5 1d       	adc	r27, r5
    54fc:	0d 90       	ld	r0, X+
    54fe:	bc 91       	ld	r27, X
    5500:	a0 2d       	mov	r26, r0
    5502:	2a 1b       	sub	r18, r26
    5504:	3b 0b       	sbc	r19, r27
      bb -= uu[ii];
    5506:	e8 1b       	sub	r30, r24
    5508:	f9 0b       	sbc	r31, r25
#ifdef Special_dist1
      if (dist > 1) {
#endif
        sum_ab = aa + bb;
    550a:	79 01       	movw	r14, r18
    550c:	ee 0e       	add	r14, r30
    550e:	ff 1e       	adc	r15, r31
        delta = aa - bb;
    5510:	c9 01       	movw	r24, r18
    5512:	8e 1b       	sub	r24, r30
    5514:	9f 0b       	sbc	r25, r31
    5516:	89 87       	std	Y+9, r24	; 0x09
    5518:	9a 87       	std	Y+10, r25	; 0x0a
      // the detection of zero is replaced by  detection of rising  (kubi)
#if PeakSearchMethod == 1
        if (((int)(sum_ab/32)+delta) < 0)
#else
        if (((int)(sum_ab/4)+delta) < 0)
    551a:	d7 01       	movw	r26, r14
    551c:	b6 95       	lsr	r27
    551e:	a7 95       	ror	r26
    5520:	b6 95       	lsr	r27
    5522:	a7 95       	ror	r26
    5524:	a8 0f       	add	r26, r24
    5526:	b9 1f       	adc	r27, r25
    5528:	b7 fd       	sbrc	r27, 7
    552a:	9f c0       	rjmp	.+318    	; 0x566a <peaksearch+0x226>
        delta =  uu[ii-dist] - bb;
        sawzero = (aa > uu[ii-dist]);
      }
#endif

      if ((bb < aa) && (sawzero == 1)) {
    552c:	e2 17       	cp	r30, r18
    552e:	f3 07       	cpc	r31, r19
    5530:	08 f0       	brcs	.+2      	; 0x5534 <peaksearch+0xf0>
    5532:	72 c0       	rjmp	.+228    	; 0x5618 <peaksearch+0x1d4>
    5534:	51 30       	cpi	r21, 0x01	; 1
    5536:	09 f0       	breq	.+2      	; 0x553a <peaksearch+0xf6>
    5538:	6f c0       	rjmp	.+222    	; 0x5618 <peaksearch+0x1d4>
         // found (local) maximum
         xx = (ii<<6);
    553a:	d8 01       	movw	r26, r16
    553c:	56 e0       	ldi	r21, 0x06	; 6
    553e:	aa 0f       	add	r26, r26
    5540:	bb 1f       	adc	r27, r27
    5542:	5a 95       	dec	r21
    5544:	e1 f7       	brne	.-8      	; 0x553e <peaksearch+0xfa>
    5546:	ba 8b       	std	Y+18, r27	; 0x12
    5548:	a9 8b       	std	Y+17, r26	; 0x11
       // (delta - prevdelta) is same as ((2*uu[ii]) - uu[ii-dist] - uu[ii+dist])
       // For a correct size of delta the uu[ii-dist] and uu[ii+dist] are low against 2*uu[ii].
       // By dividing with 2*uu[ii] alone, the interpolation can be used with dist=1.
         uint16_t kdiv;
//         kdiv = 2 * uu[ii];
         kdiv = delta - prevdelta;
    554a:	dc 01       	movw	r26, r24
    554c:	a6 1b       	sub	r26, r22
    554e:	b7 0b       	sbc	r27, r23
    5550:	bd 01       	movw	r22, r26
#if PeakSearchMethod == 1
         if (kdiv >= delta) xx -= (((long)delta * 64)+ 32) / kdiv;
#else
         if (kdiv >= delta) xx -= ((delta * 64)+ 32) / kdiv;
    5552:	a8 17       	cp	r26, r24
    5554:	b9 07       	cpc	r27, r25
    5556:	70 f0       	brcs	.+28     	; 0x5574 <peaksearch+0x130>
    5558:	a6 e0       	ldi	r26, 0x06	; 6
    555a:	88 0f       	add	r24, r24
    555c:	99 1f       	adc	r25, r25
    555e:	aa 95       	dec	r26
    5560:	e1 f7       	brne	.-8      	; 0x555a <peaksearch+0x116>
    5562:	80 96       	adiw	r24, 0x20	; 32
    5564:	0e 94 b9 32 	call	0x6572	; 0x6572 <__udivmodhi4>
    5568:	89 89       	ldd	r24, Y+17	; 0x11
    556a:	9a 89       	ldd	r25, Y+18	; 0x12
    556c:	86 1b       	sub	r24, r22
    556e:	97 0b       	sbc	r25, r23
    5570:	9a 8b       	std	Y+18, r25	; 0x12
    5572:	89 8b       	std	Y+17, r24	; 0x11

#if PeakSearchMethod == 1
         if (ipk != 0)
#endif
         {
            if (sum_ab < (3*dist)) break;  // stop if peak not significantly high
    5574:	ab 85       	ldd	r26, Y+11	; 0x0b
    5576:	bc 85       	ldd	r27, Y+12	; 0x0c
    5578:	ea 16       	cp	r14, r26
    557a:	fb 06       	cpc	r15, r27
    557c:	30 f4       	brcc	.+12     	; 0x558a <peaksearch+0x146>
      prevdelta = delta;
   } /* end for ii */

   /* total data are analysed, ipk is now the count of peaks + 1 */
//   if (firstzero>(per>>6)) return 0;     // sanity check: first zero should be within first period
   if (qptr) {
    557e:	eb 81       	ldd	r30, Y+3	; 0x03
    5580:	fc 81       	ldd	r31, Y+4	; 0x04
    5582:	ef 2b       	or	r30, r31
    5584:	09 f0       	breq	.+2      	; 0x5588 <peaksearch+0x144>
    5586:	4c c0       	rjmp	.+152    	; 0x5620 <peaksearch+0x1dc>
    5588:	7a c0       	rjmp	.+244    	; 0x567e <peaksearch+0x23a>
         {
            if (sum_ab < (3*dist)) break;  // stop if peak not significantly high
#if PeakSearchMethod == 1
            if (ipk==1)
#else
            if (ii < (dist*4)) goto illegal_peak;
    558a:	8d 85       	ldd	r24, Y+13	; 0x0d
    558c:	9e 85       	ldd	r25, Y+14	; 0x0e
    558e:	08 17       	cp	r16, r24
    5590:	19 07       	cpc	r17, r25
    5592:	bc f1       	brlt	.+110    	; 0x5602 <peaksearch+0x1be>
            if (ipk==0)
#endif
            {
               firstpeak_sum = sum_ab;		// amplitude sum of first peak
               firstpeak_x = xx;		// position of first peak
    5594:	a9 89       	ldd	r26, Y+17	; 0x11
    5596:	ba 89       	ldd	r27, Y+18	; 0x12
            if (sum_ab < (3*dist)) break;  // stop if peak not significantly high
#if PeakSearchMethod == 1
            if (ipk==1)
#else
            if (ii < (dist*4)) goto illegal_peak;
            if (ipk==0)
    5598:	44 23       	and	r20, r20
    559a:	a9 f0       	breq	.+42     	; 0x55c6 <peaksearch+0x182>
#endif
            {
               firstpeak_sum = sum_ab;		// amplitude sum of first peak
               firstpeak_x = xx;		// position of first peak
            } else {  // ipk > 1
               last_per = xx - prevpeak_x;	// length of last period
    559c:	a6 19       	sub	r26, r6
    559e:	b7 09       	sbc	r27, r7
               if ((ipk > (MinPK+1)) && (last_per > (mean_per + mean_per/2 + 32))) break;  // gap between peaks
    55a0:	43 30       	cpi	r20, 0x03	; 3
    55a2:	58 f0       	brcs	.+22     	; 0x55ba <peaksearch+0x176>
    55a4:	c4 01       	movw	r24, r8
    55a6:	80 96       	adiw	r24, 0x20	; 32
    55a8:	b4 01       	movw	r22, r8
    55aa:	76 95       	lsr	r23
    55ac:	67 95       	ror	r22
    55ae:	86 0f       	add	r24, r22
    55b0:	97 1f       	adc	r25, r23
    55b2:	8a 17       	cp	r24, r26
    55b4:	9b 07       	cpc	r25, r27
    55b6:	08 f4       	brcc	.+2      	; 0x55ba <peaksearch+0x176>
    55b8:	5e c0       	rjmp	.+188    	; 0x5676 <peaksearch+0x232>
            // sanity check: distance between peaks is expected to be 4*dist samples
               unsigned char smp_per;
               smp_per = last_per>>8;	// period with 4 sample units
               if (smp_per > dist) {		// dist is lower than 1/4 period without rounding
    55ba:	db 16       	cp	r13, r27
    55bc:	40 f4       	brcc	.+16     	; 0x55ce <peaksearch+0x18a>
                  dist = smp_per+1;		// set dist to the found period / 4, rounded up
    55be:	dd 24       	eor	r13, r13
    55c0:	d3 94       	inc	r13
    55c2:	db 0e       	add	r13, r27
                  goto repeat;
    55c4:	4a cf       	rjmp	.-364    	; 0x545a <peaksearch+0x16>
            if (ii < (dist*4)) goto illegal_peak;
            if (ipk==0)
#endif
            {
               firstpeak_sum = sum_ab;		// amplitude sum of first peak
               firstpeak_x = xx;		// position of first peak
    55c6:	b8 87       	std	Y+8, r27	; 0x08
    55c8:	af 83       	std	Y+7, r26	; 0x07
    55ca:	fe 82       	std	Y+6, r15	; 0x06
    55cc:	ed 82       	std	Y+5, r14	; 0x05
               if (smp_per > dist) {		// dist is lower than 1/4 period without rounding
                  dist = smp_per+1;		// set dist to the found period / 4, rounded up
                  goto repeat;
               }
            }  /* ipk > 1 */
            sumpeak += sum_ab;		// build sum of amplitude
    55ce:	ae 0c       	add	r10, r14
    55d0:	bf 1c       	adc	r11, r15
            }
#endif
         }  /* ipk != 0 */
         prevpeak_sum = sum_ab;		// save amplitude of last peak
         prevpeak_x = xx;		// save position of last peak
         ipk++;			// one more peak found
    55d2:	4f 5f       	subi	r20, 0xFF	; 255
         if (ipk > MinPK) {
    55d4:	41 30       	cpi	r20, 0x01	; 1
    55d6:	d9 f0       	breq	.+54     	; 0x560e <peaksearch+0x1ca>
            mean_per = (prevpeak_x - firstpeak_x + ((ipk-MinPK)>>1)) / (ipk-MinPK);  // average period with rounding
    55d8:	64 2f       	mov	r22, r20
    55da:	70 e0       	ldi	r23, 0x00	; 0
    55dc:	61 50       	subi	r22, 0x01	; 1
    55de:	71 09       	sbc	r23, r1
    55e0:	cb 01       	movw	r24, r22
    55e2:	95 95       	asr	r25
    55e4:	87 95       	ror	r24
    55e6:	a9 89       	ldd	r26, Y+17	; 0x11
    55e8:	ba 89       	ldd	r27, Y+18	; 0x12
    55ea:	8a 0f       	add	r24, r26
    55ec:	9b 1f       	adc	r25, r27
    55ee:	af 81       	ldd	r26, Y+7	; 0x07
    55f0:	b8 85       	ldd	r27, Y+8	; 0x08
    55f2:	8a 1b       	sub	r24, r26
    55f4:	9b 0b       	sbc	r25, r27
    55f6:	bd d7       	rcall	.+3962   	; 0x6572 <__udivmodhi4>
    55f8:	4b 01       	movw	r8, r22
               wait_about500ms();
            }
#endif
         }  /* ipk != 0 */
         prevpeak_sum = sum_ab;		// save amplitude of last peak
         prevpeak_x = xx;		// save position of last peak
    55fa:	69 88       	ldd	r6, Y+17	; 0x11
    55fc:	7a 88       	ldd	r7, Y+18	; 0x12
         ipk++;			// one more peak found
         if (ipk > MinPK) {
            mean_per = (prevpeak_x - firstpeak_x + ((ipk-MinPK)>>1)) / (ipk-MinPK);  // average period with rounding
    55fe:	fa 82       	std	Y+2, r15	; 0x02
    5600:	e9 82       	std	Y+1, r14	; 0x01
         }
#if PeakSearchMethod != 1
illegal_peak:
#endif
         sawzero=0;
         if (ipk > Maxpk) break;	// count of requested peaks is found
    5602:	45 31       	cpi	r20, 0x15	; 21
    5604:	40 f0       	brcs	.+16     	; 0x5616 <peaksearch+0x1d2>
    5606:	37 c0       	rjmp	.+110    	; 0x5676 <peaksearch+0x232>
    5608:	69 87       	std	Y+9, r22	; 0x09
    560a:	7a 87       	std	Y+10, r23	; 0x0a
    560c:	05 c0       	rjmp	.+10     	; 0x5618 <peaksearch+0x1d4>
               wait_about500ms();
            }
#endif
         }  /* ipk != 0 */
         prevpeak_sum = sum_ab;		// save amplitude of last peak
         prevpeak_x = xx;		// save position of last peak
    560e:	69 88       	ldd	r6, Y+17	; 0x11
    5610:	7a 88       	ldd	r7, Y+18	; 0x12
    5612:	fa 82       	std	Y+2, r15	; 0x02
    5614:	e9 82       	std	Y+1, r14	; 0x01
            mean_per = (prevpeak_x - firstpeak_x + ((ipk-MinPK)>>1)) / (ipk-MinPK);  // average period with rounding
         }
#if PeakSearchMethod != 1
illegal_peak:
#endif
         sawzero=0;
    5616:	50 e0       	ldi	r21, 0x00	; 0
 #define MinPK 1
   sawzero = 0;		// flag: did we allready encounter a growing signal?
#endif
   prevdelta=1;
   mean_per = 256<<6;	// set period illegal
   for (ii=0;ii<255-dist;ii++) 
    5618:	c3 94       	inc	r12
    561a:	69 85       	ldd	r22, Y+9	; 0x09
    561c:	7a 85       	ldd	r23, Y+10	; 0x0a
    561e:	48 cf       	rjmp	.-368    	; 0x54b0 <peaksearch+0x6c>
      // calculate r = ratio of amplitude between two consecutive peaks (*1000 for scaling)
      // but we use all peaks seen in this calculation for better accuracy
      // r is weighted average of peak2/peak1, peak3/peak2 and so on, weighed by respectively peak1, peak2 and so on
      // this can be calculated as r = (peak2+peak3+...+peak_m)/(peak1+peak2+peak_{m-1})
      rr = 0;
      if (ipk > MinPK) {
    5620:	42 30       	cpi	r20, 0x02	; 2
    5622:	e0 f0       	brcs	.+56     	; 0x565c <peaksearch+0x218>
         unsigned int sumdiff = sumpeak - prevpeak_sum;
         rr = ((unsigned long)(sumpeak-firstpeak_sum)*1000)/sumdiff;
    5624:	95 01       	movw	r18, r10
    5626:	ed 81       	ldd	r30, Y+5	; 0x05
    5628:	fe 81       	ldd	r31, Y+6	; 0x06
    562a:	2e 1b       	sub	r18, r30
    562c:	3f 0b       	sbc	r19, r31
         // rr = exp(-pi/Q)  so Q = -pi/(ln(rr))
         // for r almost 1 (i.e., high Q), this is approx. pi/(1-rr)
         rr = 31416u/get_log(1000-rr);
    562e:	a8 ee       	ldi	r26, 0xE8	; 232
    5630:	b3 e0       	ldi	r27, 0x03	; 3
    5632:	0e 94 1e 33 	call	0x663c	; 0x663c <__umulhisi3>
    5636:	95 01       	movw	r18, r10
    5638:	49 81       	ldd	r20, Y+1	; 0x01
    563a:	5a 81       	ldd	r21, Y+2	; 0x02
    563c:	24 1b       	sub	r18, r20
    563e:	35 0b       	sbc	r19, r21
    5640:	40 e0       	ldi	r20, 0x00	; 0
    5642:	50 e0       	ldi	r21, 0x00	; 0
    5644:	bd d7       	rcall	.+3962   	; 0x65c0 <__udivmodsi4>
    5646:	88 ee       	ldi	r24, 0xE8	; 232
    5648:	93 e0       	ldi	r25, 0x03	; 3
    564a:	82 1b       	sub	r24, r18
    564c:	93 0b       	sbc	r25, r19
    564e:	0e 94 a6 06 	call	0xd4c	; 0xd4c <get_log>
    5652:	bc 01       	movw	r22, r24
    5654:	88 eb       	ldi	r24, 0xB8	; 184
    5656:	9a e7       	ldi	r25, 0x7A	; 122
    5658:	8c d7       	rcall	.+3864   	; 0x6572 <__udivmodhi4>
    565a:	02 c0       	rjmp	.+4      	; 0x5660 <peaksearch+0x21c>
   if (qptr) {
      // calculate r = ratio of amplitude between two consecutive peaks (*1000 for scaling)
      // but we use all peaks seen in this calculation for better accuracy
      // r is weighted average of peak2/peak1, peak3/peak2 and so on, weighed by respectively peak1, peak2 and so on
      // this can be calculated as r = (peak2+peak3+...+peak_m)/(peak1+peak2+peak_{m-1})
      rr = 0;
    565c:	60 e0       	ldi	r22, 0x00	; 0
    565e:	70 e0       	ldi	r23, 0x00	; 0
         // rr = exp(-pi/Q)  so Q = -pi/(ln(rr))
         // for r almost 1 (i.e., high Q), this is approx. pi/(1-rr)
         rr = 31416u/get_log(1000-rr);
         // note scaling: the get_log is *1000, and we now compute Q in multiples of .1, hence the numerator being 10000*pi
      }
      *qptr = (unsigned int)rr;
    5660:	ab 81       	ldd	r26, Y+3	; 0x03
    5662:	bc 81       	ldd	r27, Y+4	; 0x04
    5664:	6d 93       	st	X+, r22
    5666:	7c 93       	st	X, r23
    5668:	0a c0       	rjmp	.+20     	; 0x567e <peaksearch+0x23a>
        delta =  uu[ii-dist] - bb;
        sawzero = (aa > uu[ii-dist]);
      }
#endif

      if ((bb < aa) && (sawzero == 1)) {
    566a:	e2 17       	cp	r30, r18
    566c:	f3 07       	cpc	r31, r19
    566e:	08 f4       	brcc	.+2      	; 0x5672 <peaksearch+0x22e>
    5670:	64 cf       	rjmp	.-312    	; 0x553a <peaksearch+0xf6>
        if (((int)(sum_ab/32)+delta) < 0)
#else
        if (((int)(sum_ab/4)+delta) < 0)
#endif
        {
           sawzero=1;
    5672:	51 e0       	ldi	r21, 0x01	; 1
    5674:	d1 cf       	rjmp	.-94     	; 0x5618 <peaksearch+0x1d4>
      prevdelta = delta;
   } /* end for ii */

   /* total data are analysed, ipk is now the count of peaks + 1 */
//   if (firstzero>(per>>6)) return 0;     // sanity check: first zero should be within first period
   if (qptr) {
    5676:	eb 81       	ldd	r30, Y+3	; 0x03
    5678:	fc 81       	ldd	r31, Y+4	; 0x04
    567a:	ef 2b       	or	r30, r31
    567c:	99 f6       	brne	.-90     	; 0x5624 <peaksearch+0x1e0>
   DisplayValue(ipk,0,' ',3);
   DisplayValue(((unsigned long)mean_per*25)/16,-2,' ',6);
   DisplayValue(dist,0,' ',5);
#endif
   return mean_per;
}  /* end of peaksearch */
    567e:	c4 01       	movw	r24, r8
    5680:	62 96       	adiw	r28, 0x12	; 18
    5682:	e2 e1       	ldi	r30, 0x12	; 18
    5684:	0c 94 e4 33 	jmp	0x67c8	; 0x67c8 <__epilogue_restores__>

00005688 <sampling_lc>:




void sampling_lc(byte LowPin, byte HighPin)
{
    5688:	a6 e2       	ldi	r26, 0x26	; 38
    568a:	b2 e0       	ldi	r27, 0x02	; 2
    568c:	ea e4       	ldi	r30, 0x4A	; 74
    568e:	fb e2       	ldi	r31, 0x2B	; 43
    5690:	0c 94 c8 33 	jmp	0x6790	; 0x6790 <__prologue_saves__>
    5694:	f8 2e       	mov	r15, r24
    5696:	06 2f       	mov	r16, r22
   uint16_t lc_cpar;    // value of parallel capacitor used for calculating inductance, in pF
   uint16_t period;
   lc_cpar=eeprom_read_word((uint16_t *)&lc_cpar_ee);
    5698:	89 e3       	ldi	r24, 0x39	; 57
    569a:	93 e0       	ldi	r25, 0x03	; 3
    569c:	0e 94 63 34 	call	0x68c6	; 0x68c6 <eeprom_read_word>
    56a0:	4c 01       	movw	r8, r24

//###################################################################################################
 // new version of the code, with pulses via the ADC port, i.e., without 680 ohm series resistor

   byte HiPinR_L, LoADC;
   HiPinR_L = pinmaskRL(HighPin);
    56a2:	e0 2f       	mov	r30, r16
    56a4:	f0 e0       	ldi	r31, 0x00	; 0
    56a6:	e4 57       	subi	r30, 0x74	; 116
    56a8:	fe 4f       	sbci	r31, 0xFE	; 254
    56aa:	14 91       	lpm	r17, Z
   LoADC = pinmaskADC(LowPin);
    56ac:	ef 2d       	mov	r30, r15
    56ae:	f0 e0       	ldi	r31, 0x00	; 0
    56b0:	e1 57       	subi	r30, 0x71	; 113
    56b2:	fe 4f       	sbci	r31, 0xFE	; 254
    56b4:	e4 91       	lpm	r30, Z

   lc_fx=0;
    56b6:	10 92 ae 01 	sts	0x01AE, r1	; 0x8001ae <lc_fx>
    56ba:	10 92 af 01 	sts	0x01AF, r1	; 0x8001af <lc_fx+0x1>
    56be:	10 92 b0 01 	sts	0x01B0, r1	; 0x8001b0 <lc_fx+0x2>
    56c2:	10 92 b1 01 	sts	0x01B1, r1	; 0x8001b1 <lc_fx+0x3>
   lc_qx=0;
    56c6:	10 92 b5 01 	sts	0x01B5, r1	; 0x8001b5 <lc_qx+0x1>
    56ca:	10 92 b4 01 	sts	0x01B4, r1	; 0x8001b4 <lc_qx>
   lc_lx=0;
    56ce:	10 92 b6 01 	sts	0x01B6, r1	; 0x8001b6 <lc_lx>
    56d2:	10 92 b7 01 	sts	0x01B7, r1	; 0x8001b7 <lc_lx+0x1>
    56d6:	10 92 b8 01 	sts	0x01B8, r1	; 0x8001b8 <lc_lx+0x2>
    56da:	10 92 b9 01 	sts	0x01B9, r1	; 0x8001b9 <lc_lx+0x3>
   if ((PartFound != PART_RESISTOR) || (inductor_lpre > 0)) {
    56de:	80 91 1a 01 	lds	r24, 0x011A	; 0x80011a <PartFound>
    56e2:	81 30       	cpi	r24, 0x01	; 1
    56e4:	09 f0       	breq	.+2      	; 0x56e8 <sampling_lc+0x60>
    56e6:	51 c1       	rjmp	.+674    	; 0x598a <sampling_lc+0x302>
    56e8:	80 91 01 01 	lds	r24, 0x0101	; 0x800101 <inductor_lpre>
    56ec:	18 16       	cp	r1, r24
    56ee:	0c f4       	brge	.+2      	; 0x56f2 <sampling_lc+0x6a>
    56f0:	4c c1       	rjmp	.+664    	; 0x598a <sampling_lc+0x302>
   byte i=0;

   unsigned int uu[255];


   ADC_PORT = TXD_VAL;
    56f2:	88 e0       	ldi	r24, 0x08	; 8
    56f4:	88 b9       	out	0x08, r24	; 8
//###################################################################################################
 // new version of the code, with pulses via the ADC port, i.e., without 680 ohm series resistor

   byte HiPinR_L, LoADC;
   HiPinR_L = pinmaskRL(HighPin);
   LoADC = pinmaskADC(LowPin);
    56f6:	e8 60       	ori	r30, 0x08	; 8

   unsigned int uu[255];


   ADC_PORT = TXD_VAL;
   ADC_DDR = LoADC;			// switch Low-Pin to output (GND)
    56f8:	e7 b9       	out	0x07, r30	; 7
   wait100us();
    56fa:	0e 94 3a 05 	call	0xa74	; 0xa74 <wait100us>

   // first, acquire data at maximum speed:
   ADMUX=HighPin|ADref1V1;   // use built-in reference, about 1.1 V;
    56fe:	00 6c       	ori	r16, 0xC0	; 192
    5700:	b0 2e       	mov	r11, r16
    5702:	00 93 7c 00 	sts	0x007C, r16	; 0x80007c <__TEXT_REGION_LENGTH__+0x7e007c>
                             // that's enough, because peaks more than about 0.6 V are not of interest
                             // (because the negative peak would be chopped by the protection diodes)
   wait_aref_stabilize();                               
    5706:	0e 94 3a 05 	call	0xa74	; 0xa74 <wait100us>

   // run a first measurement, using the narrow full-current impulse
   samplingADC((1<<smplADC_span)|(1<<smplADC_direct), uu, 255, HiPinR_L, 0, 0, HiPinR_L);
    570a:	c1 2e       	mov	r12, r17
    570c:	e1 2c       	mov	r14, r1
    570e:	00 e0       	ldi	r16, 0x00	; 0
    5710:	21 2f       	mov	r18, r17
    5712:	4f ef       	ldi	r20, 0xFF	; 255
    5714:	be 01       	movw	r22, r28
    5716:	6f 5f       	subi	r22, 0xFF	; 255
    5718:	7f 4f       	sbci	r23, 0xFF	; 255
    571a:	80 e1       	ldi	r24, 0x10	; 16
    571c:	91 e0       	ldi	r25, 0x01	; 1
    571e:	0e 94 34 00 	call	0x68	; 0x68 <samplingADC>

   // also measure some 20 samples at the "cold side" of the coil, and subtract
   // at highest frequencies, this is useful because the on-chip ADC has an RC lowpass which gives an exponentially decaying "DC" offset
   unsigned int uu0[20];
   ADMUX=LowPin|ADref1V1;   // switch to "cold" side for reference measurement
    5722:	2f 2d       	mov	r18, r15
    5724:	20 6c       	ori	r18, 0xC0	; 192
    5726:	f2 2e       	mov	r15, r18
    5728:	20 93 7c 00 	sts	0x007C, r18	; 0x80007c <__TEXT_REGION_LENGTH__+0x7e007c>
   samplingADC((1<<smplADC_span)|(1<<smplADC_direct), uu0, 20, HiPinR_L, 0, 0, HiPinR_L);
    572c:	21 2f       	mov	r18, r17
    572e:	44 e1       	ldi	r20, 0x14	; 20
    5730:	be 01       	movw	r22, r28
    5732:	61 50       	subi	r22, 0x01	; 1
    5734:	7e 4f       	sbci	r23, 0xFE	; 254
    5736:	80 e1       	ldi	r24, 0x10	; 16
    5738:	91 e0       	ldi	r25, 0x01	; 1
    573a:	0e 94 34 00 	call	0x68	; 0x68 <samplingADC>
    573e:	fe 01       	movw	r30, r28
    5740:	31 96       	adiw	r30, 0x01	; 1
    5742:	de 01       	movw	r26, r28
    5744:	a1 50       	subi	r26, 0x01	; 1
    5746:	be 4f       	sbci	r27, 0xFE	; 254
    5748:	ae 01       	movw	r20, r28
    574a:	47 5d       	subi	r20, 0xD7	; 215
    574c:	5f 4f       	sbci	r21, 0xFF	; 255
   for (i=0;i<20;i++)
   {
      if (uu[i]>=uu0[i]) uu[i]-=uu0[i];
    574e:	80 81       	ld	r24, Z
    5750:	91 81       	ldd	r25, Z+1	; 0x01
    5752:	2d 91       	ld	r18, X+
    5754:	3d 91       	ld	r19, X+
    5756:	82 17       	cp	r24, r18
    5758:	93 07       	cpc	r25, r19
    575a:	28 f0       	brcs	.+10     	; 0x5766 <sampling_lc+0xde>
    575c:	82 1b       	sub	r24, r18
    575e:	93 0b       	sbc	r25, r19
    5760:	91 83       	std	Z+1, r25	; 0x01
    5762:	80 83       	st	Z, r24
    5764:	02 c0       	rjmp	.+4      	; 0x576a <sampling_lc+0xe2>
      else uu[i]=0;
    5766:	11 82       	std	Z+1, r1	; 0x01
    5768:	10 82       	st	Z, r1
    576a:	32 96       	adiw	r30, 0x02	; 2
   // also measure some 20 samples at the "cold side" of the coil, and subtract
   // at highest frequencies, this is useful because the on-chip ADC has an RC lowpass which gives an exponentially decaying "DC" offset
   unsigned int uu0[20];
   ADMUX=LowPin|ADref1V1;   // switch to "cold" side for reference measurement
   samplingADC((1<<smplADC_span)|(1<<smplADC_direct), uu0, 20, HiPinR_L, 0, 0, HiPinR_L);
   for (i=0;i<20;i++)
    576c:	4e 17       	cp	r20, r30
    576e:	5f 07       	cpc	r21, r31
    5770:	71 f7       	brne	.-36     	; 0x574e <sampling_lc+0xc6>
   {
      if (uu[i]>=uu0[i]) uu[i]-=uu0[i];
      else uu[i]=0;
   }
   ADMUX=HighPin|ADref1V1;   // back to "hot" side
    5772:	b0 92 7c 00 	sts	0x007C, r11	; 0x80007c <__TEXT_REGION_LENGTH__+0x7e007c>

   byte dist0;         // estimate of duration of 1/4 of a period, used to set averaging interval in peaksearch()
   unsigned shift=0;   // by how many bit positions measured period needs to be shifted due to measuring with span>1

   // check how long until signal reaches 0: that gives us a first guess of 1/4 of the resonance period (because we apply an impulse, so we start at the maximum of the sinewave)
   period = peaksearch(uu,NULL);
    5776:	60 e0       	ldi	r22, 0x00	; 0
    5778:	70 e0       	ldi	r23, 0x00	; 0
    577a:	ce 01       	movw	r24, r28
    577c:	01 96       	adiw	r24, 0x01	; 1
    577e:	62 de       	rcall	.-828    	; 0x5444 <peaksearch>
   dist0 = 1+(period>>8);    // >>6 because of fraction bits, plus >>2 because dist0 should be about a quarter period, plus +1 to round up
    5780:	9f 5f       	subi	r25, 0xFF	; 255
         report_buf(uu,6);
 #endif
	
#define samplingADC_direct (1<<smplADC_direct)
     par = (1<<smplADC_span) | samplingADC_direct;
     if (dist0>16) {
    5782:	91 31       	cpi	r25, 0x11	; 17
    5784:	48 f0       	brcs	.+18     	; 0x5798 <sampling_lc+0x110>
      // rather slow resonance: then re-sample with 4 or 16 times larger interval; shift variable serves to take this into account in later calculations
        if (dist0<64) {
    5786:	90 34       	cpi	r25, 0x40	; 64
    5788:	70 f0       	brcs	.+28     	; 0x57a6 <sampling_lc+0x11e>
           shift = 2;
           par = (4<<smplADC_span) | samplingADC_direct;
        } else {
           shift = 4;
           par = (16<<smplADC_span) | samplingADC_direct;
    578a:	f0 e1       	ldi	r31, 0x10	; 16
    578c:	af 2e       	mov	r10, r31
    578e:	ba 2c       	mov	r11, r10
      // rather slow resonance: then re-sample with 4 or 16 times larger interval; shift variable serves to take this into account in later calculations
        if (dist0<64) {
           shift = 2;
           par = (4<<smplADC_span) | samplingADC_direct;
        } else {
           shift = 4;
    5790:	a4 e0       	ldi	r26, 0x04	; 4
    5792:	6a 2e       	mov	r6, r26
    5794:	71 2c       	mov	r7, r1
    5796:	0e c0       	rjmp	.+28     	; 0x57b4 <sampling_lc+0x12c>
	 DisplayValue(((unsigned long)period*10)/64,-1,' ',5);
         report_buf(uu,6);
 #endif
	
#define samplingADC_direct (1<<smplADC_direct)
     par = (1<<smplADC_span) | samplingADC_direct;
    5798:	e0 e1       	ldi	r30, 0x10	; 16
    579a:	ae 2e       	mov	r10, r30
    579c:	bb 24       	eor	r11, r11
    579e:	b3 94       	inc	r11
   ADMUX=HighPin|ADref1V1;   // back to "hot" side

//   uart_newline(); for (i=0;i<255;i++) { myuart_putc('A'); myuart_putc(' '); uart_int(uu[i]); uart_int(uu0[i]); uart_newline(); wdt_reset(); }

   byte dist0;         // estimate of duration of 1/4 of a period, used to set averaging interval in peaksearch()
   unsigned shift=0;   // by how many bit positions measured period needs to be shifted due to measuring with span>1
    57a0:	61 2c       	mov	r6, r1
    57a2:	71 2c       	mov	r7, r1
    57a4:	07 c0       	rjmp	.+14     	; 0x57b4 <sampling_lc+0x12c>
     par = (1<<smplADC_span) | samplingADC_direct;
     if (dist0>16) {
      // rather slow resonance: then re-sample with 4 or 16 times larger interval; shift variable serves to take this into account in later calculations
        if (dist0<64) {
           shift = 2;
           par = (4<<smplADC_span) | samplingADC_direct;
    57a6:	60 e1       	ldi	r22, 0x10	; 16
    57a8:	a6 2e       	mov	r10, r22
    57aa:	64 e0       	ldi	r22, 0x04	; 4
    57ac:	b6 2e       	mov	r11, r22
#define samplingADC_direct (1<<smplADC_direct)
     par = (1<<smplADC_span) | samplingADC_direct;
     if (dist0>16) {
      // rather slow resonance: then re-sample with 4 or 16 times larger interval; shift variable serves to take this into account in later calculations
        if (dist0<64) {
           shift = 2;
    57ae:	72 e0       	ldi	r23, 0x02	; 2
    57b0:	67 2e       	mov	r6, r23
    57b2:	71 2c       	mov	r7, r1
     for (i=0;i<8;i++) {
        wdt_reset();
        samplingADC(par, uu, 255, HiPinR_L, 0, 0, HiPinR_L);
//        if (par > (2<<smplADC_span)) goto noavg;
        if (shift > 0) goto noavg;
        par |= samplingADC_cumul;
    57b4:	58 e0       	ldi	r21, 0x08	; 8
    57b6:	d5 2e       	mov	r13, r21
        }
     }

   // we take the average of 8 measurements, to increase S/N, except when using span>1, since then the sampling takes annoyingly long and S/N usually is better anyway at these lower frequencies
     for (i=0;i<8;i++) {
        wdt_reset();
    57b8:	a8 95       	wdr
        samplingADC(par, uu, 255, HiPinR_L, 0, 0, HiPinR_L);
    57ba:	c1 2e       	mov	r12, r17
    57bc:	e1 2c       	mov	r14, r1
    57be:	00 e0       	ldi	r16, 0x00	; 0
    57c0:	21 2f       	mov	r18, r17
    57c2:	4f ef       	ldi	r20, 0xFF	; 255
    57c4:	be 01       	movw	r22, r28
    57c6:	6f 5f       	subi	r22, 0xFF	; 255
    57c8:	7f 4f       	sbci	r23, 0xFF	; 255
    57ca:	c5 01       	movw	r24, r10
    57cc:	0e 94 34 00 	call	0x68	; 0x68 <samplingADC>
//        if (par > (2<<smplADC_span)) goto noavg;
        if (shift > 0) goto noavg;
    57d0:	61 14       	cp	r6, r1
    57d2:	71 04       	cpc	r7, r1
    57d4:	79 f0       	breq	.+30     	; 0x57f4 <sampling_lc+0x16c>
    while (i--) uu[i]>>=3;   // divide all samples by 8
//   }


noavg:;
   period = peaksearch(uu,&lc_qx);
    57d6:	64 eb       	ldi	r22, 0xB4	; 180
    57d8:	71 e0       	ldi	r23, 0x01	; 1
    57da:	ce 01       	movw	r24, r28
    57dc:	01 96       	adiw	r24, 0x01	; 1
    57de:	32 de       	rcall	.-924    	; 0x5444 <peaksearch>
    57e0:	5c 01       	movw	r10, r24
   if (period > (255<<6)) period = 0;		// set implausible period to zero
    57e2:	81 ec       	ldi	r24, 0xC1	; 193
    57e4:	a8 16       	cp	r10, r24
    57e6:	8f e3       	ldi	r24, 0x3F	; 63
    57e8:	b8 06       	cpc	r11, r24
    57ea:	08 f4       	brcc	.+2      	; 0x57ee <sampling_lc+0x166>
    57ec:	5b c0       	rjmp	.+182    	; 0x58a4 <sampling_lc+0x21c>
    57ee:	a1 2c       	mov	r10, r1
    57f0:	b1 2c       	mov	r11, r1
    57f2:	58 c0       	rjmp	.+176    	; 0x58a4 <sampling_lc+0x21c>
     for (i=0;i<8;i++) {
        wdt_reset();
        samplingADC(par, uu, 255, HiPinR_L, 0, 0, HiPinR_L);
//        if (par > (2<<smplADC_span)) goto noavg;
        if (shift > 0) goto noavg;
        par |= samplingADC_cumul;
    57f4:	c5 01       	movw	r24, r10
    57f6:	80 64       	ori	r24, 0x40	; 64
    57f8:	da 94       	dec	r13
           par = (16<<smplADC_span) | samplingADC_direct;
        }
     }

   // we take the average of 8 measurements, to increase S/N, except when using span>1, since then the sampling takes annoyingly long and S/N usually is better anyway at these lower frequencies
     for (i=0;i<8;i++) {
    57fa:	dd 20       	and	r13, r13
    57fc:	11 f0       	breq	.+4      	; 0x5802 <sampling_lc+0x17a>
        wdt_reset();
        samplingADC(par, uu, 255, HiPinR_L, 0, 0, HiPinR_L);
//        if (par > (2<<smplADC_span)) goto noavg;
        if (shift > 0) goto noavg;
        par |= samplingADC_cumul;
    57fe:	5c 01       	movw	r10, r24
    5800:	db cf       	rjmp	.-74     	; 0x57b8 <sampling_lc+0x130>
     }
   if ((par >> smplADC_span) < 4) {
    5802:	81 15       	cp	r24, r1
    5804:	94 40       	sbci	r25, 0x04	; 4
    5806:	10 f0       	brcs	.+4      	; 0x580c <sampling_lc+0x184>
    5808:	8e ef       	ldi	r24, 0xFE	; 254
    580a:	38 c0       	rjmp	.+112    	; 0x587c <sampling_lc+0x1f4>
    // case of high frequency: subtract reference measurement, and do no scaling down of accumulated amplitudes since they are small in this case
      ADMUX=LowPin|ADref1V1;   // switch to "cold" side for reference measurement
    580c:	f0 92 7c 00 	sts	0x007C, r15	; 0x80007c <__TEXT_REGION_LENGTH__+0x7e007c>
    5810:	e8 94       	clt
    5812:	a6 f8       	bld	r10, 6
    5814:	48 e0       	ldi	r20, 0x08	; 8
    5816:	f4 2e       	mov	r15, r20
      par &= ~samplingADC_cumul;
      for (i=0;i<8;i++) {
         samplingADC(par, uu0, 20, HiPinR_L, 0, 0, HiPinR_L);
    5818:	c1 2e       	mov	r12, r17
    581a:	e1 2c       	mov	r14, r1
    581c:	00 e0       	ldi	r16, 0x00	; 0
    581e:	21 2f       	mov	r18, r17
    5820:	44 e1       	ldi	r20, 0x14	; 20
    5822:	be 01       	movw	r22, r28
    5824:	61 50       	subi	r22, 0x01	; 1
    5826:	7e 4f       	sbci	r23, 0xFE	; 254
    5828:	c5 01       	movw	r24, r10
    582a:	0e 94 34 00 	call	0x68	; 0x68 <samplingADC>
         par |= samplingADC_cumul;
    582e:	68 94       	set
    5830:	a6 f8       	bld	r10, 6
    5832:	fa 94       	dec	r15
     }
   if ((par >> smplADC_span) < 4) {
    // case of high frequency: subtract reference measurement, and do no scaling down of accumulated amplitudes since they are small in this case
      ADMUX=LowPin|ADref1V1;   // switch to "cold" side for reference measurement
      par &= ~samplingADC_cumul;
      for (i=0;i<8;i++) {
    5834:	f1 10       	cpse	r15, r1
    5836:	f0 cf       	rjmp	.-32     	; 0x5818 <sampling_lc+0x190>
    5838:	24 e1       	ldi	r18, 0x14	; 20
         samplingADC(par, uu0, 20, HiPinR_L, 0, 0, HiPinR_L);
         par |= samplingADC_cumul;
      }
      i=20; while (i--)         // equivalent to for (i=0;i<20;i++) but saves 48 bytes of flash????
    583a:	21 50       	subi	r18, 0x01	; 1
    583c:	28 f3       	brcs	.-54     	; 0x5808 <sampling_lc+0x180>
      {
         if (uu[i]>=uu0[i]) uu[i]-=uu0[i];
    583e:	82 2f       	mov	r24, r18
    5840:	90 e0       	ldi	r25, 0x00	; 0
    5842:	88 0f       	add	r24, r24
    5844:	99 1f       	adc	r25, r25
    5846:	e1 e0       	ldi	r30, 0x01	; 1
    5848:	f0 e0       	ldi	r31, 0x00	; 0
    584a:	ec 0f       	add	r30, r28
    584c:	fd 1f       	adc	r31, r29
    584e:	e8 0f       	add	r30, r24
    5850:	f9 1f       	adc	r31, r25
    5852:	40 81       	ld	r20, Z
    5854:	51 81       	ldd	r21, Z+1	; 0x01
    5856:	af ef       	ldi	r26, 0xFF	; 255
    5858:	b1 e0       	ldi	r27, 0x01	; 1
    585a:	ac 0f       	add	r26, r28
    585c:	bd 1f       	adc	r27, r29
    585e:	a8 0f       	add	r26, r24
    5860:	b9 1f       	adc	r27, r25
    5862:	8d 91       	ld	r24, X+
    5864:	9c 91       	ld	r25, X
    5866:	48 17       	cp	r20, r24
    5868:	59 07       	cpc	r21, r25
    586a:	28 f0       	brcs	.+10     	; 0x5876 <sampling_lc+0x1ee>
    586c:	48 1b       	sub	r20, r24
    586e:	59 0b       	sbc	r21, r25
    5870:	51 83       	std	Z+1, r21	; 0x01
    5872:	40 83       	st	Z, r20
    5874:	e2 cf       	rjmp	.-60     	; 0x583a <sampling_lc+0x1b2>
         else uu[i]=0;
    5876:	11 82       	std	Z+1, r1	; 0x01
    5878:	10 82       	st	Z, r1
    587a:	df cf       	rjmp	.-66     	; 0x583a <sampling_lc+0x1b2>
      }
//   } else {
    }
    // low frequency: no reference measurement needed, but do scale amplitude by number of accumulated samples
    i=255;
    while (i--) uu[i]>>=3;   // divide all samples by 8
    587c:	8f 3f       	cpi	r24, 0xFF	; 255
    587e:	09 f4       	brne	.+2      	; 0x5882 <sampling_lc+0x1fa>
    5880:	aa cf       	rjmp	.-172    	; 0x57d6 <sampling_lc+0x14e>
    5882:	fe 01       	movw	r30, r28
    5884:	31 96       	adiw	r30, 0x01	; 1
    5886:	e8 0f       	add	r30, r24
    5888:	f1 1d       	adc	r31, r1
    588a:	e8 0f       	add	r30, r24
    588c:	f1 1d       	adc	r31, r1
    588e:	20 81       	ld	r18, Z
    5890:	31 81       	ldd	r19, Z+1	; 0x01
    5892:	b3 e0       	ldi	r27, 0x03	; 3
    5894:	36 95       	lsr	r19
    5896:	27 95       	ror	r18
    5898:	ba 95       	dec	r27
    589a:	e1 f7       	brne	.-8      	; 0x5894 <sampling_lc+0x20c>
    589c:	31 83       	std	Z+1, r19	; 0x01
    589e:	20 83       	st	Z, r18
    58a0:	81 50       	subi	r24, 0x01	; 1
    58a2:	ec cf       	rjmp	.-40     	; 0x587c <sampling_lc+0x1f4>
	 lcd_data('p');
         DisplayValue16((period*10)/64,-1,' ',4);
 #endif

   unsigned long vv;
   vv = (unsigned long)period;         // measured period with 6 fraction bits, before applying shift, is < 256*64 = 2^14
    58a4:	65 01       	movw	r12, r10
    58a6:	e1 2c       	mov	r14, r1
//   vv=(vv>>10)*12368;		// vv < 2^32   ; is (d<<2)/(2*pi*fclock)^2 * 1e21 >>3
				// that 12368 is calculated as 1/(2*pi*16e6)**2*1e21 /8, for 16 MHz CPU clock
				// 1e21 / (2*pi*16e6)**2 / (8 * 1024)      = 12.07842632, which can be computed
				// with a divide by 51 and a mul with 616 (= 12.07843137) .
				// whith better accuracy than   12368/1024 = 12.07812500
   vv = (vv/51)*616;
    58a8:	f1 2c       	mov	r15, r1
    58aa:	95 01       	movw	r18, r10
    58ac:	d5 01       	movw	r26, r10
    58ae:	c6 d6       	rcall	.+3468   	; 0x663c <__umulhisi3>
    58b0:	23 e3       	ldi	r18, 0x33	; 51
    58b2:	30 e0       	ldi	r19, 0x00	; 0
    58b4:	40 e0       	ldi	r20, 0x00	; 0
    58b6:	50 e0       	ldi	r21, 0x00	; 0
    58b8:	83 d6       	rcall	.+3334   	; 0x65c0 <__udivmodsi4>
    58ba:	a8 e6       	ldi	r26, 0x68	; 104
    58bc:	b2 e0       	ldi	r27, 0x02	; 2
#else
   #error "CPU clocks other than 8 and 16 MHz not yet supported for SamplingADC"
   vv = 0;
#endif
//   vv/=lc_cpar;                          //          ; is (d<<2)/(2*pi*fclock)^2/c * 1e9 >>3
   vv /= (lc_cpar>>1);                          //          ; is (d<<2)/(2*pi*fclock)^2/c * 1e9 >>2
    58be:	d3 d6       	rcall	.+3494   	; 0x6666 <__muluhisi3>
    58c0:	96 94       	lsr	r9
    58c2:	87 94       	ror	r8
    58c4:	94 01       	movw	r18, r8
    58c6:	40 e0       	ldi	r20, 0x00	; 0
    58c8:	50 e0       	ldi	r21, 0x00	; 0
    58ca:	7a d6       	rcall	.+3316   	; 0x65c0 <__udivmodsi4>
	// shift for 16 MHz 0, 2,  4; for 8 MHz 1, 3,  5
        // resulting factor 2,32,512            8,128,2048 
//   vv<<=1+2*shift;                      //          ; is L in 1e-9 H  
   vv <<= 2*shift;                      //          ; is L in 1e-9 H  
                        // not nice: the nH number will always be even; then again, do we really measure that precisely?
   lc_lx = vv;
    58cc:	c3 01       	movw	r24, r6
    58ce:	88 0f       	add	r24, r24
    58d0:	99 1f       	adc	r25, r25
    58d2:	19 01       	movw	r2, r18
    58d4:	2a 01       	movw	r4, r20
    58d6:	04 c0       	rjmp	.+8      	; 0x58e0 <sampling_lc+0x258>
    58d8:	22 0c       	add	r2, r2
    58da:	33 1c       	adc	r3, r3
    58dc:	44 1c       	adc	r4, r4
    58de:	55 1c       	adc	r5, r5
    58e0:	8a 95       	dec	r24
    58e2:	d2 f7       	brpl	.-12     	; 0x58d8 <sampling_lc+0x250>
    58e4:	20 92 b6 01 	sts	0x01B6, r2	; 0x8001b6 <lc_lx>
    58e8:	30 92 b7 01 	sts	0x01B7, r3	; 0x8001b7 <lc_lx+0x1>
    58ec:	40 92 b8 01 	sts	0x01B8, r4	; 0x8001b8 <lc_lx+0x2>
    58f0:	50 92 b9 01 	sts	0x01B9, r5	; 0x8001b9 <lc_lx+0x3>
   // inductor_lpre = 0, no Inductor found 
   // unductor_lpre = 1,  rx is above 2100 Ohm
   // inductor_lpre = -5, Inductance searched without 680 Ohm, rx is below 24 Ohm
   // inductor_lpre = -4,  Inductance is searched with 680i Ohm, 24 < rx < 2100
   // probably search of 
   if (inductor_lx>2) {
    58f4:	80 91 09 01 	lds	r24, 0x0109	; 0x800109 <inductor_lx>
    58f8:	90 91 0a 01 	lds	r25, 0x010A	; 0x80010a <inductor_lx+0x1>
    58fc:	a0 91 0b 01 	lds	r26, 0x010B	; 0x80010b <inductor_lx+0x2>
    5900:	b0 91 0c 01 	lds	r27, 0x010C	; 0x80010c <inductor_lx+0x3>
    5904:	03 97       	sbiw	r24, 0x03	; 3
    5906:	a1 05       	cpc	r26, r1
    5908:	b1 05       	cpc	r27, r1
    590a:	40 f0       	brcs	.+16     	; 0x591c <sampling_lc+0x294>
      // if traditional measurement gave some meaningful-looking value ( > 20 uH, but that's rather arbitrary)
      // discard the new one, it's probably self-resonance
      // note that if a sizeable cap is in parallel, the normal measurement doesn't come up with an answer
      lc_lx=0;
    590c:	10 92 b6 01 	sts	0x01B6, r1	; 0x8001b6 <lc_lx>
    5910:	10 92 b7 01 	sts	0x01B7, r1	; 0x8001b7 <lc_lx+0x1>
    5914:	10 92 b8 01 	sts	0x01B8, r1	; 0x8001b8 <lc_lx+0x2>
    5918:	10 92 b9 01 	sts	0x01B9, r1	; 0x8001b9 <lc_lx+0x3>
   }

   // freq/Hz = F_CPU/d
   if (period==0) {
    591c:	a1 14       	cp	r10, r1
    591e:	b1 04       	cpc	r11, r1
    5920:	69 f4       	brne	.+26     	; 0x593c <sampling_lc+0x2b4>
      lc_qx = 0;
    5922:	10 92 b5 01 	sts	0x01B5, r1	; 0x8001b5 <lc_qx+0x1>
    5926:	10 92 b4 01 	sts	0x01B4, r1	; 0x8001b4 <lc_qx>
      lc_lx = 0;
    592a:	10 92 b6 01 	sts	0x01B6, r1	; 0x8001b6 <lc_lx>
    592e:	10 92 b7 01 	sts	0x01B7, r1	; 0x8001b7 <lc_lx+0x1>
    5932:	10 92 b8 01 	sts	0x01B8, r1	; 0x8001b8 <lc_lx+0x2>
    5936:	10 92 b9 01 	sts	0x01B9, r1	; 0x8001b9 <lc_lx+0x3>
   DisplayValue16(shift,0,' ',3);
   DisplayValue16(dist0,0,' ',4);
   report_buf(ii,6);
   lcd_refresh();
#endif
      return;
    593a:	27 c0       	rjmp	.+78     	; 0x598a <sampling_lc+0x302>
#if F_CPU==16000000UL
   vv = (unsigned long)period<<1;
#else
   vv = (unsigned long)period;
#endif
   lc_fx = ((F_CPU<<(7-shift))/vv);
    593c:	27 e0       	ldi	r18, 0x07	; 7
    593e:	30 e0       	ldi	r19, 0x00	; 0
    5940:	26 19       	sub	r18, r6
    5942:	37 09       	sbc	r19, r7
    5944:	80 e0       	ldi	r24, 0x00	; 0
    5946:	94 e2       	ldi	r25, 0x24	; 36
    5948:	a4 ef       	ldi	r26, 0xF4	; 244
    594a:	b0 e0       	ldi	r27, 0x00	; 0
    594c:	bc 01       	movw	r22, r24
    594e:	cd 01       	movw	r24, r26
    5950:	04 c0       	rjmp	.+8      	; 0x595a <sampling_lc+0x2d2>
    5952:	66 0f       	add	r22, r22
    5954:	77 1f       	adc	r23, r23
    5956:	88 1f       	adc	r24, r24
    5958:	99 1f       	adc	r25, r25
    595a:	2a 95       	dec	r18
    595c:	d2 f7       	brpl	.-12     	; 0x5952 <sampling_lc+0x2ca>
    595e:	a7 01       	movw	r20, r14
    5960:	96 01       	movw	r18, r12
    5962:	22 0f       	add	r18, r18
    5964:	33 1f       	adc	r19, r19
    5966:	44 1f       	adc	r20, r20
    5968:	55 1f       	adc	r21, r21
    596a:	2a d6       	rcall	.+3156   	; 0x65c0 <__udivmodsi4>
    596c:	20 93 ae 01 	sts	0x01AE, r18	; 0x8001ae <lc_fx>
    5970:	30 93 af 01 	sts	0x01AF, r19	; 0x8001af <lc_fx+0x1>
    5974:	40 93 b0 01 	sts	0x01B0, r20	; 0x8001b0 <lc_fx+0x2>
    5978:	50 93 b1 01 	sts	0x01B1, r21	; 0x8001b1 <lc_fx+0x3>

   if (inductor_lpre >= 0) inductor_lpre = -1; 	/* no ESR measurement! */
    597c:	80 91 01 01 	lds	r24, 0x0101	; 0x800101 <inductor_lpre>
    5980:	87 fd       	sbrc	r24, 7
    5982:	03 c0       	rjmp	.+6      	; 0x598a <sampling_lc+0x302>
    5984:	8f ef       	ldi	r24, 0xFF	; 255
    5986:	80 93 01 01 	sts	0x0101, r24	; 0x800101 <inductor_lpre>
   return;
} /* end of sampling_lc() */
    598a:	ca 5d       	subi	r28, 0xDA	; 218
    598c:	dd 4f       	sbci	r29, 0xFD	; 253
    598e:	e2 e1       	ldi	r30, 0x12	; 18
    5990:	1b c7       	rjmp	.+3638   	; 0x67c8 <__epilogue_restores__>

00005992 <sampling_lc_calibrate>:




void sampling_lc_calibrate(byte ww)
{
    5992:	cf 93       	push	r28
    5994:	df 93       	push	r29
    5996:	d8 2f       	mov	r29, r24
 #define C_DIFF_LIMIT 200   /* Tolerance of capacity to rewrite eeprom */
//   lcd_clear();
   lcd_line1();
    5998:	0e 94 3a 02 	call	0x474	; 0x474 <lcd_line1>
   lcd_MEM2_string(cap_for_l_meas_str);		// "Cap for L meas?"
    599c:	86 e0       	ldi	r24, 0x06	; 6
    599e:	90 e0       	ldi	r25, 0x00	; 0
    59a0:	0e 94 7c 02 	call	0x4f8	; 0x4f8 <lcd_fix_string>
   lcd_clear_line();
    59a4:	0e 94 d8 02 	call	0x5b0	; 0x5b0 <lcd_clear_line>
   byte i = 0;		// no legal capacity value found
    59a8:	c0 e0       	ldi	r28, 0x00	; 0
   do { 
      lc_cpartmp = 0;
    59aa:	10 92 b3 01 	sts	0x01B3, r1	; 0x8001b3 <lc_cpartmp+0x1>
    59ae:	10 92 b2 01 	sts	0x01B2, r1	; 0x8001b2 <lc_cpartmp>
      wait_about100ms();
    59b2:	84 e1       	ldi	r24, 0x14	; 20
    59b4:	0e 94 47 05 	call	0xa8e	; 0xa8e <sleep_5ms>
      ReadCapacity(TP1,TP3);
    59b8:	62 e0       	ldi	r22, 0x02	; 2
    59ba:	80 e0       	ldi	r24, 0x00	; 0
    59bc:	0e 94 d4 15 	call	0x2ba8	; 0x2ba8 <ReadCapacity>
      lcd_line2();
    59c0:	0e 94 48 02 	call	0x490	; 0x490 <lcd_line2>
      DisplayValue16(lc_cpartmp,-12,'F',4);
    59c4:	24 e0       	ldi	r18, 0x04	; 4
    59c6:	46 e4       	ldi	r20, 0x46	; 70
    59c8:	64 ef       	ldi	r22, 0xF4	; 244
    59ca:	80 91 b2 01 	lds	r24, 0x01B2	; 0x8001b2 <lc_cpartmp>
    59ce:	90 91 b3 01 	lds	r25, 0x01B3	; 0x8001b3 <lc_cpartmp+0x1>
    59d2:	0e 94 ef 04 	call	0x9de	; 0x9de <DisplayValue16>
      i++;
//      if ((lc_cpartmp<9500) || (lc_cpartmp>33000)) i=0;		// unstable or not connected
      if ((lc_cpartmp<3900) || (lc_cpartmp>34000)) i=0;		// unstable or not connected
    59d6:	60 91 b2 01 	lds	r22, 0x01B2	; 0x8001b2 <lc_cpartmp>
    59da:	70 91 b3 01 	lds	r23, 0x01B3	; 0x8001b3 <lc_cpartmp+0x1>
    59de:	cb 01       	movw	r24, r22
    59e0:	8c 53       	subi	r24, 0x3C	; 60
    59e2:	9f 40       	sbci	r25, 0x0F	; 15
    59e4:	85 39       	cpi	r24, 0x95	; 149
    59e6:	95 47       	sbci	r25, 0x75	; 117
      lc_cpartmp = 0;
      wait_about100ms();
      ReadCapacity(TP1,TP3);
      lcd_line2();
      DisplayValue16(lc_cpartmp,-12,'F',4);
      i++;
    59e8:	80 f4       	brcc	.+32     	; 0x5a0a <sampling_lc_calibrate+0x78>
//      if ((lc_cpartmp<9500) || (lc_cpartmp>33000)) i=0;		// unstable or not connected
      if ((lc_cpartmp<3900) || (lc_cpartmp>34000)) i=0;		// unstable or not connected
 #ifdef AUTO_LC_CAP
      if ((lc_cpartmp == 0) && (ww > 249)) break;	// a coil is connected in the AUTO_LC_CAP mode
 #endif
      if (i > 4) {	// Cx measurement was stable
    59ea:	cf 5f       	subi	r28, 0xFF	; 255
    59ec:	c5 30       	cpi	r28, 0x05	; 5
           /* new cap value is out of tolerance */
 #else
        if (1)
 #endif
         {  /* rewrite new capacity value to eeprom and report OK */
            eeprom_write_word((uint16_t *)&lc_cpar_ee,lc_cpartmp);
    59ee:	70 f0       	brcs	.+28     	; 0x5a0c <sampling_lc_calibrate+0x7a>
    59f0:	89 e3       	ldi	r24, 0x39	; 57
    59f2:	93 e0       	ldi	r25, 0x03	; 3
    59f4:	7b d7       	rcall	.+3830   	; 0x68ec <eeprom_write_word>
	    lcd_space();
    59f6:	0e 94 11 02 	call	0x422	; 0x422 <lcd_space>
            lcd_MEM_string(OK_str);	// Output "OK"
    59fa:	87 e9       	ldi	r24, 0x97	; 151
    59fc:	91 e0       	ldi	r25, 0x01	; 1
    59fe:	0e 94 7c 02 	call	0x4f8	; 0x4f8 <lcd_fix_string>
            lcd_refresh();
            wait_about500ms();
    5a02:	84 e6       	ldi	r24, 0x64	; 100
    5a04:	0e 94 47 05 	call	0xa8e	; 0xa8e <sleep_5ms>
         }
         break;
    5a08:	05 c0       	rjmp	.+10     	; 0x5a14 <sampling_lc_calibrate+0x82>
      ReadCapacity(TP1,TP3);
      lcd_line2();
      DisplayValue16(lc_cpartmp,-12,'F',4);
      i++;
//      if ((lc_cpartmp<9500) || (lc_cpartmp>33000)) i=0;		// unstable or not connected
      if ((lc_cpartmp<3900) || (lc_cpartmp>34000)) i=0;		// unstable or not connected
    5a0a:	c0 e0       	ldi	r28, 0x00	; 0
            lcd_refresh();
            wait_about500ms();
         }
         break;
      }  /* end (i > 4) */
      lcd_clear_line();
    5a0c:	0e 94 d8 02 	call	0x5b0	; 0x5b0 <lcd_clear_line>
      lcd_refresh();
   } while (++ww != 0);
    5a10:	df 5f       	subi	r29, 0xFF	; 255
    5a12:	59 f6       	brne	.-106    	; 0x59aa <sampling_lc_calibrate+0x18>
   lcd_line1();
    5a14:	0e 94 3a 02 	call	0x474	; 0x474 <lcd_line1>
}
    5a18:	df 91       	pop	r29
    5a1a:	cf 91       	pop	r28
    5a1c:	08 95       	ret

00005a1e <main>:
	  // ADC_vect is always required by samplingADC()
	  EMPTY_INTERRUPT(ADC_vect);
        #endif

	//begin of transistortester program
	int main(void) {
    5a1e:	a0 e0       	ldi	r26, 0x00	; 0
    5a20:	b0 e0       	ldi	r27, 0x00	; 0
    5a22:	e4 e1       	ldi	r30, 0x14	; 20
    5a24:	fd e2       	ldi	r31, 0x2D	; 45
    5a26:	b4 c6       	rjmp	.+3432   	; 0x6790 <__prologue_saves__>
        uint16_t pw;
        uint8_t pb[2];
        } rpins;
        uint8_t x, y, z;
	  //switch on
	  ON_DDR = (1<<ON_PIN);			// switch to output
    5a28:	80 e4       	ldi	r24, 0x40	; 64
    5a2a:	8a b9       	out	0x0a, r24	; 10
	  ON_PORT = (1<<ON_PIN); 		// switch power on 
    5a2c:	8b b9       	out	0x0b, r24	; 11
	#ifndef PULLUP_DISABLE
	  RST_PORT |= (1<<RST_PIN); 	// enable internal Pullup for Start-Pin
	#endif
	  uint8_t tmp;
	  //ADC-Init
	  ADCSRA = (1<<ADEN) | AUTO_CLOCK_DIV;	//prescaler=8 or 64 (if 8Mhz clock)
    5a2e:	87 e8       	ldi	r24, 0x87	; 135
    5a30:	80 93 7a 00 	sts	0x007A, r24	; 0x80007a <__TEXT_REGION_LENGTH__+0x7e007a>
	 #define WDRF_HOME MCUCSR
	#else
	 #define WDRF_HOME MCUSR
	 #if FLASHEND > 0x3fff
	  // probably was a bootloader active, disable the UART
	  UCSR0B = 0;		// disable UART, if started with bootloader
    5a34:	10 92 c1 00 	sts	0x00C1, r1	; 0x8000c1 <__TEXT_REGION_LENGTH__+0x7e00c1>
	 #endif
	#endif
          wait500ms();
    5a38:	0e 94 26 05 	call	0xa4c	; 0xa4c <wait500ms>
	  SERIAL_PORT |= (1<<SERIAL_BIT);
         #endif
          SERIAL_DDR |= (1<<SERIAL_BIT);
	#endif

	  tmp = (WDRF_HOME & ((1<<WDRF)));	// save Watch Dog Flag
    5a3c:	c4 b7       	in	r28, 0x34	; 52
	  WDRF_HOME &= ~(1<<WDRF);	 	//reset Watch Dog flag
    5a3e:	84 b7       	in	r24, 0x34	; 52
    5a40:	87 7f       	andi	r24, 0xF7	; 247
    5a42:	84 bf       	out	0x34, r24	; 52
		);
	}
	else
	{
        uint8_t register temp_reg;
		__asm__ __volatile__ (
    5a44:	0f b6       	in	r0, 0x3f	; 63
    5a46:	f8 94       	cli
    5a48:	a8 95       	wdr
    5a4a:	80 91 60 00 	lds	r24, 0x0060	; 0x800060 <__TEXT_REGION_LENGTH__+0x7e0060>
    5a4e:	88 61       	ori	r24, 0x18	; 24
    5a50:	80 93 60 00 	sts	0x0060, r24	; 0x800060 <__TEXT_REGION_LENGTH__+0x7e0060>
    5a54:	10 92 60 00 	sts	0x0060, r1	; 0x800060 <__TEXT_REGION_LENGTH__+0x7e0060>
    5a58:	0f be       	out	0x3f, r0	; 63
	//  PRR1 =  (1<<PRTIM3) ;
	 #elif PROCESSOR_TYP == 1280
	  PRR0 = (1<<PRTWI) |  (1<<PRSPI) | (1<<PRUSART1);
	  PRR1 = (1<<PRTIM5) | (1<<PRTIM4) | (1<<PRTIM3) | (1<<PRUSART3) | (1<<PRUSART2) | (1<<PRUSART3);
	 #else
	  PRR = (1<<PRTWI) | (1<<PRSPI) | (1<<PRUSART0);
    5a5a:	86 e8       	ldi	r24, 0x86	; 134
    5a5c:	80 93 64 00 	sts	0x0064, r24	; 0x800064 <__TEXT_REGION_LENGTH__+0x7e0064>
	 #endif
//	disable digital inputs of Analog pins, but TP1-3 digital inputs must be left enabled for VGS measurement
	  DIDR0 = ((1<<ADC5D) | (1<<ADC4D) | (1<<ADC3D) | (1<<ADC2D) | (1<<ADC1D) | (1<<ADC0D)) & ~((1<<TP3) | (1<<TP2) | (1<<TP1));	
    5a60:	88 e3       	ldi	r24, 0x38	; 56
    5a62:	80 93 7e 00 	sts	0x007E, r24	; 0x80007e <__TEXT_REGION_LENGTH__+0x7e007e>
	  TCCR2A = (0<<WGM21) | (0<<WGM20);		// Counter 2 normal mode
    5a66:	10 92 b0 00 	sts	0x00B0, r1	; 0x8000b0 <__TEXT_REGION_LENGTH__+0x7e00b0>
	  TCCR2B = CNTR2_PRESCALER;	//prescaler set in autoconf
    5a6a:	87 e0       	ldi	r24, 0x07	; 7
    5a6c:	80 93 b1 00 	sts	0x00B1, r24	; 0x8000b1 <__TEXT_REGION_LENGTH__+0x7e00b1>
	#endif		/* INHIBIT_SLEEP_MODE */
	  sei();				// enable interrupts
    5a70:	78 94       	sei
	  lcd_init();				//initialize LCD
    5a72:	0e 94 a0 02 	call	0x540	; 0x540 <lcd_init>
		
	//  ADC_PORT = TXD_VAL;
	//  ADC_DDR = TXD_MSK;
	  if(tmp) { 
    5a76:	c3 fd       	sbrc	r28, 3
    5a78:	50 c5       	rjmp	.+2720   	; 0x651a <main+0xafc>

	#ifdef PULLUP_DISABLE
	 #ifdef __AVR_ATmega8__
	  SFIOR = (1<<PUD);		// disable Pull-Up Resistors mega8
	 #else
	  MCUCR = (1<<PUD);		// disable Pull-Up Resistors mega168 family
    5a7a:	80 e1       	ldi	r24, 0x10	; 16
    5a7c:	85 bf       	out	0x35, r24	; 53
#ifdef WITH_HARDWARE_SERIAL
//	ii = 60;
	ii = 30;
#else
	#if 1
	  for (ii=0; ii<60; ii++) {
    5a7e:	c0 e0       	ldi	r28, 0x00	; 0
		if (RST_PIN_REG & (1 << RST_PIN))
    5a80:	4f 99       	sbic	0x09, 7	; 9
    5a82:	06 c0       	rjmp	.+12     	; 0x5a90 <main+0x72>
			break;	// button is released
	     wait_about10ms();
    5a84:	82 e0       	ldi	r24, 0x02	; 2
    5a86:	0e 94 47 05 	call	0xa8e	; 0xa8e <sleep_5ms>
#ifdef WITH_HARDWARE_SERIAL
//	ii = 60;
	ii = 30;
#else
	#if 1
	  for (ii=0; ii<60; ii++) {
    5a8a:	cf 5f       	subi	r28, 0xFF	; 255
    5a8c:	cc 33       	cpi	r28, 0x3C	; 60
    5a8e:	c1 f7       	brne	.-16     	; 0x5a80 <main+0x62>
	  if (!(RST_PIN_REG & (1<<RST_PIN))) {
	     // key is still pressed
	     ii = wait_for_key_ms(700);	
	  }
	#endif
	  display_time = OFF_WAIT_TIME;		// LONG_WAIT_TIME for single mode, else SHORT_WAIT_TIME
    5a90:	8f e5       	ldi	r24, 0x5F	; 95
    5a92:	9d e6       	ldi	r25, 0x6D	; 109
    5a94:	90 93 13 01 	sts	0x0113, r25	; 0x800113 <display_time+0x1>
    5a98:	80 93 12 01 	sts	0x0112, r24	; 0x800112 <display_time>
	  if (ii > 30) {
    5a9c:	cf 31       	cpi	r28, 0x1F	; 31
    5a9e:	30 f0       	brcs	.+12     	; 0x5aac <main+0x8e>
	     display_time = LONG_WAIT_TIME;	// ... set long time display anyway
    5aa0:	80 e6       	ldi	r24, 0x60	; 96
    5aa2:	9d e6       	ldi	r25, 0x6D	; 109
    5aa4:	90 93 13 01 	sts	0x0113, r25	; 0x800113 <display_time+0x1>
    5aa8:	80 93 12 01 	sts	0x0112, r24	; 0x800112 <display_time>
#endif // WITH_HARDWARE_SERIAL
	#if POWER_OFF+0 > 1
	  empty_count = 0;
	  mess_count = 0;
	#endif
	  ADCconfig.RefFlag = 0;
    5aac:	10 92 2c 01 	sts	0x012C, r1	; 0x80012c <ADCconfig+0x1>
	  Calibrate_UR();		// get Ref Voltages and Pin resistance
    5ab0:	0e 94 23 19 	call	0x3246	; 0x3246 <Calibrate_UR>
				: "r0"
		);
	}
	else
	{
		__asm__ __volatile__ (
    5ab4:	9f e0       	ldi	r25, 0x0F	; 15
    5ab6:	88 e1       	ldi	r24, 0x18	; 24
    5ab8:	0f b6       	in	r0, 0x3f	; 63
    5aba:	f8 94       	cli
    5abc:	a8 95       	wdr
    5abe:	80 93 60 00 	sts	0x0060, r24	; 0x800060 <__TEXT_REGION_LENGTH__+0x7e0060>
    5ac2:	0f be       	out	0x3f, r0	; 63
    5ac4:	90 93 60 00 	sts	0x0060, r25	; 0x800060 <__TEXT_REGION_LENGTH__+0x7e0060>
	#ifdef WDT_enabled
	  wdt_enable(WDTO_2S);		//Watchdog on
	#endif
	#ifdef WITH_MENU
	  if (ii >= 60) {
    5ac8:	cc 33       	cpi	r28, 0x3C	; 60
    5aca:	99 f0       	breq	.+38     	; 0x5af2 <main+0xd4>
	#if ((LCD_ST_TYPE == 7565) || (LCD_ST_TYPE == 1306))
	  lcd_command(CMD_DISPLAY_ON);
	  lcd_command(CMD_SET_ALLPTS_NORMAL);		// 0xa4
	#endif
	  lcd_clear();			// clear the LCD
	  ADC_DDR = TXD_MSK;		// activate Software-UART 
    5acc:	38 e0       	ldi	r19, 0x08	; 8
    5ace:	83 2e       	mov	r8, r19
    5ad0:	42 e0       	ldi	r20, 0x02	; 2
    5ad2:	94 2e       	mov	r9, r20
    5ad4:	50 e1       	ldi	r21, 0x10	; 16
    5ad6:	75 2e       	mov	r7, r21
  mess_count++;			// count measurements
#endif
  max_time = display_time;	// full specified wait time

 end2:
  ADC_DDR = (1<<TPRELAY) | TXD_MSK; 	// switch pin with reference to GND, release relay
    5ad8:	68 e1       	ldi	r22, 0x18	; 24
    5ada:	66 2e       	mov	r6, r22
    unsigned char fetidx = 0;
    lcd_set_cursor(0,TEXT_RIGHT_TO_ICON);	// position behind the icon, Line 1
#endif
    if((PartMode&P_CHANNEL) == P_CHANNEL) {
       lcd_data('P');			//P-channel
       _trans = &ptrans;
    5adc:	79 e5       	ldi	r23, 0x59	; 89
    5ade:	e7 2e       	mov	r14, r23
    5ae0:	71 e0       	ldi	r23, 0x01	; 1
    5ae2:	f7 2e       	mov	r15, r23
       n_cval = cap.cval;			// save the found capacity value
       n_cpre  = cap.cpre;			// and dimension
       ReadCapacity(ptrans.b, ptrans.e);	// read capacity of PNP base-emitter
       // check if one hfe is very low. If yes, simulate a very low BE capacity
       if ((ntrans.hfe < 500) && (ptrans.hfe >= 500)) n_cpre = -16; // set NPN BE capacity to low value
       if ((ptrans.hfe < 500) && (ntrans.hfe >= 500)) cap.cpre = -16; // set PNP BE capacity to low value
    5ae4:	e0 ef       	ldi	r30, 0xF0	; 240
    5ae6:	2e 2e       	mov	r2, r30
           SerienDiodenAusgabe();
           goto end3;
        }
     } else if(NumOfDiodes == 3) {
        //Serial of 2 Diodes; was detected as 3 Diodes 
        diode_sequence = 0x33;	// 3 3
    5ae8:	f3 e3       	ldi	r31, 0x33	; 51
    5aea:	3f 2e       	mov	r3, r31
          }
			if (diodes.Cathode[1] == diodes.Anode[2]) {
           diode_sequence = 0x12;	// 1 2
          }
			if (diodes.Anode[1] == diodes.Cathode[2]) {
           diode_sequence = 0x21;	// 2 1
    5aec:	a1 e2       	ldi	r26, 0x21	; 33
    5aee:	5a 2e       	mov	r5, r26
	#ifdef WDT_enabled
	  wdt_enable(WDTO_2S);		//Watchdog on
	#endif
	#ifdef WITH_MENU
	  if (ii >= 60) {
		while(function_menu());		// selection of function
    5af0:	33 c0       	rjmp	.+102    	; 0x5b58 <main+0x13a>
    5af2:	88 d8       	rcall	.-3824   	; 0x4c04 <function_menu>
    5af4:	81 11       	cpse	r24, r1
    5af6:	fd cf       	rjmp	.-6      	; 0x5af2 <main+0xd4>
    5af8:	e9 cf       	rjmp	.-46     	; 0x5acc <main+0xae>
 #else
  #warning Capacity measurement from high to low not possible for diodes without PULLUP_DISABLE option!
 #endif  /* PULLUP_DISABLE */
#endif
        goto end3;
     } else if(NumOfDiodes == 2) { // double diode
    5afa:	82 30       	cpi	r24, 0x02	; 2
    5afc:	09 f4       	brne	.+2      	; 0x5b00 <main+0xe2>
    5afe:	58 c1       	rjmp	.+688    	; 0x5db0 <main+0x392>
        if (diodes.Cathode[1] == diodes.Anode[0]) {
           diode_sequence = 0x10;	// 1 0
           SerienDiodenAusgabe();
           goto end3;
        }
     } else if(NumOfDiodes == 3) {
    5b00:	83 30       	cpi	r24, 0x03	; 3
    5b02:	09 f4       	brne	.+2      	; 0x5b06 <main+0xe8>
    5b04:	82 c1       	rjmp	.+772    	; 0x5e0a <main+0x3ec>
           lcd_MEM_string(Dioden);	//"Diodes "
           SerienDiodenAusgabe();
           goto end3;
        }
     }  // end (NumOfDiodes == 3)
     lcd_MEM_string(Bauteil);		//"Bauteil"
    5b06:	86 e8       	ldi	r24, 0x86	; 134
    5b08:	92 e0       	ldi	r25, 0x02	; 2
    5b0a:	0e 94 7c 02 	call	0x4f8	; 0x4f8 <lcd_fix_string>
     lcd_MEM_string(Unknown); 		//" unbek."
    5b0e:	8e e6       	ldi	r24, 0x6E	; 110
    5b10:	92 e0       	ldi	r25, 0x02	; 2
    5b12:	0e 94 7c 02 	call	0x4f8	; 0x4f8 <lcd_fix_string>
     lcd_line2(); //2. row 
    5b16:	0e 94 48 02 	call	0x490	; 0x490 <lcd_line2>
     lcd_data(NumOfDiodes + '0');
    5b1a:	80 91 18 01 	lds	r24, 0x0118	; 0x800118 <NumOfDiodes>
    5b1e:	80 5d       	subi	r24, 0xD0	; 208
    5b20:	0e 94 d8 01 	call	0x3b0	; 0x3b0 <lcd_data>
     lcd_data('*');
    5b24:	8a e2       	ldi	r24, 0x2A	; 42
    5b26:	0e 94 d8 01 	call	0x3b0	; 0x3b0 <lcd_data>
     lcd_MEM_string(AnKat_str);		//"->|-"
    5b2a:	87 e2       	ldi	r24, 0x27	; 39
    5b2c:	91 e0       	ldi	r25, 0x01	; 1
    5b2e:	0e 94 7c 02 	call	0x4f8	; 0x4f8 <lcd_fix_string>
     lcd_MEM_string(Detected);		//" detected"
    5b32:	84 e5       	ldi	r24, 0x54	; 84
    5b34:	92 e0       	ldi	r25, 0x02	; 2
  lcd_MEM_string(Bauteil);		//"campione"
  lcd_space();
  lcd_MEM_string(TestFailed2); 		//"guasto "
#else
  lcd_MEM_string(TestFailed2); 		//"defektes "
  lcd_MEM_string(Bauteil);		//"Bauteil"
    5b36:	0e 94 7c 02 	call	0x4f8	; 0x4f8 <lcd_fix_string>
#endif
not_known:
   uart_newline();		// MAURO added
    5b3a:	0e 94 35 02 	call	0x46a	; 0x46a <uart_newline>
#endif
#if POWER_OFF+0 > 1
  empty_count++;
  mess_count = 0;
#endif
  max_time = SHORT_WAIT_TIME;		// use allways the short wait time
    5b3e:	80 e4       	ldi	r24, 0x40	; 64
    5b40:	9f e1       	ldi	r25, 0x1F	; 31
  mess_count++;			// count measurements
#endif
  max_time = display_time;	// full specified wait time

 end2:
  ADC_DDR = (1<<TPRELAY) | TXD_MSK; 	// switch pin with reference to GND, release relay
    5b42:	67 b8       	out	0x07, r6	; 7
  lcd_refresh();			// write the pixels to display, ST7920 only
	while (!(RST_PIN_REG & (1 << RST_PIN)))
    5b44:	4f 9b       	sbis	0x09, 7	; 9
    5b46:	fe cf       	rjmp	.-4      	; 0x5b44 <main+0x126>
		;	//wait ,until button is released
#ifdef WITH_ROTARY_SWITCH
wait_again:
#endif
  ii = wait_for_key_ms(max_time);
    5b48:	0e 94 f1 05 	call	0xbe2	; 0xbe2 <wait_for_key_ms>
#endif
#ifdef WITH_MENU
 #ifdef WITH_ROTARY_SWITCH
  if ((ii >=50) || (rotary.incre > 2))
 #else
  if (ii >= 50) 
    5b4c:	82 33       	cpi	r24, 0x32	; 50
    5b4e:	08 f4       	brcc	.+2      	; 0x5b52 <main+0x134>
 #endif
  {
     // menu selected by long key press or rotary switch
		while(function_menu());// start the function menu
    5b50:	77 c4       	rjmp	.+2286   	; 0x6440 <main+0xa22>
    5b52:	58 d8       	rcall	.-3920   	; 0x4c04 <function_menu>
    5b54:	81 11       	cpse	r24, r1
    5b56:	fd cf       	rjmp	.-6      	; 0x5b52 <main+0x134>
	loop_start:
	#if ((LCD_ST_TYPE == 7565) || (LCD_ST_TYPE == 1306))
	  lcd_command(CMD_DISPLAY_ON);
	  lcd_command(CMD_SET_ALLPTS_NORMAL);		// 0xa4
	#endif
	  lcd_clear();			// clear the LCD
    5b58:	0e 94 42 02 	call	0x484	; 0x484 <lcd_clear>
	  ADC_DDR = TXD_MSK;		// activate Software-UART 
    5b5c:	87 b8       	out	0x07, r8	; 7
          init_parts();			// reset parts info to nothing found
    5b5e:	0e 94 f0 06 	call	0xde0	; 0xde0 <init_parts>
	  Calibrate_UR();		// get Ref Voltages and Pin resistance
    5b62:	0e 94 23 19 	call	0x3246	; 0x3246 <Calibrate_UR>
	  lcd_line1();			// Cursor to 1. row, column 1
    5b66:	0e 94 3a 02 	call	0x474	; 0x474 <lcd_line1>
	  
	#ifdef BAT_CHECK
	  // Battery check is selected
        Battery_check();
    5b6a:	0e 94 58 0b 	call	0x16b0	; 0x16b0 <Battery_check>
	  lcd_MEM_string(VERSION_str);		// if no Battery check, Version .. in row 1
	#endif	/* BAT_CHECK */

	  // begin tests
	#if FLASHEND > 0x1fff
	  if (WithReference) {
    5b6e:	80 91 3a 01 	lds	r24, 0x013A	; 0x80013a <WithReference>
    5b72:	88 23       	and	r24, r24
    5b74:	81 f0       	breq	.+32     	; 0x5b96 <main+0x178>
	 #if POWER_OFF+0 > 1
	     if ((mess_count == 0) && (empty_count == 0))
	 #endif
	     {
		 /* display VCC= only first time */
		 lcd_line2();
    5b76:	0e 94 48 02 	call	0x490	; 0x490 <lcd_line2>
		 lcd_MEM_string(VCC_str);		// VCC=
    5b7a:	82 e4       	ldi	r24, 0x42	; 66
    5b7c:	91 e0       	ldi	r25, 0x01	; 1
    5b7e:	0e 94 7c 02 	call	0x4f8	; 0x4f8 <lcd_fix_string>
		 Display_mV(ADCconfig.U_AVCC,3);	// Display 3 Digits of this mV units
    5b82:	63 e0       	ldi	r22, 0x03	; 3
    5b84:	80 91 2f 01 	lds	r24, 0x012F	; 0x80012f <ADCconfig+0x4>
    5b88:	90 91 30 01 	lds	r25, 0x0130	; 0x800130 <ADCconfig+0x5>
    5b8c:	0e 94 fa 04 	call	0x9f4	; 0x9f4 <Display_mV>
		 lcd_refresh();			// write the pixels to display, ST7920 only
		 wait_about1s();		// time to read the VCC= message
    5b90:	88 ec       	ldi	r24, 0xC8	; 200
    5b92:	0e 94 47 05 	call	0xa8e	; 0xa8e <sleep_5ms>
	     wait_about300ms();		// delay to read the Vext= message
	  }
	#endif /* WITH_VEXT */

	#ifndef DebugOut
	  lcd_line2();			//LCD position row 2, column 1
    5b96:	0e 94 48 02 	call	0x490	; 0x490 <lcd_line2>
	#endif
	  EntladePins();		// discharge all capacitors!
    5b9a:	0e 94 04 15 	call	0x2a08	; 0x2a08 <EntladePins>
	  if(PartFound == PART_CELL) {
    5b9e:	80 91 1a 01 	lds	r24, 0x011A	; 0x80011a <PartFound>
    5ba2:	89 30       	cpi	r24, 0x09	; 9
    5ba4:	41 f5       	brne	.+80     	; 0x5bf6 <main+0x1d8>
	    lcd_clear();
    5ba6:	0e 94 42 02 	call	0x484	; 0x484 <lcd_clear>
	    lcd_MEM_string(Cell_str);	// display "Cell!"
    5baa:	87 e4       	ldi	r24, 0x47	; 71
    5bac:	91 e0       	ldi	r25, 0x01	; 1
    5bae:	0e 94 7c 02 	call	0x4f8	; 0x4f8 <lcd_fix_string>
	#if FLASHEND > 0x3fff
	    lcd_line2();		// use LCD line 2
    5bb2:	0e 94 48 02 	call	0x490	; 0x490 <lcd_line2>
	    Display_mV(cell_mv[0],3);
    5bb6:	63 e0       	ldi	r22, 0x03	; 3
    5bb8:	80 91 03 01 	lds	r24, 0x0103	; 0x800103 <cell_mv>
    5bbc:	90 91 04 01 	lds	r25, 0x0104	; 0x800104 <cell_mv+0x1>
    5bc0:	0e 94 fa 04 	call	0x9f4	; 0x9f4 <Display_mV>
	    lcd_space();
    5bc4:	0e 94 11 02 	call	0x422	; 0x422 <lcd_space>
	    Display_mV(cell_mv[1],3);
    5bc8:	63 e0       	ldi	r22, 0x03	; 3
    5bca:	80 91 05 01 	lds	r24, 0x0105	; 0x800105 <cell_mv+0x2>
    5bce:	90 91 06 01 	lds	r25, 0x0106	; 0x800106 <cell_mv+0x3>
    5bd2:	0e 94 fa 04 	call	0x9f4	; 0x9f4 <Display_mV>
	    lcd_space();
    5bd6:	0e 94 11 02 	call	0x422	; 0x422 <lcd_space>
	    Display_mV(cell_mv[2],3);
    5bda:	63 e0       	ldi	r22, 0x03	; 3
    5bdc:	80 91 07 01 	lds	r24, 0x0107	; 0x800107 <cell_mv+0x4>
    5be0:	90 91 08 01 	lds	r25, 0x0108	; 0x800108 <cell_mv+0x5>
    5be4:	0e 94 fa 04 	call	0x9f4	; 0x9f4 <Display_mV>
	#endif
	#ifdef WITH_SELFTEST
	    lcd_refresh();			// write the pixels to display, ST7920 only
	    wait_about2s();
    5be8:	8a ec       	ldi	r24, 0xCA	; 202
    5bea:	0e 94 47 05 	call	0xa8e	; 0xa8e <sleep_5ms>
	    AutoCheck(0x11);		// full Selftest with "Short probes" message
    5bee:	81 e1       	ldi	r24, 0x11	; 17
    5bf0:	0e 94 6d 07 	call	0xeda	; 0xeda <AutoCheck>
	#endif
	    goto tt_end;
    5bf4:	20 c4       	rjmp	.+2112   	; 0x6436 <main+0xa18>
	  }

	#ifdef WITH_SELFTEST
	 #ifdef AUTO_CAL
	  lcd_cursor_off();
    5bf6:	8c e0       	ldi	r24, 0x0C	; 12
    5bf8:	0e 94 20 02 	call	0x440	; 0x440 <lcd_command>
	  UnCalibrated = (eeprom_read_byte(&c_zero_tab[3]) - eeprom_read_byte(&c_zero_tab[0]));
    5bfc:	87 e2       	ldi	r24, 0x27	; 39
    5bfe:	93 e0       	ldi	r25, 0x03	; 3
    5c00:	5a d6       	rcall	.+3252   	; 0x68b6 <eeprom_read_byte>
    5c02:	c8 2f       	mov	r28, r24
    5c04:	84 e2       	ldi	r24, 0x24	; 36
    5c06:	93 e0       	ldi	r25, 0x03	; 3
    5c08:	56 d6       	rcall	.+3244   	; 0x68b6 <eeprom_read_byte>
    5c0a:	c8 1b       	sub	r28, r24
    5c0c:	c0 93 37 01 	sts	0x0137, r28	; 0x800137 <UnCalibrated>
	  if (UnCalibrated != 0) {
    5c10:	cc 23       	and	r28, r28
    5c12:	19 f0       	breq	.+6      	; 0x5c1a <main+0x1fc>
	     // if calibrated, both c_zero_tab values are identical! c_zero_tab[3] is not used otherwise
	     lcd_cursor_on();
    5c14:	8e e0       	ldi	r24, 0x0E	; 14
    5c16:	0e 94 20 02 	call	0x440	; 0x440 <lcd_command>
	  }
	 #endif
	 #ifdef WITH_MENU
	  AutoCheck(0x00);			//check, if selftest should be done, only calibration
    5c1a:	80 e0       	ldi	r24, 0x00	; 0
    5c1c:	0e 94 6d 07 	call	0xeda	; 0xeda <AutoCheck>
	 #else
	  AutoCheck(0x01);			//check, if selftest should be done, full selftest without MENU
	 #endif
	#endif
	#if FLASHEND > 0x1fff
          lcd_clear_line2();			//LCD position row2, column 1
    5c20:	0e 94 03 03 	call	0x606	; 0x606 <lcd_clear_line2>
        #else
          lcd_line2();				//LCD position row2, column 1
        #endif
	  lcd_MEM_string(TestRunning);		//String: testing...
    5c24:	80 ea       	ldi	r24, 0xA0	; 160
    5c26:	92 e0       	ldi	r25, 0x02	; 2
    5c28:	0e 94 7c 02 	call	0x4f8	; 0x4f8 <lcd_fix_string>
	  lcd_refresh();			// write the pixels to display, ST7920 only
	 #ifdef WITH_UART
	    uart_putc(0x03);		// ETX, start of new measurement 
    5c2c:	83 e0       	ldi	r24, 0x03	; 3
    5c2e:	0e 94 0e 05 	call	0xa1c	; 0xa1c <uart_putc>
	    uart_newline();			 // MAURO Added
    5c32:	0e 94 35 02 	call	0x46a	; 0x46a <uart_newline>
	 #endif
//
	  // check all 6 combinations for the 3 pins 
	//         High  Low  Tri
	  CheckPins(TP1, TP2, TP3);
    5c36:	42 e0       	ldi	r20, 0x02	; 2
    5c38:	61 e0       	ldi	r22, 0x01	; 1
    5c3a:	80 e0       	ldi	r24, 0x00	; 0
    5c3c:	0e 94 bb 0b 	call	0x1776	; 0x1776 <CheckPins>
	  CheckPins(TP2, TP1, TP3);
    5c40:	42 e0       	ldi	r20, 0x02	; 2
    5c42:	60 e0       	ldi	r22, 0x00	; 0
    5c44:	81 e0       	ldi	r24, 0x01	; 1
    5c46:	0e 94 bb 0b 	call	0x1776	; 0x1776 <CheckPins>

	  CheckPins(TP1, TP3, TP2);
    5c4a:	41 e0       	ldi	r20, 0x01	; 1
    5c4c:	62 e0       	ldi	r22, 0x02	; 2
    5c4e:	80 e0       	ldi	r24, 0x00	; 0
    5c50:	0e 94 bb 0b 	call	0x1776	; 0x1776 <CheckPins>
	  CheckPins(TP3, TP1, TP2);
    5c54:	41 e0       	ldi	r20, 0x01	; 1
    5c56:	60 e0       	ldi	r22, 0x00	; 0
    5c58:	82 e0       	ldi	r24, 0x02	; 2
    5c5a:	0e 94 bb 0b 	call	0x1776	; 0x1776 <CheckPins>

	  CheckPins(TP2, TP3, TP1);
    5c5e:	40 e0       	ldi	r20, 0x00	; 0
    5c60:	62 e0       	ldi	r22, 0x02	; 2
    5c62:	81 e0       	ldi	r24, 0x01	; 1
    5c64:	0e 94 bb 0b 	call	0x1776	; 0x1776 <CheckPins>
	  CheckPins(TP3, TP2, TP1);
    5c68:	40 e0       	ldi	r20, 0x00	; 0
    5c6a:	61 e0       	ldi	r22, 0x01	; 1
    5c6c:	82 e0       	ldi	r24, 0x02	; 2
    5c6e:	0e 94 bb 0b 	call	0x1776	; 0x1776 <CheckPins>

	  // Capacity measurement is only possible correctly with two Pins connected.
	  // A third connected pin will increase the capacity value!
	//  if(((PartFound == PART_NONE) || (PartFound == PART_RESISTOR) || (PartFound == PART_DIODE)) ) {
	  if(PartFound == PART_NONE) {
    5c72:	80 91 1a 01 	lds	r24, 0x011A	; 0x80011a <PartFound>
    5c76:	81 11       	cpse	r24, r1
    5c78:	0e c0       	rjmp	.+28     	; 0x5c96 <main+0x278>
	     // If no part is found yet, check separate if is is a capacitor
#ifdef DebugOut
	     lcd_data('C');
#endif
	     EntladePins();		// discharge capacities
    5c7a:	0e 94 04 15 	call	0x2a08	; 0x2a08 <EntladePins>
	     //measurement of capacities in all 3 combinations
	     ReadCapacity(TP3, TP1);
    5c7e:	60 e0       	ldi	r22, 0x00	; 0
    5c80:	82 e0       	ldi	r24, 0x02	; 2
    5c82:	0e 94 d4 15 	call	0x2ba8	; 0x2ba8 <ReadCapacity>
#ifdef DebugOut
	     lcd_data('K');
#endif
	#if DebugOut != 10
	     ReadCapacity(TP3, TP2);
    5c86:	61 e0       	ldi	r22, 0x01	; 1
    5c88:	82 e0       	ldi	r24, 0x02	; 2
    5c8a:	0e 94 d4 15 	call	0x2ba8	; 0x2ba8 <ReadCapacity>
#ifdef DebugOut
	     lcd_data('K');
#endif
	     ReadCapacity(TP2, TP1);
    5c8e:	60 e0       	ldi	r22, 0x00	; 0
    5c90:	81 e0       	ldi	r24, 0x01	; 1
    5c92:	0e 94 d4 15 	call	0x2ba8	; 0x2ba8 <ReadCapacity>
	#ifdef DebugOut 
	  // only clear two lines of LCD

	  lcd_clear_line1();
	#else
	  lcd_clear();				// clear total display
    5c96:	0e 94 42 02 	call	0x484	; 0x484 <lcd_clear>
	#endif

	  _trans = &ntrans;			// default transistor structure to show
    5c9a:	8f e3       	ldi	r24, 0x3F	; 63
    5c9c:	91 e0       	ldi	r25, 0x01	; 1
    5c9e:	90 93 3d 01 	sts	0x013D, r25	; 0x80013d <_trans+0x1>
    5ca2:	80 93 3c 01 	sts	0x013C, r24	; 0x80013c <_trans>
	  if (PartFound == PART_THYRISTOR) {
    5ca6:	80 91 1a 01 	lds	r24, 0x011A	; 0x80011a <PartFound>
    5caa:	86 30       	cpi	r24, 0x06	; 6
    5cac:	41 f4       	brne	.+16     	; 0x5cbe <main+0x2a0>
            lcd_big_icon(THYRISTOR|LCD_UPPER_LEFT);
            lcd_draw_trans_pins(-8, 16);
            lcd_set_cursor(0,TEXT_RIGHT_TO_ICON);		// position behind the icon, Line 1
	    lcd_MEM_string(Thyristor);		//"Thyristor"
#else
	    lcd_MEM_string(Thyristor);		//"Thyristor"
    5cae:	87 e7       	ldi	r24, 0x77	; 119
    5cb0:	92 e0       	ldi	r25, 0x02	; 2
    5cb2:	0e 94 7c 02 	call	0x4f8	; 0x4f8 <lcd_fix_string>
            PinLayout(Cathode_char,'G','A'); 	// CGA= or 123=...
    5cb6:	41 e4       	ldi	r20, 0x41	; 65
    5cb8:	67 e4       	ldi	r22, 0x47	; 71
    5cba:	83 e4       	ldi	r24, 0x43	; 67
    5cbc:	09 c0       	rjmp	.+18     	; 0x5cd0 <main+0x2b2>
#endif
            goto TyUfAusgabe;
          }

  if (PartFound == PART_TRIAC) {
    5cbe:	87 30       	cpi	r24, 0x07	; 7
    5cc0:	b9 f4       	brne	.+46     	; 0x5cf0 <main+0x2d2>
    lcd_big_icon(TRIAC|LCD_UPPER_LEFT);
    lcd_draw_trans_pins(-8, 16);
    lcd_set_cursor(0,TEXT_RIGHT_TO_ICON);		// position behind the icon, Line 1
    lcd_MEM_string(Triac);		//"Triac"
#else
    lcd_MEM_string(Triac);		//"Triac"
    5cc2:	80 e8       	ldi	r24, 0x80	; 128
    5cc4:	92 e0       	ldi	r25, 0x02	; 2
    5cc6:	0e 94 7c 02 	call	0x4f8	; 0x4f8 <lcd_fix_string>
    PinLayout('1','G','2'); 	// CGA= or 123=...
    5cca:	42 e3       	ldi	r20, 0x32	; 50
    5ccc:	67 e4       	ldi	r22, 0x47	; 71
    5cce:	81 e3       	ldi	r24, 0x31	; 49
    5cd0:	0e 94 4c 03 	call	0x698	; 0x698 <PinLayout>
TyUfAusgabe:
#ifdef WITH_THYRISTOR_GATE_V
 #ifdef WITH_GRAPHICS
  lcd_set_cursor(1*PAGES_PER_LINE,TEXT_RIGHT_TO_ICON);		// position behind the icon,line 2
 #else
  lcd_line2(); //2. row 
    5cd4:	0e 94 48 02 	call	0x490	; 0x490 <lcd_line2>
 #endif
  lcd_MEM_string(Uf_str);		// "Uf="
    5cd8:	8b e5       	ldi	r24, 0x5B	; 91
    5cda:	91 e0       	ldi	r25, 0x01	; 1
    5cdc:	0e 94 7c 02 	call	0x4f8	; 0x4f8 <lcd_fix_string>
 #ifdef WITH_PUT
  Display_mV(_trans->uBE,2);    // needed instead of ntrans for PUT, but costs 4 bytes more flash...
 #else
  Display_mV(ntrans.uBE,2);
    5ce0:	62 e0       	ldi	r22, 0x02	; 2
    5ce2:	80 91 43 01 	lds	r24, 0x0143	; 0x800143 <ntrans+0x4>
    5ce6:	90 91 44 01 	lds	r25, 0x0144	; 0x800144 <ntrans+0x5>
    5cea:	0e 94 fa 04 	call	0x9f4	; 0x9f4 <Display_mV>
    5cee:	a1 c3       	rjmp	.+1858   	; 0x6432 <main+0xa14>
 #endif	 /* SamplingADC */
      goto tt_end;
   }
#endif /* WITH_UJT */

  if (PartFound == PART_CAPACITOR) {
    5cf0:	88 30       	cpi	r24, 0x08	; 8
    5cf2:	81 f4       	brne	.+32     	; 0x5d14 <main+0x2f6>
#if FLASHEND > 0x3fff
     if ((cap.ca + cap.cb) == (TP1 + TP3)) {
    5cf4:	20 91 83 01 	lds	r18, 0x0183	; 0x800183 <cap+0x10>
    5cf8:	80 91 84 01 	lds	r24, 0x0184	; 0x800184 <cap+0x11>
    5cfc:	90 e0       	ldi	r25, 0x00	; 0
    5cfe:	82 0f       	add	r24, r18
    5d00:	91 1d       	adc	r25, r1
    5d02:	02 97       	sbiw	r24, 0x02	; 2
    5d04:	19 f4       	brne	.+6      	; 0x5d0c <main+0x2ee>
        show_Cap13();		// repeated capacity measurement
    5d06:	0e 94 a6 1b 	call	0x374c	; 0x374c <show_Cap13>
        goto shut_off;		// key was pressed or timeout
    5d0a:	9c c3       	rjmp	.+1848   	; 0x6444 <main+0xa26>
     }
     show_cap(0);		// show capacity in normal way and measure additional parameters
    5d0c:	80 e0       	ldi	r24, 0x00	; 0
    5d0e:	0e 94 b9 1a 	call	0x3572	; 0x3572 <show_cap>
#else
     show_cap_simple();		// show capacity in normal way and measure additional parameters
#endif
     goto tt_end;
    5d12:	91 c3       	rjmp	.+1826   	; 0x6436 <main+0xa18>
      goto tt_end;
  }
#endif

  // ========================================
  if(PartFound == PART_DIODE) {
    5d14:	83 30       	cpi	r24, 0x03	; 3
    5d16:	09 f0       	breq	.+2      	; 0x5d1a <main+0x2fc>
    5d18:	b3 c0       	rjmp	.+358    	; 0x5e80 <main+0x462>
  // ========================================
     if(NumOfDiodes == 1) {		//single Diode
    5d1a:	80 91 18 01 	lds	r24, 0x0118	; 0x800118 <NumOfDiodes>
    5d1e:	81 30       	cpi	r24, 0x01	; 1
    5d20:	09 f0       	breq	.+2      	; 0x5d24 <main+0x306>
    5d22:	eb ce       	rjmp	.-554    	; 0x5afa <main+0xdc>
//        lcd_MEM_string(Diode);		//"Diode: "
#if FLASHEND > 0x1fff
        // enough memory (>8k) to sort the pins and additional Ir=
        DiodeSymbol_withPins(0);
    5d24:	80 e0       	ldi	r24, 0x00	; 0
    5d26:	0e 94 d9 03 	call	0x7b2	; 0x7b2 <DiodeSymbol_withPins>
	GetIr(diodes.Cathode[0],diodes.Anode[0]);	// measure and output Ir=x.xuA
    5d2a:	60 91 89 01 	lds	r22, 0x0189	; 0x800189 <diodes>
    5d2e:	80 91 8f 01 	lds	r24, 0x018F	; 0x80018f <diodes+0x6>
    5d32:	0e 94 11 0b 	call	0x1622	; 0x1622 <GetIr>
#else
        // too less memory to sort the pins
        DiodeSymbol_withPins(0);
#endif
        UfAusgabe(0x70);		// mark for additional resistor and output Uf= in line 2
    5d36:	80 e7       	ldi	r24, 0x70	; 112
    5d38:	0e 94 b1 03 	call	0x762	; 0x762 <UfAusgabe>
           DisplayValue(cap.cval,cap.cpre,'F',2);
 #endif
        }
#else  // SamplingADC
showdiodecap:
        cap.cval=sampling_cap(diodes.Cathode[0],diodes.Anode[0],0);   // at low voltage
    5d3c:	40 e0       	ldi	r20, 0x00	; 0
    5d3e:	60 91 89 01 	lds	r22, 0x0189	; 0x800189 <diodes>
    5d42:	80 91 8f 01 	lds	r24, 0x018F	; 0x80018f <diodes+0x6>
    5d46:	4b da       	rcall	.-2922   	; 0x51de <sampling_cap>
    5d48:	60 93 73 01 	sts	0x0173, r22	; 0x800173 <cap>
    5d4c:	70 93 74 01 	sts	0x0174, r23	; 0x800174 <cap+0x1>
    5d50:	80 93 75 01 	sts	0x0175, r24	; 0x800175 <cap+0x2>
    5d54:	90 93 76 01 	sts	0x0176, r25	; 0x800176 <cap+0x3>
        lcd_next_line_wait(0);		// next line, wait 5s and clear line 2
    5d58:	80 e0       	ldi	r24, 0x00	; 0
    5d5a:	0e 94 f7 02 	call	0x5ee	; 0x5ee <lcd_next_line_wait>
        DisplayValue(cap.cval,sampling_cap_pre,'F',2);
    5d5e:	60 91 73 01 	lds	r22, 0x0173	; 0x800173 <cap>
    5d62:	70 91 74 01 	lds	r23, 0x0174	; 0x800174 <cap+0x1>
    5d66:	80 91 75 01 	lds	r24, 0x0175	; 0x800175 <cap+0x2>
    5d6a:	90 91 76 01 	lds	r25, 0x0176	; 0x800176 <cap+0x3>
    5d6e:	02 e0       	ldi	r16, 0x02	; 2
    5d70:	26 e4       	ldi	r18, 0x46	; 70
    5d72:	42 ef       	ldi	r20, 0xF2	; 242
    5d74:	0e 94 05 04 	call	0x80a	; 0x80a <DisplayValue>
 #ifdef PULLUP_DISABLE
        lcd_data('-');
    5d78:	8d e2       	ldi	r24, 0x2D	; 45
    5d7a:	0e 94 d8 01 	call	0x3b0	; 0x3b0 <lcd_data>
        cap.cval=sampling_cap(diodes.Cathode[0],diodes.Anode[0],1);   // at high voltage
    5d7e:	41 e0       	ldi	r20, 0x01	; 1
    5d80:	60 91 89 01 	lds	r22, 0x0189	; 0x800189 <diodes>
    5d84:	80 91 8f 01 	lds	r24, 0x018F	; 0x80018f <diodes+0x6>
    5d88:	2a da       	rcall	.-2988   	; 0x51de <sampling_cap>
    5d8a:	60 93 73 01 	sts	0x0173, r22	; 0x800173 <cap>
    5d8e:	70 93 74 01 	sts	0x0174, r23	; 0x800174 <cap+0x1>
    5d92:	80 93 75 01 	sts	0x0175, r24	; 0x800175 <cap+0x2>
    5d96:	90 93 76 01 	sts	0x0176, r25	; 0x800176 <cap+0x3>
        if (cap.cval < 0) cap.cval = 0;		// don't show negativ value
        DisplayValue(cap.cval,sampling_cap_pre,'F',2);
    5d9a:	26 e4       	ldi	r18, 0x46	; 70
    5d9c:	42 ef       	ldi	r20, 0xF2	; 242
    5d9e:	0e 94 05 04 	call	0x80a	; 0x80a <DisplayValue>
  #if LCD_LINE_LENGTH > 16
        lcd_MEM_string(AT05volt);	// " @0-5V"
  #else
        lcd_MEM_string(AT05volt+1);	// "@0-5V"
    5da2:	8d e1       	ldi	r24, 0x1D	; 29
    5da4:	91 e0       	ldi	r25, 0x01	; 1
    5da6:	0e 94 7c 02 	call	0x4f8	; 0x4f8 <lcd_fix_string>
  #endif
        uart_newline();			// MAURO Diode ('A')
    5daa:	0e 94 35 02 	call	0x46a	; 0x46a <uart_newline>
 #else
  #warning Capacity measurement from high to low not possible for diodes without PULLUP_DISABLE option!
 #endif  /* PULLUP_DISABLE */
#endif
        goto end3;
    5dae:	96 c2       	rjmp	.+1324   	; 0x62dc <main+0x8be>
     } else if(NumOfDiodes == 2) { // double diode
        lcd_data('2');
    5db0:	82 e3       	ldi	r24, 0x32	; 50
    5db2:	0e 94 d8 01 	call	0x3b0	; 0x3b0 <lcd_data>
        lcd_MEM_string(Dioden);		//"diodes "
    5db6:	8d e0       	ldi	r24, 0x0D	; 13
    5db8:	91 e0       	ldi	r25, 0x01	; 1
    5dba:	0e 94 7c 02 	call	0x4f8	; 0x4f8 <lcd_fix_string>
        if(diodes.Anode[0] == diodes.Anode[1]) { //Common Anode
    5dbe:	90 91 89 01 	lds	r25, 0x0189	; 0x800189 <diodes>
    5dc2:	30 91 8a 01 	lds	r19, 0x018A	; 0x80018a <diodes+0x1>
    5dc6:	93 13       	cpse	r25, r19
    5dc8:	07 c0       	rjmp	.+14     	; 0x5dd8 <main+0x3ba>
           DiodeSymbol_CpinApin(0);	// 1-|<-2
    5dca:	80 e0       	ldi	r24, 0x00	; 0
    5dcc:	0e 94 f5 03 	call	0x7ea	; 0x7ea <DiodeSymbol_CpinApin>
           DiodeSymbol_ACpin(1);	//  ->|-3
    5dd0:	81 e0       	ldi	r24, 0x01	; 1
    5dd2:	0e 94 ec 03 	call	0x7d8	; 0x7d8 <DiodeSymbol_ACpin>
    5dd6:	0c c0       	rjmp	.+24     	; 0x5df0 <main+0x3d2>
           goto showdiodecap;   // double diodes are often varicap; measure capacitance of one of them
#else
           goto end3;
#endif
        } 
        if(diodes.Cathode[0] == diodes.Cathode[1]) { //Common Cathode
    5dd8:	20 91 8f 01 	lds	r18, 0x018F	; 0x80018f <diodes+0x6>
    5ddc:	80 91 90 01 	lds	r24, 0x0190	; 0x800190 <diodes+0x7>
    5de0:	28 13       	cpse	r18, r24
    5de2:	08 c0       	rjmp	.+16     	; 0x5df4 <main+0x3d6>
           DiodeSymbol_ApinCpin(0);	// 1->|-2
    5de4:	80 e0       	ldi	r24, 0x00	; 0
    5de6:	0e 94 e5 03 	call	0x7ca	; 0x7ca <DiodeSymbol_ApinCpin>
           DiodeSymbol_CApin(1);	//  -|<-3
    5dea:	81 e0       	ldi	r24, 0x01	; 1
    5dec:	0e 94 fc 03 	call	0x7f8	; 0x7f8 <DiodeSymbol_CApin>
           UfAusgabe(0x01);
    5df0:	81 e0       	ldi	r24, 0x01	; 1
    5df2:	a2 cf       	rjmp	.-188    	; 0x5d38 <main+0x31a>
#else
           goto end3;
#endif
//        else if ((diodes.Cathode[0] == diodes.Anode[1]) && (diodes.Cathode[1] == diodes.Anode[0])) 
        } 
        if (diodes.Cathode[0] == diodes.Anode[1]) {
    5df4:	32 13       	cpse	r19, r18
    5df6:	04 c0       	rjmp	.+8      	; 0x5e00 <main+0x3e2>
           // normaly two serial diodes are detected as three diodes, but if the threshold is high
           // for both diodes, the third diode is not detected.
           // can also be Antiparallel
           diode_sequence = 0x01;	// 0 1
    5df8:	81 e0       	ldi	r24, 0x01	; 1
    5dfa:	80 93 0d 01 	sts	0x010D, r24	; 0x80010d <diode_sequence>
    5dfe:	33 c0       	rjmp	.+102    	; 0x5e66 <main+0x448>
           SerienDiodenAusgabe();
           goto end3;
        } 
        if (diodes.Cathode[1] == diodes.Anode[0]) {
    5e00:	98 13       	cpse	r25, r24
    5e02:	81 ce       	rjmp	.-766    	; 0x5b06 <main+0xe8>
           diode_sequence = 0x10;	// 1 0
    5e04:	70 92 0d 01 	sts	0x010D, r7	; 0x80010d <diode_sequence>
    5e08:	2e c0       	rjmp	.+92     	; 0x5e66 <main+0x448>
           SerienDiodenAusgabe();
           goto end3;
        }
     } else if(NumOfDiodes == 3) {
        //Serial of 2 Diodes; was detected as 3 Diodes 
        diode_sequence = 0x33;	// 3 3
    5e0a:	30 92 0d 01 	sts	0x010D, r3	; 0x80010d <diode_sequence>
        /* Check for any constellation of 2 serial diodes:
          Only once the pin No of anyone Cathode is identical of another anode.
          two diodes in series is additionally detected as third big diode.
        */
			if (diodes.Cathode[0] == diodes.Anode[1]) {
    5e0e:	80 91 8f 01 	lds	r24, 0x018F	; 0x80018f <diodes+0x6>
    5e12:	90 91 8a 01 	lds	r25, 0x018A	; 0x80018a <diodes+0x1>
    5e16:	89 13       	cpse	r24, r25
    5e18:	03 c0       	rjmp	.+6      	; 0x5e20 <main+0x402>
           diode_sequence = 0x01;	// 0 1
    5e1a:	21 e0       	ldi	r18, 0x01	; 1
    5e1c:	20 93 0d 01 	sts	0x010D, r18	; 0x80010d <diode_sequence>
          }
			if (diodes.Anode[0] == diodes.Cathode[1]) {
    5e20:	40 91 89 01 	lds	r20, 0x0189	; 0x800189 <diodes>
    5e24:	30 91 90 01 	lds	r19, 0x0190	; 0x800190 <diodes+0x7>
    5e28:	43 13       	cpse	r20, r19
    5e2a:	02 c0       	rjmp	.+4      	; 0x5e30 <main+0x412>
           diode_sequence = 0x10;	// 1 0
    5e2c:	70 92 0d 01 	sts	0x010D, r7	; 0x80010d <diode_sequence>
          }
			if (diodes.Cathode[0] == diodes.Anode[2]) {
    5e30:	20 91 8b 01 	lds	r18, 0x018B	; 0x80018b <diodes+0x2>
    5e34:	82 13       	cpse	r24, r18
    5e36:	02 c0       	rjmp	.+4      	; 0x5e3c <main+0x41e>
           diode_sequence = 0x02;	// 0 2
    5e38:	90 92 0d 01 	sts	0x010D, r9	; 0x80010d <diode_sequence>
          }
			if (diodes.Anode[0] == diodes.Cathode[2]) {
    5e3c:	80 91 91 01 	lds	r24, 0x0191	; 0x800191 <diodes+0x8>
    5e40:	48 13       	cpse	r20, r24
    5e42:	03 c0       	rjmp	.+6      	; 0x5e4a <main+0x42c>
           diode_sequence = 0x20;	// 2 0
    5e44:	40 e2       	ldi	r20, 0x20	; 32
    5e46:	40 93 0d 01 	sts	0x010D, r20	; 0x80010d <diode_sequence>
          }
			if (diodes.Cathode[1] == diodes.Anode[2]) {
    5e4a:	32 13       	cpse	r19, r18
    5e4c:	0f c0       	rjmp	.+30     	; 0x5e6c <main+0x44e>
           diode_sequence = 0x12;	// 1 2
    5e4e:	22 e1       	ldi	r18, 0x12	; 18
    5e50:	20 93 0d 01 	sts	0x010D, r18	; 0x80010d <diode_sequence>
          }
			if (diodes.Anode[1] == diodes.Cathode[2]) {
    5e54:	98 17       	cp	r25, r24
    5e56:	61 f0       	breq	.+24     	; 0x5e70 <main+0x452>
           diode_sequence = 0x21;	// 2 1
          }
//        if((ptrans.b<3) && (ptrans.c<3)) 
        if(diode_sequence < 0x22) {
           lcd_data('3');
    5e58:	83 e3       	ldi	r24, 0x33	; 51
    5e5a:	0e 94 d8 01 	call	0x3b0	; 0x3b0 <lcd_data>
           lcd_MEM_string(Dioden);	//"Diodes "
    5e5e:	8d e0       	ldi	r24, 0x0D	; 13
    5e60:	91 e0       	ldi	r25, 0x01	; 1
    5e62:	0e 94 7c 02 	call	0x4f8	; 0x4f8 <lcd_fix_string>
           SerienDiodenAusgabe();
    5e66:	0e 94 c7 03 	call	0x78e	; 0x78e <SerienDiodenAusgabe>
           goto end3;
    5e6a:	38 c2       	rjmp	.+1136   	; 0x62dc <main+0x8be>
           diode_sequence = 0x20;	// 2 0
          }
			if (diodes.Cathode[1] == diodes.Anode[2]) {
           diode_sequence = 0x12;	// 1 2
          }
			if (diodes.Anode[1] == diodes.Cathode[2]) {
    5e6c:	98 13       	cpse	r25, r24
    5e6e:	02 c0       	rjmp	.+4      	; 0x5e74 <main+0x456>
           diode_sequence = 0x21;	// 2 1
    5e70:	50 92 0d 01 	sts	0x010D, r5	; 0x80010d <diode_sequence>
          }
//        if((ptrans.b<3) && (ptrans.c<3)) 
        if(diode_sequence < 0x22) {
    5e74:	80 91 0d 01 	lds	r24, 0x010D	; 0x80010d <diode_sequence>
    5e78:	82 32       	cpi	r24, 0x22	; 34
    5e7a:	08 f0       	brcs	.+2      	; 0x5e7e <main+0x460>
    5e7c:	44 ce       	rjmp	.-888    	; 0x5b06 <main+0xe8>
    5e7e:	ec cf       	rjmp	.-40     	; 0x5e58 <main+0x43a>
     lcd_MEM_string(AnKat_str);		//"->|-"
     lcd_MEM_string(Detected);		//" detected"
     goto not_known;
     // end (PartFound == PART_DIODE)
  // ========================================
  } else if (PartFound == PART_TRANSISTOR) {
    5e80:	84 30       	cpi	r24, 0x04	; 4
    5e82:	09 f0       	breq	.+2      	; 0x5e86 <main+0x468>
    5e84:	4c c1       	rjmp	.+664    	; 0x611e <main+0x700>
  // ========================================
#ifdef SEARCH_PARASITIC
    if ((ptrans.count != 0) && (ntrans.count !=0)) {
    5e86:	80 91 68 01 	lds	r24, 0x0168	; 0x800168 <ptrans+0xf>
    5e8a:	88 23       	and	r24, r24
    5e8c:	09 f4       	brne	.+2      	; 0x5e90 <main+0x472>
    5e8e:	5d c0       	rjmp	.+186    	; 0x5f4a <main+0x52c>
    5e90:	80 91 4e 01 	lds	r24, 0x014E	; 0x80014e <ntrans+0xf>
    5e94:	88 23       	and	r24, r24
    5e96:	09 f4       	brne	.+2      	; 0x5e9a <main+0x47c>
    5e98:	58 c0       	rjmp	.+176    	; 0x5f4a <main+0x52c>
       // Special Handling of NPNp and PNPn Transistor.
       // If a protection diode is built on the same structur as the NPN-Transistor,
       // a parasitic PNP-Transistor will be detected. 
       ReadCapacity(ntrans.e, ntrans.b);	// read capacity of NPN base-emitter
    5e9a:	60 91 4b 01 	lds	r22, 0x014B	; 0x80014b <ntrans+0xc>
    5e9e:	80 91 4d 01 	lds	r24, 0x014D	; 0x80014d <ntrans+0xe>
    5ea2:	0e 94 d4 15 	call	0x2ba8	; 0x2ba8 <ReadCapacity>
       n_cval = cap.cval;			// save the found capacity value
    5ea6:	a0 90 73 01 	lds	r10, 0x0173	; 0x800173 <cap>
    5eaa:	b0 90 74 01 	lds	r11, 0x0174	; 0x800174 <cap+0x1>
    5eae:	c0 90 75 01 	lds	r12, 0x0175	; 0x800175 <cap+0x2>
    5eb2:	d0 90 76 01 	lds	r13, 0x0176	; 0x800176 <cap+0x3>
       n_cpre  = cap.cpre;			// and dimension
    5eb6:	c0 91 85 01 	lds	r28, 0x0185	; 0x800185 <cap+0x12>
       ReadCapacity(ptrans.b, ptrans.e);	// read capacity of PNP base-emitter
    5eba:	60 91 67 01 	lds	r22, 0x0167	; 0x800167 <ptrans+0xe>
    5ebe:	80 91 65 01 	lds	r24, 0x0165	; 0x800165 <ptrans+0xc>
    5ec2:	0e 94 d4 15 	call	0x2ba8	; 0x2ba8 <ReadCapacity>
       // check if one hfe is very low. If yes, simulate a very low BE capacity
       if ((ntrans.hfe < 500) && (ptrans.hfe >= 500)) n_cpre = -16; // set NPN BE capacity to low value
    5ec6:	80 91 3f 01 	lds	r24, 0x013F	; 0x80013f <ntrans>
    5eca:	90 91 40 01 	lds	r25, 0x0140	; 0x800140 <ntrans+0x1>
    5ece:	a0 91 41 01 	lds	r26, 0x0141	; 0x800141 <ntrans+0x2>
    5ed2:	b0 91 42 01 	lds	r27, 0x0142	; 0x800142 <ntrans+0x3>
    5ed6:	40 91 59 01 	lds	r20, 0x0159	; 0x800159 <ptrans>
    5eda:	50 91 5a 01 	lds	r21, 0x015A	; 0x80015a <ptrans+0x1>
    5ede:	60 91 5b 01 	lds	r22, 0x015B	; 0x80015b <ptrans+0x2>
    5ee2:	70 91 5c 01 	lds	r23, 0x015C	; 0x80015c <ptrans+0x3>
    5ee6:	84 3f       	cpi	r24, 0xF4	; 244
    5ee8:	21 e0       	ldi	r18, 0x01	; 1
    5eea:	92 07       	cpc	r25, r18
    5eec:	a1 05       	cpc	r26, r1
    5eee:	b1 05       	cpc	r27, r1
    5ef0:	38 f4       	brcc	.+14     	; 0x5f00 <main+0x4e2>
    5ef2:	44 3f       	cpi	r20, 0xF4	; 244
    5ef4:	21 e0       	ldi	r18, 0x01	; 1
    5ef6:	52 07       	cpc	r21, r18
    5ef8:	61 05       	cpc	r22, r1
    5efa:	71 05       	cpc	r23, r1
    5efc:	08 f0       	brcs	.+2      	; 0x5f00 <main+0x4e2>
    5efe:	c0 ef       	ldi	r28, 0xF0	; 240
       if ((ptrans.hfe < 500) && (ntrans.hfe >= 500)) cap.cpre = -16; // set PNP BE capacity to low value
    5f00:	44 3f       	cpi	r20, 0xF4	; 244
    5f02:	51 40       	sbci	r21, 0x01	; 1
    5f04:	61 05       	cpc	r22, r1
    5f06:	71 05       	cpc	r23, r1
    5f08:	38 f4       	brcc	.+14     	; 0x5f18 <main+0x4fa>
    5f0a:	84 3f       	cpi	r24, 0xF4	; 244
    5f0c:	91 40       	sbci	r25, 0x01	; 1
    5f0e:	a1 05       	cpc	r26, r1
    5f10:	b1 05       	cpc	r27, r1
    5f12:	10 f0       	brcs	.+4      	; 0x5f18 <main+0x4fa>
    5f14:	20 92 85 01 	sts	0x0185, r2	; 0x800185 <cap+0x12>

       if (((n_cpre == cap.cpre) && (cap.cval > n_cval))
    5f18:	80 91 85 01 	lds	r24, 0x0185	; 0x800185 <cap+0x12>
    5f1c:	c8 13       	cpse	r28, r24
    5f1e:	0e c0       	rjmp	.+28     	; 0x5f3c <main+0x51e>
    5f20:	80 91 73 01 	lds	r24, 0x0173	; 0x800173 <cap>
    5f24:	90 91 74 01 	lds	r25, 0x0174	; 0x800174 <cap+0x1>
    5f28:	a0 91 75 01 	lds	r26, 0x0175	; 0x800175 <cap+0x2>
    5f2c:	b0 91 76 01 	lds	r27, 0x0176	; 0x800176 <cap+0x3>
    5f30:	a8 16       	cp	r10, r24
    5f32:	b9 06       	cpc	r11, r25
    5f34:	ca 06       	cpc	r12, r26
    5f36:	db 06       	cpc	r13, r27
    5f38:	18 f0       	brcs	.+6      	; 0x5f40 <main+0x522>
    5f3a:	04 c0       	rjmp	.+8      	; 0x5f44 <main+0x526>
					|| (cap.cpre > n_cpre)) {
    5f3c:	c8 17       	cp	r28, r24
    5f3e:	14 f4       	brge	.+4      	; 0x5f44 <main+0x526>
          // the capacity value or dimension of the PNP B-E is greater than the NPN B-E
          PartMode = PART_MODE_PNP;
    5f40:	8d e0       	ldi	r24, 0x0D	; 13
    5f42:	01 c0       	rjmp	.+2      	; 0x5f46 <main+0x528>
       } else {
          PartMode = PART_MODE_NPN;
    5f44:	8c e0       	ldi	r24, 0x0C	; 12
    5f46:	80 93 19 01 	sts	0x0119, r24	; 0x800119 <PartMode>
       }
    }  /* end ((ptrans.count != 0) && (ntrans.count !=0)) */
#endif
    // not possible for mega8, change Pin sequence instead.
		if ((ptrans.count != 0) && (ntrans.count != 0)
    5f4a:	80 91 68 01 	lds	r24, 0x0168	; 0x800168 <ptrans+0xf>
    5f4e:	88 23       	and	r24, r24
    5f50:	61 f0       	breq	.+24     	; 0x5f6a <main+0x54c>
    5f52:	80 91 4e 01 	lds	r24, 0x014E	; 0x80014e <ntrans+0xf>
    5f56:	88 23       	and	r24, r24
    5f58:	41 f0       	breq	.+16     	; 0x5f6a <main+0x54c>
				&& (!(RST_PIN_REG & (1 << RST_PIN)))) {
    5f5a:	4f 99       	sbic	0x09, 7	; 9
    5f5c:	06 c0       	rjmp	.+12     	; 0x5f6a <main+0x54c>
          PartMode = PART_MODE_PNP;	// switch to parasitic transistor
       } else {
          PartMode = PART_MODE_NPN;	// switch to parasitic transistor
       }
#else
       PartMode ^= (PART_MODE_PNP - PART_MODE_NPN);
    5f5e:	90 91 19 01 	lds	r25, 0x0119	; 0x800119 <PartMode>
    5f62:	81 e0       	ldi	r24, 0x01	; 1
    5f64:	89 27       	eor	r24, r25
    5f66:	80 93 19 01 	sts	0x0119, r24	; 0x800119 <PartMode>
       if (ntrans.count != 0) {
          lcd_data('n');		// mark for parasitic NPn
       }
    }
#else 	/* only character display */
    if(PartMode == PART_MODE_NPN) {
    5f6a:	80 91 19 01 	lds	r24, 0x0119	; 0x800119 <PartMode>
    5f6e:	8c 30       	cpi	r24, 0x0C	; 12
    5f70:	51 f4       	brne	.+20     	; 0x5f86 <main+0x568>
//       _trans = &ntrans;  is allready selected a default
       lcd_MEM_string(NPN_str);		//"NPN "
    5f72:	8e e6       	ldi	r24, 0x6E	; 110
    5f74:	91 e0       	ldi	r25, 0x01	; 1
    5f76:	0e 94 7c 02 	call	0x4f8	; 0x4f8 <lcd_fix_string>
       if (ptrans.count != 0) {
    5f7a:	80 91 68 01 	lds	r24, 0x0168	; 0x800168 <ptrans+0xf>
    5f7e:	88 23       	and	r24, r24
    5f80:	89 f0       	breq	.+34     	; 0x5fa4 <main+0x586>
          lcd_data('p');		// mark for parasitic PNp
    5f82:	80 e7       	ldi	r24, 0x70	; 112
    5f84:	0d c0       	rjmp	.+26     	; 0x5fa0 <main+0x582>
       }
    } else {
       _trans = &ptrans;		// change transistor structure
    5f86:	f0 92 3d 01 	sts	0x013D, r15	; 0x80013d <_trans+0x1>
    5f8a:	e0 92 3c 01 	sts	0x013C, r14	; 0x80013c <_trans>
       lcd_MEM_string(PNP_str);		//"PNP "
    5f8e:	8a e6       	ldi	r24, 0x6A	; 106
    5f90:	91 e0       	ldi	r25, 0x01	; 1
    5f92:	0e 94 7c 02 	call	0x4f8	; 0x4f8 <lcd_fix_string>
       if (ntrans.count != 0) {
    5f96:	80 91 4e 01 	lds	r24, 0x014E	; 0x80014e <ntrans+0xf>
    5f9a:	88 23       	and	r24, r24
    5f9c:	19 f0       	breq	.+6      	; 0x5fa4 <main+0x586>
          lcd_data('n');		// mark for parasitic NPn
    5f9e:	8e e6       	ldi	r24, 0x6E	; 110
    5fa0:	0e 94 d8 01 	call	0x3b0	; 0x3b0 <lcd_data>
       }
    }
    lcd_space();
    5fa4:	0e 94 11 02 	call	0x422	; 0x422 <lcd_space>
#endif

    // show the protection diode of the BJT
    vak_diode_nr = search_vak_diode();
    5fa8:	0e 94 cc 06 	call	0xd98	; 0xd98 <search_vak_diode>
    5fac:	c8 2f       	mov	r28, r24
    if (vak_diode_nr < 5) {
    5fae:	85 30       	cpi	r24, 0x05	; 5
    5fb0:	e8 f4       	brcc	.+58     	; 0x5fec <main+0x5ce>
       an_cat = (PartMode == PART_MODE_NPN);
  #endif
 #else
       // Layout with 123= style
       an_cat = (((PartMode == PART_MODE_NPN) && (ntrans.c > ntrans.e))
		|| ((PartMode != PART_MODE_NPN) && (ptrans.c < ptrans.e)));
    5fb2:	80 91 19 01 	lds	r24, 0x0119	; 0x800119 <PartMode>
    5fb6:	8c 30       	cpi	r24, 0x0C	; 12
    5fb8:	41 f4       	brne	.+16     	; 0x5fca <main+0x5ac>
    5fba:	81 e0       	ldi	r24, 0x01	; 1
    5fbc:	20 91 4c 01 	lds	r18, 0x014C	; 0x80014c <ntrans+0xd>
    5fc0:	90 91 4d 01 	lds	r25, 0x014D	; 0x80014d <ntrans+0xe>
    5fc4:	92 17       	cp	r25, r18
    5fc6:	48 f0       	brcs	.+18     	; 0x5fda <main+0x5bc>
    5fc8:	07 c0       	rjmp	.+14     	; 0x5fd8 <main+0x5ba>
    5fca:	81 e0       	ldi	r24, 0x01	; 1
    5fcc:	20 91 66 01 	lds	r18, 0x0166	; 0x800166 <ptrans+0xd>
    5fd0:	90 91 67 01 	lds	r25, 0x0167	; 0x800167 <ptrans+0xe>
    5fd4:	29 17       	cp	r18, r25
    5fd6:	08 f0       	brcs	.+2      	; 0x5fda <main+0x5bc>
    5fd8:	80 e0       	ldi	r24, 0x00	; 0
 #endif
       if (an_cat) {
    5fda:	88 23       	and	r24, r24
    5fdc:	19 f0       	breq	.+6      	; 0x5fe4 <main+0x5c6>
          lcd_MEM_string(AnKat_str);	//"->|-"
    5fde:	87 e2       	ldi	r24, 0x27	; 39
    5fe0:	91 e0       	ldi	r25, 0x01	; 1
    5fe2:	02 c0       	rjmp	.+4      	; 0x5fe8 <main+0x5ca>
       } else {
          lcd_MEM_string(KatAn_str);	//"-|<-"
    5fe4:	83 e2       	ldi	r24, 0x23	; 35
    5fe6:	91 e0       	ldi	r25, 0x01	; 1
    5fe8:	0e 94 7c 02 	call	0x4f8	; 0x4f8 <lcd_fix_string>
       lcd_MEM2_string(ICEs_str);		// "ICEs="
       DisplayValue16(_trans->ices,-6,'A',2);	// display ICEs
    }
 #endif
#else		/* character display */
    PinLayout('E','B','C'); 		//  EBC= or 123=...
    5fec:	43 e4       	ldi	r20, 0x43	; 67
    5fee:	62 e4       	ldi	r22, 0x42	; 66
    5ff0:	85 e4       	ldi	r24, 0x45	; 69
    5ff2:	0e 94 4c 03 	call	0x698	; 0x698 <PinLayout>
    lcd_line2(); //2. row 
    5ff6:	0e 94 48 02 	call	0x490	; 0x490 <lcd_line2>
    lcd_MEM_string(hfe_str);		//"B="  (hFE)
    5ffa:	88 e7       	ldi	r24, 0x78	; 120
    5ffc:	91 e0       	ldi	r25, 0x01	; 1
    5ffe:	0e 94 7c 02 	call	0x4f8	; 0x4f8 <lcd_fix_string>
    DisplayValue(_trans->hfe,-2,0,3);
    6002:	e0 91 3c 01 	lds	r30, 0x013C	; 0x80013c <_trans>
    6006:	f0 91 3d 01 	lds	r31, 0x013D	; 0x80013d <_trans+0x1>
    600a:	60 81       	ld	r22, Z
    600c:	71 81       	ldd	r23, Z+1	; 0x01
    600e:	82 81       	ldd	r24, Z+2	; 0x02
    6010:	93 81       	ldd	r25, Z+3	; 0x03
    6012:	03 e0       	ldi	r16, 0x03	; 3
    6014:	20 e0       	ldi	r18, 0x00	; 0
    6016:	4e ef       	ldi	r20, 0xFE	; 254
    6018:	0e 94 05 04 	call	0x80a	; 0x80a <DisplayValue>
 #if FLASHEND > 0x1fff
    lcd_space();
    601c:	0e 94 11 02 	call	0x422	; 0x422 <lcd_space>

    lcd_data('I');
    6020:	89 e4       	ldi	r24, 0x49	; 73
    6022:	0e 94 d8 01 	call	0x3b0	; 0x3b0 <lcd_data>
    if (_trans->current >= 10000) {
    6026:	e0 91 3c 01 	lds	r30, 0x013C	; 0x80013c <_trans>
    602a:	f0 91 3d 01 	lds	r31, 0x013D	; 0x80013d <_trans+0x1>
    602e:	86 81       	ldd	r24, Z+6	; 0x06
    6030:	97 81       	ldd	r25, Z+7	; 0x07
    6032:	80 31       	cpi	r24, 0x10	; 16
    6034:	97 42       	sbci	r25, 0x27	; 39
    6036:	70 f0       	brcs	.+28     	; 0x6054 <main+0x636>
       lcd_data('e');				// emitter current has 10mA offset
    6038:	85 e6       	ldi	r24, 0x65	; 101
    603a:	0e 94 d8 01 	call	0x3b0	; 0x3b0 <lcd_data>
       _trans->current -= 10000;
    603e:	e0 91 3c 01 	lds	r30, 0x013C	; 0x80013c <_trans>
    6042:	f0 91 3d 01 	lds	r31, 0x013D	; 0x80013d <_trans+0x1>
    6046:	86 81       	ldd	r24, Z+6	; 0x06
    6048:	97 81       	ldd	r25, Z+7	; 0x07
    604a:	80 51       	subi	r24, 0x10	; 16
    604c:	97 42       	sbci	r25, 0x27	; 39
    604e:	97 83       	std	Z+7, r25	; 0x07
    6050:	86 83       	std	Z+6, r24	; 0x06
    6052:	03 c0       	rjmp	.+6      	; 0x605a <main+0x63c>
    } else {
       lcd_data('c');
    6054:	83 e6       	ldi	r24, 0x63	; 99
    6056:	0e 94 d8 01 	call	0x3b0	; 0x3b0 <lcd_data>
    }
    lcd_equal();			// lcd_data('=');
    605a:	0e 94 1d 02 	call	0x43a	; 0x43a <lcd_equal>
    DisplayValue16(_trans->current,-6,'A',2);	// display Ic or Ie current
    605e:	e0 91 3c 01 	lds	r30, 0x013C	; 0x80013c <_trans>
    6062:	f0 91 3d 01 	lds	r31, 0x013D	; 0x80013d <_trans+0x1>
    6066:	22 e0       	ldi	r18, 0x02	; 2
    6068:	41 e4       	ldi	r20, 0x41	; 65
    606a:	6a ef       	ldi	r22, 0xFA	; 250
    606c:	86 81       	ldd	r24, Z+6	; 0x06
    606e:	97 81       	ldd	r25, Z+7	; 0x07
    6070:	0e 94 ef 04 	call	0x9de	; 0x9de <DisplayValue16>
 #endif

 #if defined(SHOW_ICE)
    lcd_next_line_wait(0);		// next line, wait 5s and clear line 2
    6074:	80 e0       	ldi	r24, 0x00	; 0
    6076:	0e 94 f7 02 	call	0x5ee	; 0x5ee <lcd_next_line_wait>
    lcd_MEM_string(Ube_str);		//"Ube=" 
    607a:	8f e5       	ldi	r24, 0x5F	; 95
    607c:	91 e0       	ldi	r25, 0x01	; 1
    607e:	0e 94 7c 02 	call	0x4f8	; 0x4f8 <lcd_fix_string>
    Display_mV(_trans->uBE,3);
    6082:	e0 91 3c 01 	lds	r30, 0x013C	; 0x80013c <_trans>
    6086:	f0 91 3d 01 	lds	r31, 0x013D	; 0x80013d <_trans+0x1>
    608a:	63 e0       	ldi	r22, 0x03	; 3
    608c:	84 81       	ldd	r24, Z+4	; 0x04
    608e:	95 81       	ldd	r25, Z+5	; 0x05
    6090:	0e 94 fa 04 	call	0x9f4	; 0x9f4 <Display_mV>

    if (_trans->ice0 > 0) {
    6094:	e0 91 3c 01 	lds	r30, 0x013C	; 0x80013c <_trans>
    6098:	f0 91 3d 01 	lds	r31, 0x013D	; 0x80013d <_trans+0x1>
    609c:	80 85       	ldd	r24, Z+8	; 0x08
    609e:	91 85       	ldd	r25, Z+9	; 0x09
    60a0:	89 2b       	or	r24, r25
    60a2:	91 f0       	breq	.+36     	; 0x60c8 <main+0x6aa>
       lcd_next_line_wait(0);		// next line, wait 5s and clear line 2
    60a4:	80 e0       	ldi	r24, 0x00	; 0
    60a6:	0e 94 f7 02 	call	0x5ee	; 0x5ee <lcd_next_line_wait>
       lcd_MEM2_string(ICE0_str);		// "ICE0="
    60aa:	8f ee       	ldi	r24, 0xEF	; 239
    60ac:	90 e0       	ldi	r25, 0x00	; 0
    60ae:	0e 94 7c 02 	call	0x4f8	; 0x4f8 <lcd_fix_string>
       DisplayValue16(_trans->ice0,-6,'A',3);
    60b2:	e0 91 3c 01 	lds	r30, 0x013C	; 0x80013c <_trans>
    60b6:	f0 91 3d 01 	lds	r31, 0x013D	; 0x80013d <_trans+0x1>
    60ba:	23 e0       	ldi	r18, 0x03	; 3
    60bc:	41 e4       	ldi	r20, 0x41	; 65
    60be:	6a ef       	ldi	r22, 0xFA	; 250
    60c0:	80 85       	ldd	r24, Z+8	; 0x08
    60c2:	91 85       	ldd	r25, Z+9	; 0x09
    60c4:	0e 94 ef 04 	call	0x9de	; 0x9de <DisplayValue16>
    }
    if (_trans->ices > 0) {
    60c8:	e0 91 3c 01 	lds	r30, 0x013C	; 0x80013c <_trans>
    60cc:	f0 91 3d 01 	lds	r31, 0x013D	; 0x80013d <_trans+0x1>
    60d0:	82 85       	ldd	r24, Z+10	; 0x0a
    60d2:	93 85       	ldd	r25, Z+11	; 0x0b
    60d4:	89 2b       	or	r24, r25
    60d6:	91 f0       	breq	.+36     	; 0x60fc <main+0x6de>
       lcd_next_line_wait(0);		// next line, wait 5s and clear line 2
    60d8:	80 e0       	ldi	r24, 0x00	; 0
    60da:	0e 94 f7 02 	call	0x5ee	; 0x5ee <lcd_next_line_wait>
       lcd_MEM2_string(ICEs_str);		// "ICEs="
    60de:	89 ee       	ldi	r24, 0xE9	; 233
    60e0:	90 e0       	ldi	r25, 0x00	; 0
    60e2:	0e 94 7c 02 	call	0x4f8	; 0x4f8 <lcd_fix_string>
       DisplayValue16(_trans->ices,-6,'A',3);
    60e6:	e0 91 3c 01 	lds	r30, 0x013C	; 0x80013c <_trans>
    60ea:	f0 91 3d 01 	lds	r31, 0x013D	; 0x80013d <_trans+0x1>
    60ee:	23 e0       	ldi	r18, 0x03	; 3
    60f0:	41 e4       	ldi	r20, 0x41	; 65
    60f2:	6a ef       	ldi	r22, 0xFA	; 250
    60f4:	82 85       	ldd	r24, Z+10	; 0x0a
    60f6:	93 85       	ldd	r25, Z+11	; 0x0b
    60f8:	0e 94 ef 04 	call	0x9de	; 0x9de <DisplayValue16>
    }
 #endif
#endif  /* WITH_GRAPHICS */
#ifdef SHOW_VAKDIODE
    if (vak_diode_nr < 5) {
    60fc:	c5 30       	cpi	r28, 0x05	; 5
    60fe:	08 f0       	brcs	.+2      	; 0x6102 <main+0x6e4>
    6100:	9a c1       	rjmp	.+820    	; 0x6436 <main+0xa18>
       lcd_next_line_wait(0); 		// next line, wait 5s and clear line 2/4
    6102:	80 e0       	ldi	r24, 0x00	; 0
    6104:	0e 94 f7 02 	call	0x5ee	; 0x5ee <lcd_next_line_wait>
       DiodeSymbol_withPins(vak_diode_nr);
    6108:	8c 2f       	mov	r24, r28
    610a:	0e 94 d9 03 	call	0x7b2	; 0x7b2 <DiodeSymbol_withPins>
       lcd_MEM_string(Uf_str);			//"Uf="
    610e:	8b e5       	ldi	r24, 0x5B	; 91
    6110:	91 e0       	ldi	r25, 0x01	; 1
    6112:	0e 94 7c 02 	call	0x4f8	; 0x4f8 <lcd_fix_string>
       mVAusgabe(vak_diode_nr);
    6116:	8c 2f       	mov	r24, r28
    6118:	0e 94 a3 03 	call	0x746	; 0x746 <mVAusgabe>
    611c:	8a c1       	rjmp	.+788    	; 0x6432 <main+0xa14>
#endif
    goto tt_end;
    // end (PartFound == PART_TRANSISTOR)

  // ========================================
  } else if (PartFound == PART_FET) {	/* JFET or MOSFET */
    611e:	85 30       	cpi	r24, 0x05	; 5
    6120:	09 f0       	breq	.+2      	; 0x6124 <main+0x706>
    6122:	f6 c0       	rjmp	.+492    	; 0x6310 <main+0x8f2>
  // ========================================
#ifdef WITH_GRAPHICS
    unsigned char fetidx = 0;
    lcd_set_cursor(0,TEXT_RIGHT_TO_ICON);	// position behind the icon, Line 1
#endif
    if((PartMode&P_CHANNEL) == P_CHANNEL) {
    6124:	80 91 19 01 	lds	r24, 0x0119	; 0x800119 <PartMode>
    6128:	84 ff       	sbrs	r24, 4
    612a:	08 c0       	rjmp	.+16     	; 0x613c <main+0x71e>
       lcd_data('P');			//P-channel
    612c:	80 e5       	ldi	r24, 0x50	; 80
    612e:	0e 94 d8 01 	call	0x3b0	; 0x3b0 <lcd_data>
       _trans = &ptrans;
    6132:	f0 92 3d 01 	sts	0x013D, r15	; 0x80013d <_trans+0x1>
    6136:	e0 92 3c 01 	sts	0x013C, r14	; 0x80013c <_trans>
    613a:	03 c0       	rjmp	.+6      	; 0x6142 <main+0x724>
#ifdef WITH_GRAPHICS
       fetidx = 2;
#endif
    } else {
       lcd_data('N');			//N-channel
    613c:	8e e4       	ldi	r24, 0x4E	; 78
    613e:	0e 94 d8 01 	call	0x3b0	; 0x3b0 <lcd_data>
//       _trans = &ntrans;	is allready selected as default
    }
    lcd_data('-');		// minus is used for JFET, D-MOS, E-MOS ...
    6142:	8d e2       	ldi	r24, 0x2D	; 45
    6144:	0e 94 d8 01 	call	0x3b0	; 0x3b0 <lcd_data>

    uint8_t part_code;
    part_code = PartMode&0x0f;
    6148:	80 91 19 01 	lds	r24, 0x0119	; 0x800119 <PartMode>
    614c:	c8 2f       	mov	r28, r24
    614e:	cf 70       	andi	r28, 0x0F	; 15
          if (fetidx == 2)  lcd_update_icon(bmp_p_e_mos);
          if (fetidx == 3)  lcd_update_icon(bmp_p_d_mos);
       }
    } /* end PART_MODE_JFET */
#else	/* normal character display */
    if (part_code == PART_MODE_JFET) {
    6150:	c4 30       	cpi	r28, 0x04	; 4
    6152:	41 f4       	brne	.+16     	; 0x6164 <main+0x746>
       lcd_MEM_string(jfet_str);	//"-JFET"
    6154:	81 e8       	ldi	r24, 0x81	; 129
    6156:	91 e0       	ldi	r25, 0x01	; 1
    6158:	0e 94 7c 02 	call	0x4f8	; 0x4f8 <lcd_fix_string>
    } /* end PART_MODE_JFET */

    if (part_code == PART_MODE_IGBT) {
       PinLayout('E','G','C'); 		//  SGD= or 123=...
    } else if (part_code == PART_MODE_JFET) {
       PinLayout('?','G','?'); 		//  ?G?= or 123=...
    615c:	4f e3       	ldi	r20, 0x3F	; 63
    615e:	67 e4       	ldi	r22, 0x47	; 71
    6160:	8f e3       	ldi	r24, 0x3F	; 63
    6162:	11 c0       	rjmp	.+34     	; 0x6186 <main+0x768>
    } /* end PART_MODE_JFET */
#else	/* normal character display */
    if (part_code == PART_MODE_JFET) {
       lcd_MEM_string(jfet_str);	//"-JFET"
    } else {		// no JFET
       if ((PartMode&D_MODE) == D_MODE) {
    6164:	85 ff       	sbrs	r24, 5
    6166:	02 c0       	rjmp	.+4      	; 0x616c <main+0x74e>
          lcd_data('D');			// N-D or P-D
    6168:	84 e4       	ldi	r24, 0x44	; 68
    616a:	01 c0       	rjmp	.+2      	; 0x616e <main+0x750>
       } else {
          lcd_data('E');			// N-E or P-E
    616c:	85 e4       	ldi	r24, 0x45	; 69
    616e:	0e 94 d8 01 	call	0x3b0	; 0x3b0 <lcd_data>
       }
       if (part_code == (PART_MODE_IGBT)) {
    6172:	c3 30       	cpi	r28, 0x03	; 3
    6174:	09 f0       	breq	.+2      	; 0x6178 <main+0x75a>
    6176:	c9 c1       	rjmp	.+914    	; 0x650a <main+0xaec>
          lcd_MEM_string(igbt_str);	//"-IGBT"
    6178:	8b e7       	ldi	r24, 0x7B	; 123
    617a:	91 e0       	ldi	r25, 0x01	; 1
    617c:	0e 94 7c 02 	call	0x4f8	; 0x4f8 <lcd_fix_string>
          lcd_MEM_string(mosfet_str);	//"-MOS "
       }
    } /* end PART_MODE_JFET */

    if (part_code == PART_MODE_IGBT) {
       PinLayout('E','G','C'); 		//  SGD= or 123=...
    6180:	43 e4       	ldi	r20, 0x43	; 67
    6182:	67 e4       	ldi	r22, 0x47	; 71
    6184:	85 e4       	ldi	r24, 0x45	; 69
    6186:	0e 94 4c 03 	call	0x698	; 0x698 <PinLayout>
 #ifdef SHOW_R_DS
       lcd_show_rds(0);                // show Drain-Source resistance RDS at column 0
 #endif
    }	/* end of enhancement or depletion mode WITH_GRAPHICS */
#else	/* character display */
    if((PartMode&D_MODE) != D_MODE) {	//enhancement-MOSFET
    618a:	80 91 19 01 	lds	r24, 0x0119	; 0x800119 <PartMode>
    618e:	85 fd       	sbrc	r24, 5
    6190:	18 c0       	rjmp	.+48     	; 0x61c2 <main+0x7a4>
	//Gate capacity
       lcd_line2();		// line 2
    6192:	0e 94 48 02 	call	0x490	; 0x490 <lcd_line2>
       ReadCapacity(_trans->b,_trans->e);	//measure capacity
    6196:	e0 91 3c 01 	lds	r30, 0x013C	; 0x80013c <_trans>
    619a:	f0 91 3d 01 	lds	r31, 0x013D	; 0x80013d <_trans+0x1>
    619e:	66 85       	ldd	r22, Z+14	; 0x0e
    61a0:	84 85       	ldd	r24, Z+12	; 0x0c
    61a2:	0e 94 d4 15 	call	0x2ba8	; 0x2ba8 <ReadCapacity>
       lcd_show_Cg();	// show Cg=xxxpF
    61a6:	0e 94 08 03 	call	0x610	; 0x610 <lcd_show_Cg>
       lcd_MEM_string(vt_str);		// " Vt="
    61aa:	86 e5       	ldi	r24, 0x56	; 86
    61ac:	91 e0       	ldi	r25, 0x01	; 1
    61ae:	0e 94 7c 02 	call	0x4f8	; 0x4f8 <lcd_fix_string>
       Display_mV(_trans->gthvoltage,2);	//Gate-threshold voltage
    61b2:	e0 91 3c 01 	lds	r30, 0x013C	; 0x80013c <_trans>
    61b6:	f0 91 3d 01 	lds	r31, 0x013D	; 0x80013d <_trans+0x1>
    61ba:	62 e0       	ldi	r22, 0x02	; 2
    61bc:	82 85       	ldd	r24, Z+10	; 0x0a
    61be:	93 85       	ldd	r25, Z+11	; 0x0b
    61c0:	6e c0       	rjmp	.+220    	; 0x629e <main+0x880>
       lcd_show_rds(0);                // show Drain-Source resistance RDS at column 0
  #endif
    } else {
      // depletion
 #if FLASHEND > 0x1fff
       if ((PartMode&0x0f)  != PART_MODE_JFET) {     /* kein JFET */
    61c2:	8f 70       	andi	r24, 0x0F	; 15
    61c4:	84 30       	cpi	r24, 0x04	; 4
    61c6:	71 f0       	breq	.+28     	; 0x61e4 <main+0x7c6>
          lcd_next_line(0);		// line 2
    61c8:	80 e0       	ldi	r24, 0x00	; 0
    61ca:	0e 94 de 02 	call	0x5bc	; 0x5bc <lcd_next_line>
          ReadCapacity(_trans->b,_trans->e);	//measure capacity
    61ce:	e0 91 3c 01 	lds	r30, 0x013C	; 0x80013c <_trans>
    61d2:	f0 91 3d 01 	lds	r31, 0x013D	; 0x80013d <_trans+0x1>
    61d6:	66 85       	ldd	r22, Z+14	; 0x0e
    61d8:	84 85       	ldd	r24, Z+12	; 0x0c
    61da:	0e 94 d4 15 	call	0x2ba8	; 0x2ba8 <ReadCapacity>
          lcd_show_Cg();	// show Cg=xxxpF
    61de:	0e 94 08 03 	call	0x610	; 0x610 <lcd_show_Cg>
    61e2:	1a c0       	rjmp	.+52     	; 0x6218 <main+0x7fa>
  #ifdef FET_Idss
       } else {     // it is a JFET
          // display the I_DSS, if measured
          if (_trans->uBE!=0) {
    61e4:	e0 91 3c 01 	lds	r30, 0x013C	; 0x80013c <_trans>
    61e8:	f0 91 3d 01 	lds	r31, 0x013D	; 0x80013d <_trans+0x1>
    61ec:	84 81       	ldd	r24, Z+4	; 0x04
    61ee:	95 81       	ldd	r25, Z+5	; 0x05
    61f0:	89 2b       	or	r24, r25
    61f2:	91 f0       	breq	.+36     	; 0x6218 <main+0x7fa>
             lcd_next_line(0);
    61f4:	80 e0       	ldi	r24, 0x00	; 0
    61f6:	0e 94 de 02 	call	0x5bc	; 0x5bc <lcd_next_line>
             static const unsigned char str_Idss[] MEM_TEXT = "Idss=";
             lcd_MEM_string(str_Idss);
    61fa:	80 e0       	ldi	r24, 0x00	; 0
    61fc:	90 e0       	ldi	r25, 0x00	; 0
    61fe:	0e 94 7c 02 	call	0x4f8	; 0x4f8 <lcd_fix_string>
             DisplayValue16(_trans->uBE,-6,'A',2);
    6202:	e0 91 3c 01 	lds	r30, 0x013C	; 0x80013c <_trans>
    6206:	f0 91 3d 01 	lds	r31, 0x013D	; 0x80013d <_trans+0x1>
    620a:	22 e0       	ldi	r18, 0x02	; 2
    620c:	41 e4       	ldi	r20, 0x41	; 65
    620e:	6a ef       	ldi	r22, 0xFA	; 250
    6210:	84 81       	ldd	r24, Z+4	; 0x04
    6212:	95 81       	ldd	r25, Z+5	; 0x05
    6214:	0e 94 ef 04 	call	0x9de	; 0x9de <DisplayValue16>
          }
  #endif
       }
       lcd_next_line_wait(0);		// line 2 or 3, if possible & wait and clear last line
    6218:	80 e0       	ldi	r24, 0x00	; 0
    621a:	0e 94 f7 02 	call	0x5ee	; 0x5ee <lcd_next_line_wait>
 #endif
       lcd_data('I');			// show I=xmA@Vg=y.yV at line 2 or 3
    621e:	89 e4       	ldi	r24, 0x49	; 73
    6220:	0e 94 d8 01 	call	0x3b0	; 0x3b0 <lcd_data>
 #if (LCD_LINE_LENGTH > 17)
       lcd_data('d');
 #endif
       lcd_equal();			// lcd_data('=');
    6224:	0e 94 1d 02 	call	0x43a	; 0x43a <lcd_equal>
       DisplayValue16(_trans->current,-6,'A',2);
    6228:	e0 91 3c 01 	lds	r30, 0x013C	; 0x80013c <_trans>
    622c:	f0 91 3d 01 	lds	r31, 0x013D	; 0x80013d <_trans+0x1>
    6230:	22 e0       	ldi	r18, 0x02	; 2
    6232:	41 e4       	ldi	r20, 0x41	; 65
    6234:	6a ef       	ldi	r22, 0xFA	; 250
    6236:	86 81       	ldd	r24, Z+6	; 0x06
    6238:	97 81       	ldd	r25, Z+7	; 0x07
    623a:	0e 94 ef 04 	call	0x9de	; 0x9de <DisplayValue16>
       lcd_MEM_string(Vgs_str);		// "@Vg="
    623e:	81 e5       	ldi	r24, 0x51	; 81
    6240:	91 e0       	ldi	r25, 0x01	; 1
    6242:	0e 94 7c 02 	call	0x4f8	; 0x4f8 <lcd_fix_string>
       Display_mV(_trans->gthvoltage,2);	//Gate-threshold voltage
    6246:	e0 91 3c 01 	lds	r30, 0x013C	; 0x80013c <_trans>
    624a:	f0 91 3d 01 	lds	r31, 0x013D	; 0x80013d <_trans+0x1>
    624e:	62 e0       	ldi	r22, 0x02	; 2
    6250:	82 85       	ldd	r24, Z+10	; 0x0a
    6252:	93 85       	ldd	r25, Z+11	; 0x0b
    6254:	0e 94 fa 04 	call	0x9f4	; 0x9f4 <Display_mV>
 #ifdef SHOW_ICE
       // Display also the cutoff gate voltage, idea from Pieter-Tjerk
       if (_trans->ice0<4800) { // can't trust cutoff voltage if close to 5V supply voltage, since then the transistor may not have been cut off at all
    6258:	e0 91 3c 01 	lds	r30, 0x013C	; 0x80013c <_trans>
    625c:	f0 91 3d 01 	lds	r31, 0x013D	; 0x80013d <_trans+0x1>
    6260:	80 85       	ldd	r24, Z+8	; 0x08
    6262:	91 85       	ldd	r25, Z+9	; 0x09
    6264:	80 3c       	cpi	r24, 0xC0	; 192
    6266:	92 41       	sbci	r25, 0x12	; 18
    6268:	e0 f4       	brcc	.+56     	; 0x62a2 <main+0x884>
          lcd_next_line_wait(0);
    626a:	80 e0       	ldi	r24, 0x00	; 0
    626c:	0e 94 f7 02 	call	0x5ee	; 0x5ee <lcd_next_line_wait>
          lcd_data('I');
    6270:	89 e4       	ldi	r24, 0x49	; 73
    6272:	0e 94 d8 01 	call	0x3b0	; 0x3b0 <lcd_data>
  #if (LCD_LINE_LENGTH > 17)
          lcd_data('d');
  #endif
          lcd_equal();			// lcd_data('=');
    6276:	0e 94 1d 02 	call	0x43a	; 0x43a <lcd_equal>
          DisplayValue16(0,-5,'A',2);
    627a:	22 e0       	ldi	r18, 0x02	; 2
    627c:	41 e4       	ldi	r20, 0x41	; 65
    627e:	6b ef       	ldi	r22, 0xFB	; 251
    6280:	80 e0       	ldi	r24, 0x00	; 0
    6282:	90 e0       	ldi	r25, 0x00	; 0
    6284:	0e 94 ef 04 	call	0x9de	; 0x9de <DisplayValue16>
          lcd_MEM_string(Vgs_str);		// "@Vg="
    6288:	81 e5       	ldi	r24, 0x51	; 81
    628a:	91 e0       	ldi	r25, 0x01	; 1
    628c:	0e 94 7c 02 	call	0x4f8	; 0x4f8 <lcd_fix_string>
          Display_mV(_trans->ice0,2);	// cutoff Gate voltage
    6290:	e0 91 3c 01 	lds	r30, 0x013C	; 0x80013c <_trans>
    6294:	f0 91 3d 01 	lds	r31, 0x013D	; 0x80013d <_trans+0x1>
    6298:	62 e0       	ldi	r22, 0x02	; 2
    629a:	80 85       	ldd	r24, Z+8	; 0x08
    629c:	91 85       	ldd	r25, Z+9	; 0x09
    629e:	0e 94 fa 04 	call	0x9f4	; 0x9f4 <Display_mV>
       }
 #endif
 #ifdef SHOW_R_DS
       lcd_show_rds(0);                // show Drain-Source resistance RDS at column 0
    62a2:	80 e0       	ldi	r24, 0x00	; 0
    62a4:	0e 94 20 03 	call	0x640	; 0x640 <lcd_show_rds>
    lcd_data('|');
    lcd_space();
    DisplayValue16(NumOfDiodes,0,' ',3);
#endif
#if FLASHEND > 0x1fff
    if (part_code != PART_MODE_JFET) {
    62a8:	c4 30       	cpi	r28, 0x04	; 4
    62aa:	09 f4       	brne	.+2      	; 0x62ae <main+0x890>
    62ac:	c4 c0       	rjmp	.+392    	; 0x6436 <main+0xa18>
    62ae:	c0 e0       	ldi	r28, 0x00	; 0
       for (ii=0;ii<NumOfDiodes;ii++) {
    62b0:	80 91 18 01 	lds	r24, 0x0118	; 0x800118 <NumOfDiodes>
    62b4:	c8 17       	cp	r28, r24
    62b6:	08 f0       	brcs	.+2      	; 0x62ba <main+0x89c>
    62b8:	be c0       	rjmp	.+380    	; 0x6436 <main+0xa18>
          // there is enough space for long form of presenting protection diode
 #if LCD_LINES > 6
          if (ii == 0) lcd_next_line(0);		// line 5 , if possible
 #endif
          lcd_next_line_wait(0);		// line 4, if possible & wait 5s and clear last line 
    62ba:	80 e0       	ldi	r24, 0x00	; 0
    62bc:	0e 94 f7 02 	call	0x5ee	; 0x5ee <lcd_next_line_wait>
          DiodeSymbol_withPins(ii);
    62c0:	8c 2f       	mov	r24, r28
    62c2:	0e 94 d9 03 	call	0x7b2	; 0x7b2 <DiodeSymbol_withPins>
          lcd_MEM_string(Uf_str);			//"Uf="
    62c6:	8b e5       	ldi	r24, 0x5B	; 91
    62c8:	91 e0       	ldi	r25, 0x01	; 1
    62ca:	0e 94 7c 02 	call	0x4f8	; 0x4f8 <lcd_fix_string>
          mVAusgabe(ii);
    62ce:	8c 2f       	mov	r24, r28
    62d0:	0e 94 a3 03 	call	0x746	; 0x746 <mVAusgabe>
          uart_newline();			// MAURO OK N-E-MOS/IGBT ('F')
    62d4:	0e 94 35 02 	call	0x46a	; 0x46a <uart_newline>
    lcd_space();
    DisplayValue16(NumOfDiodes,0,' ',3);
#endif
#if FLASHEND > 0x1fff
    if (part_code != PART_MODE_JFET) {
       for (ii=0;ii<NumOfDiodes;ii++) {
    62d8:	cf 5f       	subi	r28, 0xFF	; 255
    62da:	ea cf       	rjmp	.-44     	; 0x62b0 <main+0x892>
	goto loop_start;
	// POWER_OFF not selected, repeat measurement
//  return 0;

end3:
        uart_newline();		// MAURO  ('H')
    62dc:	0e 94 35 02 	call	0x46a	; 0x46a <uart_newline>
  // the diode  is already shown on the LCD
	if (ResistorsFound == 0)
    62e0:	80 91 6f 01 	lds	r24, 0x016F	; 0x80016f <ResistorsFound>
    62e4:	88 23       	and	r24, r24
    62e6:	09 f4       	brne	.+2      	; 0x62ea <main+0x8cc>
    62e8:	a6 c0       	rjmp	.+332    	; 0x6436 <main+0xa18>
		goto tt_end;
  ADC_DDR = (1<<TPRELAY) | TXD_MSK; 	// switch pin with reference to GND, release relay
    62ea:	67 b8       	out	0x07, r6	; 7
  lcd_next_line_wait(0);
 #else
  lcd_line3();
 #endif
#else
  wait_for_key_ms(display_time);
    62ec:	80 91 12 01 	lds	r24, 0x0112	; 0x800112 <display_time>
    62f0:	90 91 13 01 	lds	r25, 0x0113	; 0x800113 <display_time+0x1>
    62f4:	0e 94 f1 05 	call	0xbe2	; 0xbe2 <wait_for_key_ms>
  ADC_DDR =  TXD_MSK; 	// switch pin with reference to input, activate relay
    62f8:	87 b8       	out	0x07, r8	; 7
  lcd_clear();
    62fa:	0e 94 42 02 	call	0x484	; 0x484 <lcd_clear>
//#if FLASHEND > 0x1fff
  lcd_data('0'+NumOfDiodes);
    62fe:	80 91 18 01 	lds	r24, 0x0118	; 0x800118 <NumOfDiodes>
    6302:	80 5d       	subi	r24, 0xD0	; 208
    6304:	0e 94 d8 01 	call	0x3b0	; 0x3b0 <lcd_data>
  lcd_MEM_string(Dioden);	//"Diodes "
    6308:	8d e0       	ldi	r24, 0x0D	; 13
    630a:	91 e0       	ldi	r25, 0x01	; 1
    630c:	0e 94 7c 02 	call	0x4f8	; 0x4f8 <lcd_fix_string>
    goto tt_end;
  }  /* end (PartFound == PART_FET) */

//   if(PartFound == PART_RESISTOR) 
resistor_out:
  if (ResistorsFound != 0) {
    6310:	d0 91 6f 01 	lds	r29, 0x016F	; 0x80016f <ResistorsFound>
    6314:	dd 23       	and	r29, r29
    6316:	09 f4       	brne	.+2      	; 0x631a <main+0x8fc>
    6318:	7f c0       	rjmp	.+254    	; 0x6418 <main+0x9fa>
    if (ResistorsFound == 1) { // single resistor
    631a:	d1 30       	cpi	r29, 0x01	; 1
    631c:	a1 f4       	brne	.+40     	; 0x6346 <main+0x928>

       rpins.pw = Rnum2pins(ResistorList[0]);	// get pin numbers for resistor 1
    631e:	80 91 56 01 	lds	r24, 0x0156	; 0x800156 <ResistorList>
    6322:	0e 94 73 03 	call	0x6e6	; 0x6e6 <Rnum2pins>
       lcd_testpin(rpins.pb[1]);	//Pin-number 2
       lcd_line2(); //2. row 
       RvalOut(ResistorList[0]);
#else
 #if FLASHEND > 0x3fff
       if ((ResistorList[0] == 1) && (NumOfDiodes == 0)) {
    6326:	20 91 56 01 	lds	r18, 0x0156	; 0x800156 <ResistorList>
    632a:	21 30       	cpi	r18, 0x01	; 1
    632c:	39 f4       	brne	.+14     	; 0x633c <main+0x91e>
    632e:	20 91 18 01 	lds	r18, 0x0118	; 0x800118 <NumOfDiodes>
    6332:	21 11       	cpse	r18, r1
    6334:	03 c0       	rjmp	.+6      	; 0x633c <main+0x91e>
          // is the TP1:TP3 resistor and no additional diode
          show_Resis13();		// call of the special resistor measurement
    6336:	0e 94 6b 1b 	call	0x36d6	; 0x36d6 <show_Resis13>
          goto shut_off;		// key is pressed or timeout
    633a:	84 c0       	rjmp	.+264    	; 0x6444 <main+0xa26>
       }
 #endif
       show_resis(rpins.pb[0],rpins.pb[1],0);
    633c:	40 e0       	ldi	r20, 0x00	; 0
    633e:	69 2f       	mov	r22, r25
    6340:	0e 94 f4 19 	call	0x33e8	; 0x33e8 <show_resis>
    6344:	78 c0       	rjmp	.+240    	; 0x6436 <main+0xa18>
#endif

    } else { // multiple resistors found, R-Max suchen

       ii = ResistorList[0];	// first resistor in the list with number 0,1,2
    6346:	90 91 56 01 	lds	r25, 0x0156	; 0x800156 <ResistorList>
       if (ResistorVal[ResistorList[1]] > ResistorVal[ii])
    634a:	80 91 57 01 	lds	r24, 0x0157	; 0x800157 <ResistorList+0x1>
    634e:	24 e0       	ldi	r18, 0x04	; 4
    6350:	82 9f       	mul	r24, r18
    6352:	d0 01       	movw	r26, r0
    6354:	11 24       	eor	r1, r1
    6356:	ae 55       	subi	r26, 0x5E	; 94
    6358:	be 4f       	sbci	r27, 0xFE	; 254
    635a:	24 e0       	ldi	r18, 0x04	; 4
    635c:	92 9f       	mul	r25, r18
    635e:	f0 01       	movw	r30, r0
    6360:	11 24       	eor	r1, r1
    6362:	ee 55       	subi	r30, 0x5E	; 94
    6364:	fe 4f       	sbci	r31, 0xFE	; 254
    6366:	0d 91       	ld	r16, X+
    6368:	1d 91       	ld	r17, X+
    636a:	2d 91       	ld	r18, X+
    636c:	3c 91       	ld	r19, X
    636e:	40 81       	ld	r20, Z
    6370:	51 81       	ldd	r21, Z+1	; 0x01
    6372:	62 81       	ldd	r22, Z+2	; 0x02
    6374:	73 81       	ldd	r23, Z+3	; 0x03
    6376:	40 17       	cp	r20, r16
    6378:	51 07       	cpc	r21, r17
    637a:	62 07       	cpc	r22, r18
    637c:	73 07       	cpc	r23, r19
    637e:	10 f4       	brcc	.+4      	; 0x6384 <main+0x966>
          ii = ResistorList[1]; // second resistor in the list with number 0,1,2
    6380:	c8 2f       	mov	r28, r24
    6382:	01 c0       	rjmp	.+2      	; 0x6386 <main+0x968>
       show_resis(rpins.pb[0],rpins.pb[1],0);
#endif

    } else { // multiple resistors found, R-Max suchen

       ii = ResistorList[0];	// first resistor in the list with number 0,1,2
    6384:	c9 2f       	mov	r28, r25
       if (ResistorVal[ResistorList[1]] > ResistorVal[ii])
          ii = ResistorList[1]; // second resistor in the list with number 0,1,2
       if (ResistorsFound == 2) {
    6386:	d2 30       	cpi	r29, 0x02	; 2
    6388:	21 f4       	brne	.+8      	; 0x6392 <main+0x974>
    638a:	89 0f       	add	r24, r25
          ii = (3 - ResistorList[0] - ResistorList[1]);
    638c:	c3 e0       	ldi	r28, 0x03	; 3
    638e:	c8 1b       	sub	r28, r24
    6390:	1c c0       	rjmp	.+56     	; 0x63ca <main+0x9ac>
       } else {
          if (ResistorVal[ResistorList[2]] > ResistorVal[ii]) {
    6392:	80 91 58 01 	lds	r24, 0x0158	; 0x800158 <ResistorList+0x2>
    6396:	94 e0       	ldi	r25, 0x04	; 4
    6398:	89 9f       	mul	r24, r25
    639a:	d0 01       	movw	r26, r0
    639c:	11 24       	eor	r1, r1
    639e:	ae 55       	subi	r26, 0x5E	; 94
    63a0:	be 4f       	sbci	r27, 0xFE	; 254
    63a2:	24 e0       	ldi	r18, 0x04	; 4
    63a4:	c2 9f       	mul	r28, r18
    63a6:	f0 01       	movw	r30, r0
    63a8:	11 24       	eor	r1, r1
    63aa:	ee 55       	subi	r30, 0x5E	; 94
    63ac:	fe 4f       	sbci	r31, 0xFE	; 254
    63ae:	0d 91       	ld	r16, X+
    63b0:	1d 91       	ld	r17, X+
    63b2:	2d 91       	ld	r18, X+
    63b4:	3c 91       	ld	r19, X
    63b6:	40 81       	ld	r20, Z
    63b8:	51 81       	ldd	r21, Z+1	; 0x01
    63ba:	62 81       	ldd	r22, Z+2	; 0x02
    63bc:	73 81       	ldd	r23, Z+3	; 0x03
    63be:	40 17       	cp	r20, r16
    63c0:	51 07       	cpc	r21, r17
    63c2:	62 07       	cpc	r22, r18
    63c4:	73 07       	cpc	r23, r19
    63c6:	08 f4       	brcc	.+2      	; 0x63ca <main+0x9ac>
             ii = ResistorList[2];
    63c8:	c8 2f       	mov	r28, r24
          y = TP1;
          z = TP3;
       }
#else
    // the following does the same as the above, but more cryptically (and in fewer instructions)
       x = TP1+(ii>>1);
    63ca:	dc 2f       	mov	r29, r28
    63cc:	d6 95       	lsr	r29
       y = TP3-ii;
    63ce:	09 2d       	mov	r16, r9
    63d0:	0c 1b       	sub	r16, r28
       z = TP2+(ii>0);
    63d2:	c1 11       	cpse	r28, r1
    63d4:	02 c0       	rjmp	.+4      	; 0x63da <main+0x9bc>
    63d6:	11 e0       	ldi	r17, 0x01	; 1
    63d8:	01 c0       	rjmp	.+2      	; 0x63dc <main+0x9be>
    63da:	12 e0       	ldi	r17, 0x02	; 2
#endif
       lcd_testpin(x);  	//Pin-number 1
    63dc:	8d 2f       	mov	r24, r29
    63de:	0e 94 0e 02 	call	0x41c	; 0x41c <lcd_testpin>
       lcd_MEM_string(Resistor_str);    // -[=]-
    63e2:	88 e0       	ldi	r24, 0x08	; 8
    63e4:	91 e0       	ldi	r25, 0x01	; 1
    63e6:	0e 94 7c 02 	call	0x4f8	; 0x4f8 <lcd_fix_string>
       lcd_testpin(y);		//Pin-number 2
    63ea:	80 2f       	mov	r24, r16
    63ec:	0e 94 0e 02 	call	0x41c	; 0x41c <lcd_testpin>
       lcd_MEM_string(Resistor_str);    // -[=]-
    63f0:	88 e0       	ldi	r24, 0x08	; 8
    63f2:	91 e0       	ldi	r25, 0x01	; 1
    63f4:	0e 94 7c 02 	call	0x4f8	; 0x4f8 <lcd_fix_string>
       lcd_testpin(z);		//Pin-number 3
    63f8:	81 2f       	mov	r24, r17
    63fa:	0e 94 0e 02 	call	0x41c	; 0x41c <lcd_testpin>

       lcd_next_line(0);
    63fe:	80 e0       	ldi	r24, 0x00	; 0
    6400:	0e 94 de 02 	call	0x5bc	; 0x5bc <lcd_next_line>
    //  if (ii == 2) { /* resistor 2 has maximum */
    //     RvalOut(0);
    //     RvalOut(1);
    //  }
    // again a shorter but cryptical equivalent:
       RvalOut(ii==0);
    6404:	81 e0       	ldi	r24, 0x01	; 1
    6406:	c1 11       	cpse	r28, r1
    6408:	80 e0       	ldi	r24, 0x00	; 0
    640a:	0e 94 7d 03 	call	0x6fa	; 0x6fa <RvalOut>
       RvalOut(2-(ii>>1));
    640e:	89 2d       	mov	r24, r9
    6410:	8d 1b       	sub	r24, r29
    6412:	0e 94 7d 03 	call	0x6fa	; 0x6fa <RvalOut>
    6416:	0f c0       	rjmp	.+30     	; 0x6436 <main+0xa18>
    }  // end ResistorsFound==1
    goto tt_end;

  } // end (PartFound == PART_RESISTOR)

  lcd_MEM_string(TestFailed1); 	//"Kein,unbek. oder"
    6418:	8e e5       	ldi	r24, 0x5E	; 94
    641a:	92 e0       	ldi	r25, 0x02	; 2
    641c:	0e 94 7c 02 	call	0x4f8	; 0x4f8 <lcd_fix_string>
  lcd_line2(); //2. row 
    6420:	0e 94 48 02 	call	0x490	; 0x490 <lcd_line2>
#if defined(LANG_ITALIAN) || defined(LANG_FRANCAIS)	//italiano or francais
  lcd_MEM_string(Bauteil);		//"campione"
  lcd_space();
  lcd_MEM_string(TestFailed2); 		//"guasto "
#else
  lcd_MEM_string(TestFailed2); 		//"defektes "
    6424:	8b e8       	ldi	r24, 0x8B	; 139
    6426:	92 e0       	ldi	r25, 0x02	; 2
    6428:	0e 94 7c 02 	call	0x4f8	; 0x4f8 <lcd_fix_string>
  lcd_MEM_string(Bauteil);		//"Bauteil"
    642c:	86 e8       	ldi	r24, 0x86	; 134
    642e:	92 e0       	ldi	r25, 0x02	; 2
    6430:	82 cb       	rjmp	.-2300   	; 0x5b36 <main+0x118>
 #ifdef WITH_PUT
  Display_mV(_trans->uBE,2);    // needed instead of ntrans for PUT, but costs 4 bytes more flash...
 #else
  Display_mV(ntrans.uBE,2);
 #endif
  uart_newline();		// MAURO ('I')
    6432:	0e 94 35 02 	call	0x46a	; 0x46a <uart_newline>
 tt_end:
#if POWER_OFF+0 > 1
  empty_count = 0;		// reset counter, if part is found
  mess_count++;			// count measurements
#endif
  max_time = display_time;	// full specified wait time
    6436:	80 91 12 01 	lds	r24, 0x0112	; 0x800112 <display_time>
    643a:	90 91 13 01 	lds	r25, 0x0113	; 0x800113 <display_time+0x1>
    643e:	81 cb       	rjmp	.-2302   	; 0x5b42 <main+0x124>
     // menu selected by long key press or rotary switch
		while(function_menu());// start the function menu
     goto loop_start;
  }
#endif
	if (ii != 0)
    6440:	81 11       	cpse	r24, r1
    6442:	8a cb       	rjmp	.-2284   	; 0x5b58 <main+0x13a>
 #endif
  // only one Measurement requested, shut off
 #if FLASHEND > 0x3fff
shut_off:
  // look, if the tester is uncalibrated (C-source will be included directly)
  lcd_cursor_off();
    6444:	8c e0       	ldi	r24, 0x0C	; 12
    6446:	0e 94 20 02 	call	0x440	; 0x440 <lcd_command>
#if defined(AUTO_CAL) && (FLASHEND > 0x3fff)
// Check is direct included in the main source of the TransistorTester
// a function with a call from main will use additional 38 bytes of flash
  // define additional variables , ii is already defined in main
 #define TIME_TO_READ 10000
  if (UnCalibrated) {
    644a:	80 91 37 01 	lds	r24, 0x0137	; 0x800137 <UnCalibrated>
    644e:	88 23       	and	r24, r24
    6450:	09 f4       	brne	.+2      	; 0x6454 <main+0xa36>
    6452:	58 c0       	rjmp	.+176    	; 0x6504 <main+0xae6>
    6454:	d2 e0       	ldi	r29, 0x02	; 2
    6456:	00 e0       	ldi	r16, 0x00	; 0
    6458:	10 e0       	ldi	r17, 0x00	; 0
    645a:	80 e0       	ldi	r24, 0x00	; 0
    645c:	90 e0       	ldi	r25, 0x00	; 0
    645e:	20 e1       	ldi	r18, 0x10	; 16
    6460:	42 2e       	mov	r4, r18
    zeich = ' ';		// initial value for while loop
    line_nr = LCD_LINES;		// begin with the first LCD line, but don't wait
    while (zeich != (char)0) {	// zero is end of text
       space_pos = LCD_LINE_LENGTH;		// if no space is found
       for (ii=0;ii<(LCD_LINE_LENGTH+1);ii++) {	// look for the last space character
         zeich = pgm_read_byte(&HelpCalibration_str[ii+jj]);
    6462:	fc 01       	movw	r30, r24
    6464:	e0 0f       	add	r30, r16
    6466:	f1 1f       	adc	r31, r17
    6468:	ee 56       	subi	r30, 0x6E	; 110
    646a:	fe 4f       	sbci	r31, 0xFE	; 254
    646c:	c4 91       	lpm	r28, Z
         if (zeich == ' ')  space_pos = ii; // save the position
    646e:	c0 32       	cpi	r28, 0x20	; 32
    6470:	09 f4       	brne	.+2      	; 0x6474 <main+0xa56>
    6472:	48 2e       	mov	r4, r24
    6474:	01 96       	adiw	r24, 0x01	; 1
    jj = 0;
    zeich = ' ';		// initial value for while loop
    line_nr = LCD_LINES;		// begin with the first LCD line, but don't wait
    while (zeich != (char)0) {	// zero is end of text
       space_pos = LCD_LINE_LENGTH;		// if no space is found
       for (ii=0;ii<(LCD_LINE_LENGTH+1);ii++) {	// look for the last space character
    6476:	81 31       	cpi	r24, 0x11	; 17
    6478:	91 05       	cpc	r25, r1
    647a:	99 f7       	brne	.-26     	; 0x6462 <main+0xa44>
         zeich = pgm_read_byte(&HelpCalibration_str[ii+jj]);
         if (zeich == ' ')  space_pos = ii; // save the position
       }
       if (line_nr == 0) {
    647c:	dd 23       	and	r29, r29
    647e:	41 f0       	breq	.+16     	; 0x6490 <main+0xa72>
          // it is the first LCD line, wait for showing the last message
          if ((wait_for_key_ms(TIME_TO_READ)) != 0) break;	// key pressed
       }
       sub_line = line_nr % LCD_LINES;
       if (sub_line == 0) lcd_clear();  // clear display, line_nr is 0 or 4
    6480:	8d 2f       	mov	r24, r29
    6482:	81 70       	andi	r24, 0x01	; 1
    6484:	b8 2e       	mov	r11, r24
    6486:	d0 fd       	sbrc	r29, 0
    6488:	0a c0       	rjmp	.+20     	; 0x649e <main+0xa80>
    648a:	0e 94 42 02 	call	0x484	; 0x484 <lcd_clear>
    648e:	07 c0       	rjmp	.+14     	; 0x649e <main+0xa80>
         zeich = pgm_read_byte(&HelpCalibration_str[ii+jj]);
         if (zeich == ' ')  space_pos = ii; // save the position
       }
       if (line_nr == 0) {
          // it is the first LCD line, wait for showing the last message
          if ((wait_for_key_ms(TIME_TO_READ)) != 0) break;	// key pressed
    6490:	80 e1       	ldi	r24, 0x10	; 16
    6492:	97 e2       	ldi	r25, 0x27	; 39
    6494:	0e 94 f1 05 	call	0xbe2	; 0xbe2 <wait_for_key_ms>
    6498:	88 23       	and	r24, r24
    649a:	91 f3       	breq	.-28     	; 0x6480 <main+0xa62>
    649c:	2f c0       	rjmp	.+94     	; 0x64fc <main+0xade>
       }
       sub_line = line_nr % LCD_LINES;
       if (sub_line == 0) lcd_clear();  // clear display, line_nr is 0 or 4
       lcd_set_cursor(sub_line*PAGES_PER_LINE ,0);
    649e:	60 e0       	ldi	r22, 0x00	; 0
    64a0:	8b 2d       	mov	r24, r11
    64a2:	0e 94 25 02 	call	0x44a	; 0x44a <lcd_set_cursor>
       uart_newline();
    64a6:	0e 94 35 02 	call	0x46a	; 0x46a <uart_newline>
       wdt_reset();
    64aa:	a8 95       	wdr
       line_nr = (line_nr + 1) % LCD_LINES;
    64ac:	df 5f       	subi	r29, 0xFF	; 255
    64ae:	d1 70       	andi	r29, 0x01	; 1
       for (ii=0;ii<space_pos;ii++) {
    64b0:	a1 2c       	mov	r10, r1
    64b2:	b1 2c       	mov	r11, r1
    64b4:	a4 14       	cp	r10, r4
    64b6:	a0 f4       	brcc	.+40     	; 0x64e0 <main+0xac2>
         zeich = pgm_read_byte(&HelpCalibration_str[ii+jj]);
    64b8:	f8 01       	movw	r30, r16
    64ba:	ea 0d       	add	r30, r10
    64bc:	fb 1d       	adc	r31, r11
    64be:	ee 56       	subi	r30, 0x6E	; 110
    64c0:	fe 4f       	sbci	r31, 0xFE	; 254
    64c2:	c4 91       	lpm	r28, Z
         if (zeich == (char)0) break;	// end of text found
    64c4:	cc 23       	and	r28, r28
    64c6:	d1 f0       	breq	.+52     	; 0x64fc <main+0xade>
         if (zeich == LCD_CHAR_INSEP) {
    64c8:	cf 3f       	cpi	r28, 0xFF	; 255
    64ca:	19 f4       	brne	.+6      	; 0x64d2 <main+0xab4>
            lcd_space();	// replace with space
    64cc:	0e 94 11 02 	call	0x422	; 0x422 <lcd_space>
    64d0:	03 c0       	rjmp	.+6      	; 0x64d8 <main+0xaba>
         } else {
            lcd_data(zeich);		// display the character without offset
    64d2:	8c 2f       	mov	r24, r28
    64d4:	0e 94 d8 01 	call	0x3b0	; 0x3b0 <lcd_data>
    64d8:	9f ef       	ldi	r25, 0xFF	; 255
    64da:	a9 1a       	sub	r10, r25
    64dc:	b9 0a       	sbc	r11, r25
    64de:	ea cf       	rjmp	.-44     	; 0x64b4 <main+0xa96>
         }
       }
       if (zeich == (char)0) break;	// end of text found
    64e0:	cc 23       	and	r28, r28
    64e2:	61 f0       	breq	.+24     	; 0x64fc <main+0xade>
       jj += space_pos;		// start position of line 2
    64e4:	04 0d       	add	r16, r4
    64e6:	11 1d       	adc	r17, r1
       if((pgm_read_byte(&HelpCalibration_str[jj])) == ' ') jj++; // no space at begin of line
    64e8:	f8 01       	movw	r30, r16
    64ea:	ee 56       	subi	r30, 0x6E	; 110
    64ec:	fe 4f       	sbci	r31, 0xFE	; 254
    64ee:	e4 91       	lpm	r30, Z
    64f0:	e0 32       	cpi	r30, 0x20	; 32
    64f2:	09 f0       	breq	.+2      	; 0x64f6 <main+0xad8>
    64f4:	b2 cf       	rjmp	.-156    	; 0x645a <main+0xa3c>
    64f6:	0f 5f       	subi	r16, 0xFF	; 255
    64f8:	1f 4f       	sbci	r17, 0xFF	; 255
    64fa:	af cf       	rjmp	.-162    	; 0x645a <main+0xa3c>
    lcd_pgm_string(HelpCalibration_str);	// only short message!
	#ifdef WITH_UART		//Mauro 
		uart_newline();		//Mauro 
	#endif					//Mauro 
#endif
    wait_for_key_ms(TIME_TO_READ);	// key pressed
    64fc:	80 e1       	ldi	r24, 0x10	; 16
    64fe:	97 e2       	ldi	r25, 0x27	; 39
    6500:	0e 94 f1 05 	call	0xbe2	; 0xbe2 <wait_for_key_ms>
  #include "HelpCalibration.c"
 #endif
//  MCUSR = 0;
  switch_tester_off();
    6504:	0e 94 13 07 	call	0xe26	; 0xe26 <switch_tester_off>
shut_off:
  // look, if the tester is uncalibrated (C-source will be included directly)
  lcd_cursor_off();
  #include "HelpCalibration.c"
#endif
	goto loop_start;
    6508:	27 cb       	rjmp	.-2482   	; 0x5b58 <main+0x13a>
          lcd_data('E');			// N-E or P-E
       }
       if (part_code == (PART_MODE_IGBT)) {
          lcd_MEM_string(igbt_str);	//"-IGBT"
       } else {
          lcd_MEM_string(mosfet_str);	//"-MOS "
    650a:	86 e8       	ldi	r24, 0x86	; 134
    650c:	91 e0       	ldi	r25, 0x01	; 1
    650e:	0e 94 7c 02 	call	0x4f8	; 0x4f8 <lcd_fix_string>
    if (part_code == PART_MODE_IGBT) {
       PinLayout('E','G','C'); 		//  SGD= or 123=...
    } else if (part_code == PART_MODE_JFET) {
       PinLayout('?','G','?'); 		//  ?G?= or 123=...
    } else {
       PinLayout('S','G','D'); 		//  SGD= or 123=...
    6512:	44 e4       	ldi	r20, 0x44	; 68
    6514:	67 e4       	ldi	r22, 0x47	; 71
    6516:	83 e5       	ldi	r24, 0x53	; 83
    6518:	36 ce       	rjmp	.-916    	; 0x6186 <main+0x768>
	//  ADC_DDR = TXD_MSK;
	  if(tmp) { 
	     // check if  Watchdog-Event 
	     // this happens, if the Watchdog is not reset for 2s
	     // can happen, if any loop in the Program doen't finish.
	     lcd_line1();
    651a:	0e 94 3a 02 	call	0x474	; 0x474 <lcd_line1>
             lcd_MEM_string(TestTimedOut);	//Output Timeout
    651e:	8b e4       	ldi	r24, 0x4B	; 75
    6520:	92 e0       	ldi	r25, 0x02	; 2
    6522:	0e 94 7c 02 	call	0x4f8	; 0x4f8 <lcd_fix_string>
	     wait_about3s();			// time to read the Timeout message
    6526:	8b ec       	ldi	r24, 0xCB	; 203
    6528:	0e 94 47 05 	call	0xa8e	; 0xa8e <sleep_5ms>
	     switch_tester_off();
    652c:	0e 94 13 07 	call	0xe26	; 0xe26 <switch_tester_off>
  lcd_MEM_string(Dioden);	//"Diodes "
//#endif
#endif
  goto resistor_out;

}   // end main
    6530:	80 e0       	ldi	r24, 0x00	; 0
    6532:	90 e0       	ldi	r25, 0x00	; 0
    6534:	cd b7       	in	r28, 0x3d	; 61
    6536:	de b7       	in	r29, 0x3e	; 62
    6538:	e2 e1       	ldi	r30, 0x12	; 18
    653a:	46 c1       	rjmp	.+652    	; 0x67c8 <__epilogue_restores__>

0000653c <__mulsi3>:
    653c:	db 01       	movw	r26, r22
    653e:	8f 93       	push	r24
    6540:	9f 93       	push	r25
    6542:	91 d0       	rcall	.+290    	; 0x6666 <__muluhisi3>
    6544:	bf 91       	pop	r27
    6546:	af 91       	pop	r26
    6548:	a2 9f       	mul	r26, r18
    654a:	80 0d       	add	r24, r0
    654c:	91 1d       	adc	r25, r1
    654e:	a3 9f       	mul	r26, r19
    6550:	90 0d       	add	r25, r0
    6552:	b2 9f       	mul	r27, r18
    6554:	90 0d       	add	r25, r0
    6556:	11 24       	eor	r1, r1
    6558:	08 95       	ret

0000655a <__udivmodqi4>:
    655a:	99 1b       	sub	r25, r25
    655c:	79 e0       	ldi	r23, 0x09	; 9
    655e:	04 c0       	rjmp	.+8      	; 0x6568 <__udivmodqi4_ep>

00006560 <__udivmodqi4_loop>:
    6560:	99 1f       	adc	r25, r25
    6562:	96 17       	cp	r25, r22
    6564:	08 f0       	brcs	.+2      	; 0x6568 <__udivmodqi4_ep>
    6566:	96 1b       	sub	r25, r22

00006568 <__udivmodqi4_ep>:
    6568:	88 1f       	adc	r24, r24
    656a:	7a 95       	dec	r23
    656c:	c9 f7       	brne	.-14     	; 0x6560 <__udivmodqi4_loop>
    656e:	80 95       	com	r24
    6570:	08 95       	ret

00006572 <__udivmodhi4>:
    6572:	aa 1b       	sub	r26, r26
    6574:	bb 1b       	sub	r27, r27
    6576:	51 e1       	ldi	r21, 0x11	; 17
    6578:	07 c0       	rjmp	.+14     	; 0x6588 <__udivmodhi4_ep>

0000657a <__udivmodhi4_loop>:
    657a:	aa 1f       	adc	r26, r26
    657c:	bb 1f       	adc	r27, r27
    657e:	a6 17       	cp	r26, r22
    6580:	b7 07       	cpc	r27, r23
    6582:	10 f0       	brcs	.+4      	; 0x6588 <__udivmodhi4_ep>
    6584:	a6 1b       	sub	r26, r22
    6586:	b7 0b       	sbc	r27, r23

00006588 <__udivmodhi4_ep>:
    6588:	88 1f       	adc	r24, r24
    658a:	99 1f       	adc	r25, r25
    658c:	5a 95       	dec	r21
    658e:	a9 f7       	brne	.-22     	; 0x657a <__udivmodhi4_loop>
    6590:	80 95       	com	r24
    6592:	90 95       	com	r25
    6594:	bc 01       	movw	r22, r24
    6596:	cd 01       	movw	r24, r26
    6598:	08 95       	ret

0000659a <__divmodhi4>:
    659a:	97 fb       	bst	r25, 7
    659c:	07 2e       	mov	r0, r23
    659e:	16 f4       	brtc	.+4      	; 0x65a4 <__divmodhi4+0xa>
    65a0:	00 94       	com	r0
    65a2:	06 d0       	rcall	.+12     	; 0x65b0 <__divmodhi4_neg1>
    65a4:	77 fd       	sbrc	r23, 7
    65a6:	08 d0       	rcall	.+16     	; 0x65b8 <__divmodhi4_neg2>
    65a8:	e4 df       	rcall	.-56     	; 0x6572 <__udivmodhi4>
    65aa:	07 fc       	sbrc	r0, 7
    65ac:	05 d0       	rcall	.+10     	; 0x65b8 <__divmodhi4_neg2>
    65ae:	3e f4       	brtc	.+14     	; 0x65be <__divmodhi4_exit>

000065b0 <__divmodhi4_neg1>:
    65b0:	90 95       	com	r25
    65b2:	81 95       	neg	r24
    65b4:	9f 4f       	sbci	r25, 0xFF	; 255
    65b6:	08 95       	ret

000065b8 <__divmodhi4_neg2>:
    65b8:	70 95       	com	r23
    65ba:	61 95       	neg	r22
    65bc:	7f 4f       	sbci	r23, 0xFF	; 255

000065be <__divmodhi4_exit>:
    65be:	08 95       	ret

000065c0 <__udivmodsi4>:
    65c0:	a1 e2       	ldi	r26, 0x21	; 33
    65c2:	1a 2e       	mov	r1, r26
    65c4:	aa 1b       	sub	r26, r26
    65c6:	bb 1b       	sub	r27, r27
    65c8:	fd 01       	movw	r30, r26
    65ca:	0d c0       	rjmp	.+26     	; 0x65e6 <__udivmodsi4_ep>

000065cc <__udivmodsi4_loop>:
    65cc:	aa 1f       	adc	r26, r26
    65ce:	bb 1f       	adc	r27, r27
    65d0:	ee 1f       	adc	r30, r30
    65d2:	ff 1f       	adc	r31, r31
    65d4:	a2 17       	cp	r26, r18
    65d6:	b3 07       	cpc	r27, r19
    65d8:	e4 07       	cpc	r30, r20
    65da:	f5 07       	cpc	r31, r21
    65dc:	20 f0       	brcs	.+8      	; 0x65e6 <__udivmodsi4_ep>
    65de:	a2 1b       	sub	r26, r18
    65e0:	b3 0b       	sbc	r27, r19
    65e2:	e4 0b       	sbc	r30, r20
    65e4:	f5 0b       	sbc	r31, r21

000065e6 <__udivmodsi4_ep>:
    65e6:	66 1f       	adc	r22, r22
    65e8:	77 1f       	adc	r23, r23
    65ea:	88 1f       	adc	r24, r24
    65ec:	99 1f       	adc	r25, r25
    65ee:	1a 94       	dec	r1
    65f0:	69 f7       	brne	.-38     	; 0x65cc <__udivmodsi4_loop>
    65f2:	60 95       	com	r22
    65f4:	70 95       	com	r23
    65f6:	80 95       	com	r24
    65f8:	90 95       	com	r25
    65fa:	9b 01       	movw	r18, r22
    65fc:	ac 01       	movw	r20, r24
    65fe:	bd 01       	movw	r22, r26
    6600:	cf 01       	movw	r24, r30
    6602:	08 95       	ret

00006604 <__divmodsi4>:
    6604:	05 2e       	mov	r0, r21
    6606:	97 fb       	bst	r25, 7
    6608:	16 f4       	brtc	.+4      	; 0x660e <__divmodsi4+0xa>
    660a:	00 94       	com	r0
    660c:	0f d0       	rcall	.+30     	; 0x662c <__negsi2>
    660e:	57 fd       	sbrc	r21, 7
    6610:	05 d0       	rcall	.+10     	; 0x661c <__divmodsi4_neg2>
    6612:	d6 df       	rcall	.-84     	; 0x65c0 <__udivmodsi4>
    6614:	07 fc       	sbrc	r0, 7
    6616:	02 d0       	rcall	.+4      	; 0x661c <__divmodsi4_neg2>
    6618:	46 f4       	brtc	.+16     	; 0x662a <__divmodsi4_exit>
    661a:	08 c0       	rjmp	.+16     	; 0x662c <__negsi2>

0000661c <__divmodsi4_neg2>:
    661c:	50 95       	com	r21
    661e:	40 95       	com	r20
    6620:	30 95       	com	r19
    6622:	21 95       	neg	r18
    6624:	3f 4f       	sbci	r19, 0xFF	; 255
    6626:	4f 4f       	sbci	r20, 0xFF	; 255
    6628:	5f 4f       	sbci	r21, 0xFF	; 255

0000662a <__divmodsi4_exit>:
    662a:	08 95       	ret

0000662c <__negsi2>:
    662c:	90 95       	com	r25
    662e:	80 95       	com	r24
    6630:	70 95       	com	r23
    6632:	61 95       	neg	r22
    6634:	7f 4f       	sbci	r23, 0xFF	; 255
    6636:	8f 4f       	sbci	r24, 0xFF	; 255
    6638:	9f 4f       	sbci	r25, 0xFF	; 255
    663a:	08 95       	ret

0000663c <__umulhisi3>:
    663c:	a2 9f       	mul	r26, r18
    663e:	b0 01       	movw	r22, r0
    6640:	b3 9f       	mul	r27, r19
    6642:	c0 01       	movw	r24, r0
    6644:	a3 9f       	mul	r26, r19
    6646:	70 0d       	add	r23, r0
    6648:	81 1d       	adc	r24, r1
    664a:	11 24       	eor	r1, r1
    664c:	91 1d       	adc	r25, r1
    664e:	b2 9f       	mul	r27, r18
    6650:	70 0d       	add	r23, r0
    6652:	81 1d       	adc	r24, r1
    6654:	11 24       	eor	r1, r1
    6656:	91 1d       	adc	r25, r1
    6658:	08 95       	ret

0000665a <__usmulhisi3>:
    665a:	f0 df       	rcall	.-32     	; 0x663c <__umulhisi3>

0000665c <__usmulhisi3_tail>:
    665c:	b7 ff       	sbrs	r27, 7
    665e:	08 95       	ret
    6660:	82 1b       	sub	r24, r18
    6662:	93 0b       	sbc	r25, r19
    6664:	08 95       	ret

00006666 <__muluhisi3>:
    6666:	ea df       	rcall	.-44     	; 0x663c <__umulhisi3>
    6668:	a5 9f       	mul	r26, r21
    666a:	90 0d       	add	r25, r0
    666c:	b4 9f       	mul	r27, r20
    666e:	90 0d       	add	r25, r0
    6670:	a4 9f       	mul	r26, r20
    6672:	80 0d       	add	r24, r0
    6674:	91 1d       	adc	r25, r1
    6676:	11 24       	eor	r1, r1
    6678:	08 95       	ret

0000667a <__mulshisi3>:
    667a:	b7 ff       	sbrs	r27, 7
    667c:	f4 cf       	rjmp	.-24     	; 0x6666 <__muluhisi3>

0000667e <__mulohisi3>:
    667e:	f3 df       	rcall	.-26     	; 0x6666 <__muluhisi3>
    6680:	82 1b       	sub	r24, r18
    6682:	93 0b       	sbc	r25, r19
    6684:	08 95       	ret

00006686 <__umulsidi3>:
    6686:	e8 94       	clt

00006688 <__umulsidi3_helper>:
    6688:	df 93       	push	r29
    668a:	cf 93       	push	r28
    668c:	fc 01       	movw	r30, r24
    668e:	db 01       	movw	r26, r22
    6690:	d5 df       	rcall	.-86     	; 0x663c <__umulhisi3>
    6692:	7f 93       	push	r23
    6694:	6f 93       	push	r22
    6696:	e9 01       	movw	r28, r18
    6698:	9a 01       	movw	r18, r20
    669a:	ac 01       	movw	r20, r24
    669c:	bf 93       	push	r27
    669e:	af 93       	push	r26
    66a0:	3f 93       	push	r19
    66a2:	2f 93       	push	r18
    66a4:	df 01       	movw	r26, r30
    66a6:	ca df       	rcall	.-108    	; 0x663c <__umulhisi3>
    66a8:	26 f4       	brtc	.+8      	; 0x66b2 <__umulsidi3_helper+0x2a>
    66aa:	6c 1b       	sub	r22, r28
    66ac:	7d 0b       	sbc	r23, r29
    66ae:	82 0b       	sbc	r24, r18
    66b0:	93 0b       	sbc	r25, r19
    66b2:	9e 01       	movw	r18, r28
    66b4:	eb 01       	movw	r28, r22
    66b6:	fc 01       	movw	r30, r24
    66b8:	a2 d0       	rcall	.+324    	; 0x67fe <__muldi3_6>
    66ba:	af 91       	pop	r26
    66bc:	bf 91       	pop	r27
    66be:	2f 91       	pop	r18
    66c0:	3f 91       	pop	r19
    66c2:	9d d0       	rcall	.+314    	; 0x67fe <__muldi3_6>
    66c4:	be 01       	movw	r22, r28
    66c6:	cf 01       	movw	r24, r30
    66c8:	f9 01       	movw	r30, r18
    66ca:	2f 91       	pop	r18
    66cc:	3f 91       	pop	r19
    66ce:	cf 91       	pop	r28
    66d0:	df 91       	pop	r29
    66d2:	08 95       	ret

000066d4 <__umoddi3>:
    66d4:	68 94       	set
    66d6:	01 c0       	rjmp	.+2      	; 0x66da <__udivdi3_umoddi3>

000066d8 <__udivdi3>:
    66d8:	e8 94       	clt

000066da <__udivdi3_umoddi3>:
    66da:	8f 92       	push	r8
    66dc:	9f 92       	push	r9
    66de:	cf 93       	push	r28
    66e0:	df 93       	push	r29
    66e2:	05 d0       	rcall	.+10     	; 0x66ee <__udivmod64>
    66e4:	df 91       	pop	r29
    66e6:	cf 91       	pop	r28
    66e8:	9f 90       	pop	r9
    66ea:	8f 90       	pop	r8
    66ec:	08 95       	ret

000066ee <__udivmod64>:
    66ee:	88 24       	eor	r8, r8
    66f0:	99 24       	eor	r9, r9
    66f2:	f4 01       	movw	r30, r8
    66f4:	e4 01       	movw	r28, r8
    66f6:	b0 e4       	ldi	r27, 0x40	; 64
    66f8:	9f 93       	push	r25
    66fa:	aa 27       	eor	r26, r26
    66fc:	9a 15       	cp	r25, r10
    66fe:	8b 04       	cpc	r8, r11
    6700:	9c 04       	cpc	r9, r12
    6702:	ed 05       	cpc	r30, r13
    6704:	fe 05       	cpc	r31, r14
    6706:	cf 05       	cpc	r28, r15
    6708:	d0 07       	cpc	r29, r16
    670a:	a1 07       	cpc	r26, r17
    670c:	98 f4       	brcc	.+38     	; 0x6734 <__udivmod64+0x46>
    670e:	ad 2f       	mov	r26, r29
    6710:	dc 2f       	mov	r29, r28
    6712:	cf 2f       	mov	r28, r31
    6714:	fe 2f       	mov	r31, r30
    6716:	e9 2d       	mov	r30, r9
    6718:	98 2c       	mov	r9, r8
    671a:	89 2e       	mov	r8, r25
    671c:	98 2f       	mov	r25, r24
    671e:	87 2f       	mov	r24, r23
    6720:	76 2f       	mov	r23, r22
    6722:	65 2f       	mov	r22, r21
    6724:	54 2f       	mov	r21, r20
    6726:	43 2f       	mov	r20, r19
    6728:	32 2f       	mov	r19, r18
    672a:	22 27       	eor	r18, r18
    672c:	b8 50       	subi	r27, 0x08	; 8
    672e:	31 f7       	brne	.-52     	; 0x66fc <__udivmod64+0xe>
    6730:	bf 91       	pop	r27
    6732:	27 c0       	rjmp	.+78     	; 0x6782 <__udivmod64+0x94>
    6734:	1b 2e       	mov	r1, r27
    6736:	bf 91       	pop	r27
    6738:	bb 27       	eor	r27, r27
    673a:	22 0f       	add	r18, r18
    673c:	33 1f       	adc	r19, r19
    673e:	44 1f       	adc	r20, r20
    6740:	55 1f       	adc	r21, r21
    6742:	66 1f       	adc	r22, r22
    6744:	77 1f       	adc	r23, r23
    6746:	88 1f       	adc	r24, r24
    6748:	99 1f       	adc	r25, r25
    674a:	88 1c       	adc	r8, r8
    674c:	99 1c       	adc	r9, r9
    674e:	ee 1f       	adc	r30, r30
    6750:	ff 1f       	adc	r31, r31
    6752:	cc 1f       	adc	r28, r28
    6754:	dd 1f       	adc	r29, r29
    6756:	aa 1f       	adc	r26, r26
    6758:	bb 1f       	adc	r27, r27
    675a:	8a 14       	cp	r8, r10
    675c:	9b 04       	cpc	r9, r11
    675e:	ec 05       	cpc	r30, r12
    6760:	fd 05       	cpc	r31, r13
    6762:	ce 05       	cpc	r28, r14
    6764:	df 05       	cpc	r29, r15
    6766:	a0 07       	cpc	r26, r16
    6768:	b1 07       	cpc	r27, r17
    676a:	48 f0       	brcs	.+18     	; 0x677e <__udivmod64+0x90>
    676c:	8a 18       	sub	r8, r10
    676e:	9b 08       	sbc	r9, r11
    6770:	ec 09       	sbc	r30, r12
    6772:	fd 09       	sbc	r31, r13
    6774:	ce 09       	sbc	r28, r14
    6776:	df 09       	sbc	r29, r15
    6778:	a0 0b       	sbc	r26, r16
    677a:	b1 0b       	sbc	r27, r17
    677c:	21 60       	ori	r18, 0x01	; 1
    677e:	1a 94       	dec	r1
    6780:	e1 f6       	brne	.-72     	; 0x673a <__udivmod64+0x4c>
    6782:	2e f4       	brtc	.+10     	; 0x678e <__udivmod64+0xa0>
    6784:	94 01       	movw	r18, r8
    6786:	af 01       	movw	r20, r30
    6788:	be 01       	movw	r22, r28
    678a:	cd 01       	movw	r24, r26
    678c:	00 0c       	add	r0, r0
    678e:	08 95       	ret

00006790 <__prologue_saves__>:
    6790:	2f 92       	push	r2
    6792:	3f 92       	push	r3
    6794:	4f 92       	push	r4
    6796:	5f 92       	push	r5
    6798:	6f 92       	push	r6
    679a:	7f 92       	push	r7
    679c:	8f 92       	push	r8
    679e:	9f 92       	push	r9
    67a0:	af 92       	push	r10
    67a2:	bf 92       	push	r11
    67a4:	cf 92       	push	r12
    67a6:	df 92       	push	r13
    67a8:	ef 92       	push	r14
    67aa:	ff 92       	push	r15
    67ac:	0f 93       	push	r16
    67ae:	1f 93       	push	r17
    67b0:	cf 93       	push	r28
    67b2:	df 93       	push	r29
    67b4:	cd b7       	in	r28, 0x3d	; 61
    67b6:	de b7       	in	r29, 0x3e	; 62
    67b8:	ca 1b       	sub	r28, r26
    67ba:	db 0b       	sbc	r29, r27
    67bc:	0f b6       	in	r0, 0x3f	; 63
    67be:	f8 94       	cli
    67c0:	de bf       	out	0x3e, r29	; 62
    67c2:	0f be       	out	0x3f, r0	; 63
    67c4:	cd bf       	out	0x3d, r28	; 61
    67c6:	09 94       	ijmp

000067c8 <__epilogue_restores__>:
    67c8:	2a 88       	ldd	r2, Y+18	; 0x12
    67ca:	39 88       	ldd	r3, Y+17	; 0x11
    67cc:	48 88       	ldd	r4, Y+16	; 0x10
    67ce:	5f 84       	ldd	r5, Y+15	; 0x0f
    67d0:	6e 84       	ldd	r6, Y+14	; 0x0e
    67d2:	7d 84       	ldd	r7, Y+13	; 0x0d
    67d4:	8c 84       	ldd	r8, Y+12	; 0x0c
    67d6:	9b 84       	ldd	r9, Y+11	; 0x0b
    67d8:	aa 84       	ldd	r10, Y+10	; 0x0a
    67da:	b9 84       	ldd	r11, Y+9	; 0x09
    67dc:	c8 84       	ldd	r12, Y+8	; 0x08
    67de:	df 80       	ldd	r13, Y+7	; 0x07
    67e0:	ee 80       	ldd	r14, Y+6	; 0x06
    67e2:	fd 80       	ldd	r15, Y+5	; 0x05
    67e4:	0c 81       	ldd	r16, Y+4	; 0x04
    67e6:	1b 81       	ldd	r17, Y+3	; 0x03
    67e8:	aa 81       	ldd	r26, Y+2	; 0x02
    67ea:	b9 81       	ldd	r27, Y+1	; 0x01
    67ec:	ce 0f       	add	r28, r30
    67ee:	d1 1d       	adc	r29, r1
    67f0:	0f b6       	in	r0, 0x3f	; 63
    67f2:	f8 94       	cli
    67f4:	de bf       	out	0x3e, r29	; 62
    67f6:	0f be       	out	0x3f, r0	; 63
    67f8:	cd bf       	out	0x3d, r28	; 61
    67fa:	ed 01       	movw	r28, r26
    67fc:	08 95       	ret

000067fe <__muldi3_6>:
    67fe:	1e df       	rcall	.-452    	; 0x663c <__umulhisi3>
    6800:	46 0f       	add	r20, r22
    6802:	57 1f       	adc	r21, r23
    6804:	c8 1f       	adc	r28, r24
    6806:	d9 1f       	adc	r29, r25
    6808:	08 f4       	brcc	.+2      	; 0x680c <__muldi3_6+0xe>
    680a:	31 96       	adiw	r30, 0x01	; 1
    680c:	08 95       	ret

0000680e <__ultoa_ncheck>:
    680e:	bb 27       	eor	r27, r27

00006810 <__ultoa_common>:
    6810:	fa 01       	movw	r30, r20
    6812:	a6 2f       	mov	r26, r22
    6814:	62 17       	cp	r22, r18
    6816:	71 05       	cpc	r23, r1
    6818:	81 05       	cpc	r24, r1
    681a:	91 05       	cpc	r25, r1
    681c:	33 0b       	sbc	r19, r19
    681e:	30 fb       	bst	r19, 0
    6820:	66 f0       	brts	.+24     	; 0x683a <__ultoa_common+0x2a>
    6822:	aa 27       	eor	r26, r26
    6824:	66 0f       	add	r22, r22
    6826:	77 1f       	adc	r23, r23
    6828:	88 1f       	adc	r24, r24
    682a:	99 1f       	adc	r25, r25
    682c:	aa 1f       	adc	r26, r26
    682e:	a2 17       	cp	r26, r18
    6830:	10 f0       	brcs	.+4      	; 0x6836 <__ultoa_common+0x26>
    6832:	a2 1b       	sub	r26, r18
    6834:	63 95       	inc	r22
    6836:	38 50       	subi	r19, 0x08	; 8
    6838:	a9 f7       	brne	.-22     	; 0x6824 <__ultoa_common+0x14>
    683a:	a0 5d       	subi	r26, 0xD0	; 208
    683c:	aa 33       	cpi	r26, 0x3A	; 58
    683e:	08 f0       	brcs	.+2      	; 0x6842 <__ultoa_common+0x32>
    6840:	a9 5d       	subi	r26, 0xD9	; 217
    6842:	a1 93       	st	Z+, r26
    6844:	36 f7       	brtc	.-52     	; 0x6812 <__ultoa_common+0x2>
    6846:	b1 11       	cpse	r27, r1
    6848:	b1 93       	st	Z+, r27
    684a:	10 82       	st	Z, r1
    684c:	ca 01       	movw	r24, r20
    684e:	23 c0       	rjmp	.+70     	; 0x6896 <strrev>

00006850 <utoa>:
    6850:	45 32       	cpi	r20, 0x25	; 37
    6852:	51 05       	cpc	r21, r1
    6854:	18 f4       	brcc	.+6      	; 0x685c <utoa+0xc>
    6856:	42 30       	cpi	r20, 0x02	; 2
    6858:	08 f0       	brcs	.+2      	; 0x685c <utoa+0xc>
    685a:	04 c0       	rjmp	.+8      	; 0x6864 <__utoa_ncheck>
    685c:	fb 01       	movw	r30, r22
    685e:	10 82       	st	Z, r1
    6860:	cb 01       	movw	r24, r22
    6862:	08 95       	ret

00006864 <__utoa_ncheck>:
    6864:	bb 27       	eor	r27, r27

00006866 <__utoa_common>:
    6866:	fb 01       	movw	r30, r22
    6868:	55 27       	eor	r21, r21
    686a:	aa 27       	eor	r26, r26
    686c:	88 0f       	add	r24, r24
    686e:	99 1f       	adc	r25, r25
    6870:	aa 1f       	adc	r26, r26
    6872:	a4 17       	cp	r26, r20
    6874:	10 f0       	brcs	.+4      	; 0x687a <__utoa_common+0x14>
    6876:	a4 1b       	sub	r26, r20
    6878:	83 95       	inc	r24
    687a:	50 51       	subi	r21, 0x10	; 16
    687c:	b9 f7       	brne	.-18     	; 0x686c <__utoa_common+0x6>
    687e:	a0 5d       	subi	r26, 0xD0	; 208
    6880:	aa 33       	cpi	r26, 0x3A	; 58
    6882:	08 f0       	brcs	.+2      	; 0x6886 <__utoa_common+0x20>
    6884:	a9 5d       	subi	r26, 0xD9	; 217
    6886:	a1 93       	st	Z+, r26
    6888:	00 97       	sbiw	r24, 0x00	; 0
    688a:	79 f7       	brne	.-34     	; 0x686a <__utoa_common+0x4>
    688c:	b1 11       	cpse	r27, r1
    688e:	b1 93       	st	Z+, r27
    6890:	11 92       	st	Z+, r1
    6892:	cb 01       	movw	r24, r22
    6894:	00 c0       	rjmp	.+0      	; 0x6896 <strrev>

00006896 <strrev>:
    6896:	dc 01       	movw	r26, r24
    6898:	fc 01       	movw	r30, r24
    689a:	67 2f       	mov	r22, r23
    689c:	71 91       	ld	r23, Z+
    689e:	77 23       	and	r23, r23
    68a0:	e1 f7       	brne	.-8      	; 0x689a <strrev+0x4>
    68a2:	32 97       	sbiw	r30, 0x02	; 2
    68a4:	04 c0       	rjmp	.+8      	; 0x68ae <strrev+0x18>
    68a6:	7c 91       	ld	r23, X
    68a8:	6d 93       	st	X+, r22
    68aa:	70 83       	st	Z, r23
    68ac:	62 91       	ld	r22, -Z
    68ae:	ae 17       	cp	r26, r30
    68b0:	bf 07       	cpc	r27, r31
    68b2:	c8 f3       	brcs	.-14     	; 0x68a6 <strrev+0x10>
    68b4:	08 95       	ret

000068b6 <eeprom_read_byte>:
    68b6:	f9 99       	sbic	0x1f, 1	; 31
    68b8:	fe cf       	rjmp	.-4      	; 0x68b6 <eeprom_read_byte>
    68ba:	92 bd       	out	0x22, r25	; 34
    68bc:	81 bd       	out	0x21, r24	; 33
    68be:	f8 9a       	sbi	0x1f, 0	; 31
    68c0:	99 27       	eor	r25, r25
    68c2:	80 b5       	in	r24, 0x20	; 32
    68c4:	08 95       	ret

000068c6 <eeprom_read_word>:
    68c6:	a8 e1       	ldi	r26, 0x18	; 24
    68c8:	b0 e0       	ldi	r27, 0x00	; 0
    68ca:	42 e0       	ldi	r20, 0x02	; 2
    68cc:	50 e0       	ldi	r21, 0x00	; 0
    68ce:	13 c0       	rjmp	.+38     	; 0x68f6 <eeprom_read_blraw>

000068d0 <eeprom_write_byte>:
    68d0:	26 2f       	mov	r18, r22

000068d2 <eeprom_write_r18>:
    68d2:	f9 99       	sbic	0x1f, 1	; 31
    68d4:	fe cf       	rjmp	.-4      	; 0x68d2 <eeprom_write_r18>
    68d6:	1f ba       	out	0x1f, r1	; 31
    68d8:	92 bd       	out	0x22, r25	; 34
    68da:	81 bd       	out	0x21, r24	; 33
    68dc:	20 bd       	out	0x20, r18	; 32
    68de:	0f b6       	in	r0, 0x3f	; 63
    68e0:	f8 94       	cli
    68e2:	fa 9a       	sbi	0x1f, 2	; 31
    68e4:	f9 9a       	sbi	0x1f, 1	; 31
    68e6:	0f be       	out	0x3f, r0	; 63
    68e8:	01 96       	adiw	r24, 0x01	; 1
    68ea:	08 95       	ret

000068ec <eeprom_write_word>:
    68ec:	f1 df       	rcall	.-30     	; 0x68d0 <eeprom_write_byte>
    68ee:	27 2f       	mov	r18, r23
    68f0:	f0 cf       	rjmp	.-32     	; 0x68d2 <eeprom_write_r18>

000068f2 <eeprom_read_block>:
    68f2:	dc 01       	movw	r26, r24
    68f4:	cb 01       	movw	r24, r22

000068f6 <eeprom_read_blraw>:
    68f6:	fc 01       	movw	r30, r24
    68f8:	f9 99       	sbic	0x1f, 1	; 31
    68fa:	fe cf       	rjmp	.-4      	; 0x68f8 <eeprom_read_blraw+0x2>
    68fc:	06 c0       	rjmp	.+12     	; 0x690a <eeprom_read_blraw+0x14>
    68fe:	f2 bd       	out	0x22, r31	; 34
    6900:	e1 bd       	out	0x21, r30	; 33
    6902:	f8 9a       	sbi	0x1f, 0	; 31
    6904:	31 96       	adiw	r30, 0x01	; 1
    6906:	00 b4       	in	r0, 0x20	; 32
    6908:	0d 92       	st	X+, r0
    690a:	41 50       	subi	r20, 0x01	; 1
    690c:	50 40       	sbci	r21, 0x00	; 0
    690e:	b8 f7       	brcc	.-18     	; 0x68fe <eeprom_read_blraw+0x8>
    6910:	08 95       	ret

00006912 <_exit>:
    6912:	f8 94       	cli

00006914 <__stop_program>:
    6914:	ff cf       	rjmp	.-2      	; 0x6914 <__stop_program>
